(dp0
S'ShahziaHoltom'
p1
F1.0
sS'Rivas1Alex'
p2
F0.99
sS'deborahdahl'
p3
F1.0
sS'sujamthe'
p4
F0.96
sS'johnsonll'
p5
F1.0
sS'hmson'
p6
F1.0
sS'TheAnnaGat'
p7
F0.0
sS'peterph51641121'
p8
F1.0
sS'aheineike'
p9
F1.0
sS'Samsterrrs'
p10
F1.0
sS'stephaniejyee'
p11
F1.0
sS'DuniyaSamachar'
p12
F1.0
sS'VedParkash71'
p13
F1.0
sS'rptrpn'
p14
F1.0
sS'MarianneMader'
p15
F0.99
sS'katyhuff'
p16
F1.0
sS'HiFiCinema'
p17
F1.0
sS'mariagrineva'
p18
F1.0
sS'petitegeek'
p19
F1.0
sS'thanhdat031'
p20
F0.31
sS'dalbersszafir'
p21
F1.0
sS'Bbl_Astrophyscs'
p22
F0.0
sS'KarinaSchewtsc'
p23
F1.0
sS'zacharylipton'
p24
F1.0
sS'TraderCobb'
p25
F0.22
sS'YesCheek'
p26
F1.0
sS'haleyvandyck'
p27
F1.0
sS'thilinanamal93'
p28
F1.0
sS'NoritaJaafar'
p29
F1.0
sS'EllieSemantic'
p30
F1.0
sS'BITechWatch'
p31
F0.75
sS'carolinesinders'
p32
F1.0
sS'Load4App'
p33
F1.0
sS'UshaChavan'
p34
F1.0
sS'DJSOUNDTECHNOL1'
p35
F1.0
sS'angelaschoellig'
p36
F1.0
sS'TinyChocola'
p37
F0.99
sS'james05202191'
p38
F1.0
sS'PyViv'
p39
F1.0
sS'damienfrancois'
p40
F1.0
sS'vkrakovna'
p41
F1.0
sS'ashcoool93'
p42
F0.0
sS'sowasser'
p43
F1.0
sS'eksoward'
p44
F1.0
sS'RikaGorn'
p45
F1.0
sS'iremcamlica'
p46
F1.0
sS'irenetrampoline'
p47
F1.0
sS'codemestat'
p48
F1.0
sS'AmeliaMN'
p49
F1.0
sS'aleatha'
p50
F1.0
sS'captainsafia'
p51
F1.0
sS'IMdeepakdalal'
p52
F0.94
sS'evelynmuenster'
p53
F1.0
sS'alexandrasanne'
p54
F1.0
sS'Kart_Lisa'
p55
F1.0
sS'samithaslw'
p56
F1.0
sS'frey_1'
p57
F0.0
sS'DoVanNhat6'
p58
F1.0
sS'crypto_beebeta'
p59
F1.0
sS'maykaynvwd'
p60
F1.0
sS'Zofiathewitch'
p61
F0.99
sS'NatashaWalk'
p62
F1.0
sS'crypbtc'
p63
F0.99
sS'ashtonjenner_88'
p64
F1.0
sS'khurchla'
p65
F1.0
sS'nicoleradziwill'
p66
F0.99
sS'chandana78'
p67
F1.0
sS'jiazhang'
p68
F1.0
sS'crypto_flyalpha'
p69
F1.0
sS'jamesian'
p70
F0.0
sS'KimSted'
p71
F1.0
sS'heshanisulo90'
p72
F1.0
sS'PayarForever'
p73
F1.0
sS'SighSam'
p74
F1.0
sS'Cryptoking93'
p75
F1.0
sS'SamuelsSamsam'
p76
F1.0
sS'mrogati'
p77
F1.0
sS'Pro_Advisory'
p78
F1.0
sS'imrchen'
p79
F1.0
sS'SpaceAnubis'
p80
F1.0
sS'JanelleCShane'
p81
F1.0
sS'JamieDJS'
p82
F1.0
sS'EsamHigab'
p83
F1.0
sS'bigdana'
p84
F1.0
sS'dmonett'
p85
F1.0
sS'reworkAI'
p86
F1.0
sS'AkilaJeeson'
p87
F1.0
sS'tamaradull'
p88
F1.0
sS'srionline2'
p89
F0.98
sS'TensorFlow'
p90
F1.0
sS'tesherista'
p91
F1.0
sS'lindauruchurtu'
p92
F1.0
sS'XixinaXixikk'
p93
F0.99
sS'zinmalu'
p94
F1.0
sS'MaineC'
p95
F1.0
sS'PardisSabeti'
p96
F1.0
sS'jasdumas'
p97
F1.0
sS'tammyschirle'
p98
F0.0
sS'alexisylchan'
p99
F1.0
sS'CarlieIdoine'
p100
F1.0
sS'senuri89'
p101
F1.0
sS'mikiobraun'
p102
F1.0
sS'TeamRokeyaJ'
p103
F0.97
sS'drarnakarick'
p104
F1.0
sS'tentejswi'
p105
F1.0
sS'cynthiablee'
p106
F1.0
sS'ClaireNS'
p107
F1.0
sS'kazisajib1718'
p108
F0.99
sS'lindsleininger'
p109
F1.0
sS'janexwang'
p110
F1.0
sS'Poulincogsci'
p111
F1.0
sS'cetacean_needed'
p112
F1.0
sS'trinachi'
p113
F1.0
sS'proulx_n'
p114
F1.0
sS'vboykis'
p115
F0.98
sS'OlaHawatmeh'
p116
F1.0
sS'Vid_Spandana'
p117
F1.0
sS'BaminiJ'
p118
F1.0
sS'inventiongirl'
p119
F1.0
sS'theoni_p'
p120
F1.0
sS'meganmoneill'
p121
F1.0
sS'csdoctorsister'
p122
F1.0
sS'stephaniehicks'
p123
F1.0
sS'vaishalivijay1'
p124
F1.0
sS'xinh_huynh'
p125
F1.0
sS'math_rachel'
p126
F1.0
sS'Lmilley'
p127
F0.99
sS'mattredlon'
p128
F1.0
sS'Clair3tt'
p129
F1.0
sS'Workout4Jesus'
p130
F1.0
sS'ezinelk'
p131
F0.0
sS'sehosking'
p132
F1.0
sS'sharon000'
p133
F1.0
sS'ilichglz'
p134
F1.0
sS'dstraussalbee'
p135
F1.0
sS'kbreitman'
p136
F1.0
sS'mlchan'
p137
F0.99
sS'marjowolff'
p138
F1.0
sS'loellen_c'
p139
F1.0
sS'rctatman'
p140
F1.0
sS'fedhere'
p141
F1.0
sS'evilches'
p142
F1.0
sS'deirdrelee'
p143
F1.0
sS'jakehofman'
p144
F0.99
sS'jenniferbhecht'
p145
F1.0
sS'ch_doig'
p146
F1.0
sS'elizabethmatsui'
p147
F1.0
sS'mesmerizingkhan'
p148
F0.96
sS'karen_ec_levy'
p149
F1.0
sS'dsiegel'
p150
F1.0
sS'Markiting7'
p151
F1.0
sS'Prudent_Digital'
p152
F1.0
sS'adryenn'
p153
F0.98
sS'BaiduResearch'
p154
F1.0
sS'NekrasKate09'
p155
F1.0
sS'sharonstrands'
p156
F1.0
sS'gspandana'
p157
F0.99
sS'okdistribute'
p158
F1.0
sS'_JessicaLundin'
p159
F1.0
sS'pauldix'
p160
F1.0
sS'Nicole_Michel'
p161
F1.0
sS'MGalinox'
p162
F0.98
sS'sensored'
p163
F1.0
sS'JenWBruce'
p164
F1.0
sS'mpellet771'
p165
F1.0
sS'C_Leo_patra'
p166
F1.0
sS'HarrisPay'
p167
F0.96
sS'PritiPaul7'
p168
F1.0
sS'lijiali_vision'
p169
F1.0
sS'HamidehIraj'
p170
F1.0
sS'anjiperera96'
p171
F1.0
sS'booziv'
p172
F1.0
sS'redvmars'
p173
F1.0
sS'jschneider'
p174
F0.99
sS'peejaroni17'
p175
F1.0
sS'MayTaiwan'
p176
F1.0
sS'rachel_shorey'
p177
F0.0
sS'bvenus'
p178
F1.0
sS'wavvysoul'
p179
F1.0
sS'_erin_rachel'
p180
F1.0
sS'Lizstuartdc'
p181
F1.0
sS'MarzyehGhassemi'
p182
F1.0
sS'Lea_Shanley'
p183
F0.91
sS'amy_linehan_ca'
p184
F0.99
sS'stefjacinto'
p185
F1.0
sS'brendan642'
p186
F0.97
sS'edenmedina'
p187
F1.0
sS'lisadebruine'
p188
F0.99
sS'LauraMath3r'
p189
F1.0
sS'NephiAxe'
p190
F1.0
sS'Tude36'
p191
F1.0
sS'sbradshaww'
p192
F1.0
sS'CoherenceMed'
p193
F0.99
sS'ayodeleohh'
p194
F1.0
sS'tundraponds'
p195
F1.0
sS'catherinedevlin'
p196
F1.0
sS'AnnKEmery'
p197
F1.0
sS'siminaboca'
p198
F1.0
sS'kathrynmyronuk'
p199
F1.0
sS'clarecorthell'
p200
F1.0
sS'oceanmindband'
p201
F1.0
sS'Freelancing22'
p202
F1.0
sS'dpseidel'
p203
F1.0
sS'crypto879'
p204
F1.0
sS'reina_reyes'
p205
F1.0
sS'conikeec'
p206
F1.0
sS'theMingYang'
p207
F1.0
sS'UnGranDioso'
p208
F1.0
sS'coevote'
p209
F0.99
sS'koreaninterpre'
p210
F0.0
sS'Jonbuckhouse'
p211
F1.0
sS'DrJimmyStar'
p212
F0.93
sS'erinshellman'
p213
F0.0
sS'ameliagreenhall'
p214
F1.0
sS'raukstar'
p215
F1.0
sS'chrisalbon'
p216
F1.0
sS'www_Dewa17com'
p217
F1.0
sS'cortnie_cdo'
p218
F1.0
sS'communicating'
p219
F1.0
sS'Imsumudu'
p220
F0.99
sS'Kai_India_'
p221
F1.0
sS'TruckeeMarcie'
p222
F1.0
sS'IrinaSedenko'
p223
F1.0
sS'WireMonkey'
p224
F1.0
sS'NotAnArtichoke'
p225
F1.0
sS'CLcep'
p226
F1.0
sS'annmariastat'
p227
F1.0
sS'lopezjenniferw'
p228
F1.0
sS'Solar_lass'
p229
F1.0
sS'linhnguyen1094'
p230
F0.78
sS'ReginaNuzzo'
p231
F1.0
sS'grapealope'
p232
F1.0
sS'alinochkasmirn4'
p233
F1.0
sS'jchaskell2'
p234
F1.0
sS'lightofnationne'
p235
F1.0
sS'DrScranto'
p236
F1.0
sS'jhurwitz'
p237
F0.88
sS'nausher'
p238
F1.0
sS'patrickabrar'
p239
F1.0
sS'catherinebuk'
p240
F1.0
sS'SteffLocke'
p241
F1.0
sS'JessicaHullman'
p242
F0.98
sS'jamie_irza'
p243
F1.0
sS'drfeifei'
p244
F0.0
sS'katherinebailey'
p245
F0.99
sS'__280__'
p246
F0.0
sS'alisohani'
p247
F1.0
sS'eloyan_ani'
p248
F1.0
sS'LaithAJ_Fans'
p249
F1.0
sS'walter_mair'
p250
F1.0
sS'DwanAlwen'
p251
F1.0
sS'GinnyGhezzo'
p252
F1.0
sS'angelaambroz'
p253
F1.0
sS'LoveStats'
p254
F1.0
sS'schartkoff'
p255
F1.0
sS'Kelsey_Clubb'
p256
F1.0
sS'lalorenz6'
p257
F1.0
sS'OmarAbou8711'
p258
F1.0
sS'reworkpip'
p259
F1.0
sS'RadhikaAtEmcien'
p260
F1.0
sS'thrintelmarket'
p261
F1.0
sS'visahousedelhi'
p262
F1.0
sS'Vic_Bioinfo'
p263
F1.0
sS'brockvicky'
p264
F1.0
sS'OluwaYettie'
p265
F1.0
sS'agnieszka_th'
p266
F1.0
sS'kuzandonoz'
p267
F1.0
sS'marca_direct'
p268
F1.0
sS'natalieasis'
p269
F1.0
sS'AsankaDey'
p270
F1.0
sS'SubraaPD'
p271
F1.0
sS'syf_2013'
p272
F1.0
sS'Gbitses'
p273
F0.0
sS'ChillerDeo1'
p274
F1.0
sS'AgileAnuja'
p275
F1.0
sS'AGICTechnology'
p276
F1.0
sS'biobeth'
p277
F0.99
sS'mmh1'
p278
F0.99
sS'umunairu'
p279
F1.0
sS'arunachalamev'
p280
F1.0
sS'AruniNishanthi'
p281
F1.0
sS'beena_ammanath'
p282
F1.0
sS'smith_gk'
p283
F1.0
sS'lisachwinter'
p284
F0.06
sS'DavidHloch'
p285
F1.0
sS'VisualEcon'
p286
F1.0
sS'margaretlmck'
p287
F1.0
sS'victoriastodden'
p288
F0.98
sS'nellwyn'
p289
F0.0
sS'Maggiemakar'
p290
F1.0
sS'marla_caraibi'
p291
F1.0
sS'datachloe'
p292
F0.0
sS'DivulgaTVZ'
p293
F0.61
sS'bethnoveck'
p294
F0.98
sS'kellecruz'
p295
F1.0
sS'karenchurch'
p296
F0.0
sS'ojahnn'
p297
F0.99
sS'siatogia'
p298
F1.0
sS'yukselduman25'
p299
F0.92
sS'JennFleck'
p300
F1.0
sS'houssaine_amzil'
p301
F0.0
sS'Ada_Jeles'
p302
F1.0
sS'CreationScisso2'
p303
F1.0
sS'Cassie_DeWitt'
p304
F1.0
sS'mkutmon'
p305
F1.0
sS'annosax'
p306
F1.0
sS'seersco'
p307
F1.0
sS'Tatjana_Kec'
p308
F1.0
sS'BeEngelhardt'
p309
F1.0
sS'cryptosrilanka'
p310
F0.99
sS'jeremyphoward'
p311
F1.0
sS'elindse1'
p312
F1.0
sS'sctyner'
p313
F1.0
sS'gan_ef'
p314
F1.0
sS'RealKAYRHOMA'
p315
F1.0
sS'nmatthiasmoore'
p316
F0.99
sS'susanaferreras'
p317
F1.0
sS'jrnewww'
p318
F1.0
sS'emirfarinas'
p319
F1.0
sS'starignus'
p320
F1.0
sS'DataJunkie'
p321
F0.99
sS'lindamciver'
p322
F0.99
sS'mer__edith'
p323
F0.0
sS'DrAndyPardoe'
p324
F0.98
sS'alexduke'
p325
F0.99
sS'gdb'
p326
F1.0
sS'HuuViet2410'
p327
F1.0
sS'PrabhaGana'
p328
F1.0
sS'j_l_kelly'
p329
F1.0
sS'BolagSpecialist'
p330
F1.0
sS'follow_me_plz28'
p331
F1.0
sS'jennifermarsman'
p332
F0.0
sS'MySuratMySMC'
p333
F1.0
sS'cthydng'
p334
F1.0
sS'_glitterworm'
p335
F0.99
sS'GreatBlueC'
p336
F1.0
sS'thebigcormack'
p337
F1.0
sS'elthenerd'
p338
F1.0
sS'_kyliejane'
p339
F0.99
sS'ImRameshwor'
p340
F0.0
sS'Kritika_Jalan'
p341
F1.0
sS'SarahJaneHoya'
p342
F1.0
sS'sweetsp'
p343
F1.0
sS'elaineklee'
p344
F1.0
sS'MediaSKINNED'
p345
F1.0
sS'kolesnikalinka1'
p346
F1.0
sS'heathercmiller'
p347
F1.0
sS'havasi'
p348
F1.0
sS'bradcryp'
p349
F1.0
sS'ilse_ackerman'
p350
F1.0
sS'wendykan'
p351
F1.0
sS'amcyg'
p352
F1.0
sS'shellyjang'
p353
F1.0
sS'guo_krystal'
p354
F1.0
sS'RustyRokib'
p355
F1.0
sS'notFromShrek'
p356
F0.98
sS'furnishingstore'
p357
F0.0
sS'DrBrittne'
p358
F1.0
sS'afwong'
p359
F1.0
sS'dinujuly22'
p360
F1.0
sS'disrupster'
p361
F0.0
sS'PartyDabba'
p362
F1.0
sS'WomenInStat'
p363
F1.0
sS'lizzadwoskin'
p364
F1.0
sS'MHuebnerPhD'
p365
F1.0
sS'officialCTMcom'
p366
F1.0
sS'RaeKnowler'
p367
F1.0
sS'sorprendida'
p368
F1.0
sS'MichelleWiest'
p369
F1.0
sS'shawonbabu'
p370
F1.0
sS'tordable'
p371
F1.0
sS'i2pi'
p372
F1.0
sS'donna_ddmh'
p373
F0.0
sS'karenhsumar'
p374
F1.0
sS'FSchueuer'
p375
F1.0
sS'thatburquebelle'
p376
F1.0
sS'JackieKazil'
p377
F0.99
sS'skcexport'
p378
F1.0
sS'clinton_dews'
p379
F0.99
sS'gamephace'
p380
F1.0
sS'Erie'
p381
F1.0
sS'OzBigdownunder'
p382
F0.0
sS'treasa'
p383
F0.98
sS'yaelgarten'
p384
F1.0
sS'sunnydeveloper'
p385
F0.0
sS'_JAStark'
p386
F1.0
sS'MdMohib1996'
p387
F0.0
sS'etalbot1291'
p388
F1.0
sS'rodrigocornejoz'
p389
F0.0
sS't_tsvet'
p390
F1.0
sS'nmaggikelly'
p391
F1.0
sS'Nightitaly'
p392
F0.9879518072289156
sS'emilymbender'
p393
F0.0
sS'abarysh'
p394
F1.0
sS'getLaura'
p395
F1.0
sS'LillianSaysSo'
p396
F1.0
sS'jczetta'
p397
F0.99
sS'haydemtzl'
p398
F1.0
sS'xciteandempower'
p399
F1.0
sS'marden928'
p400
F1.0
sS'jazman_zweni'
p401
F1.0
sS'hero93669219'
p402
F1.0
sS'lenadroid'
p403
F1.0
sS'eamcvey'
p404
F1.0
sS'CryptoSpaceTM'
p405
F1.0
sS'ExchangeAlerter'
p406
F1.0
sS'bergautier'
p407
F1.0
sS'JScurrell'
p408
F0.89
sS'Ajitkumargiri92'
p409
F1.0
sS'mercyangelo10'
p410
F0.96
sS'grammarnerd'
p411
F1.0
sS'AShendruk'
p412
F1.0
sS'sastoudt'
p413
F1.0
sS'kellieotto'
p414
F1.0
sS'rajashreeb07'
p415
F1.0
sS'moorejh'
p416
F0.99
sS'EllieAsksWhy'
p417
F1.0
sS'catherineols'
p418
F1.0
sS'sairmais'
p419
F1.0
sS'julialintern'
p420
F0.0
sS'nancygrady'
p421
F1.0
sS'tessalau'
p422
F1.0
sS'jkv_crypto'
p423
F1.0
sS'FeminismTech'
p424
F0.99
sS'n_ashutosh'
p425
F1.0
sS'dellsystem'
p426
F0.92
sS'crypt_mantisbee'
p427
F1.0
sS'kaitlinbdevine'
p428
F1.0
sS'xenonq07'
p429
F1.0
sS'MuhammaddNawaz'
p430
F1.0
sS'CoinInvestBank'
p431
F1.0
sS'hannahjean515'
p432
F1.0
sS'lc_powell'
p433
F1.0
sS'jackiecassell'
p434
F1.0
sS'AndrewYNg'
p435
F1.0
sS'eredmil1'
p436
F0.99
sS'SamanthaSifleet'
p437
F0.95
sS'behavioralist'
p438
F0.0
sS'ssahebi'
p439
F1.0
sS'sophie_sparkes'
p440
F1.0
sS'samarwakel'
p441
F1.0
sS'eleanorahowe'
p442
F1.0
sS'nanacalderon'
p443
F1.0
sS'd4tagirl'
p444
F1.0
sS'OberoiPri'
p445
F1.0
sS'vcheplygina'
p446
F1.0
sS'sxywu'
p447
F1.0
sS'minebocek'
p448
F1.0
sS'BVLSingler'
p449
F1.0
sS'ByerlyElizabeth'
p450
F0.99
sS'WomenInData'
p451
F1.0
sS'OrnellinaGreco'
p452
F1.0
sS'LuckyFeliciaH'
p453
F0.99
sS'David_Kudla'
p454
F1.0
sS'magda92122'
p455
F1.0
sS'cattruxillo'
p456
F1.0
sS'rachelss'
p457
F1.0
sS'demishassabis'
p458
F1.0
sS'extremefriday'
p459
F1.0
sS'whichblockchain'
p460
F1.0
sS'DrCh0le'
p461
F0.0
sS'Data_Visual_'
p462
F1.0
sS'sangha_deb'
p463
F1.0
sS'brooksbell'
p464
F1.0
sS'tabithagold'
p465
F1.0
sS'lauraalbertphd'
p466
F1.0
sS'DonJovieThaOG'
p467
F1.0
sS'DavidDuvenaud'
p468
F0.0
sS'maxmagnus555'
p469
F1.0
sS'zelashoe'
p470
F1.0
sS'cecilialiao'
p471
F1.0
sS'kwchang'
p472
F0.99
sS'AliciaOshlack'
p473
F0.99
sS'gypsyescapade'
p474
F1.0
sS'BhatPrshant'
p475
F1.0
sS'jackiefloyd'
p476
F0.0
sS'londonaesthetik'
p477
F1.0
sS'oliviawalch'
p478
F0.99
sS'abhishektiwari'
p479
F1.0
sS'_jenlowe_'
p480
F0.0
sS'IsabellaGollini'
p481
F1.0
sS'AyRenay'
p482
F1.0
sS'LynnOvermann'
p483
F0.0
sS'kennelliott'
p484
F1.0
sS'suhaib_saad'
p485
F1.0
sS'bbwfriendsdate'
p486
F0.99
sS'RailAnalysis'
p487
F0.99
sS'rachelbinx'
p488
F1.0
sS'taoyeah'
p489
F1.0
sS'marebertola'
p490
F1.0
sS'Smerity'
p491
F0.99
sS'Sudarma_Sampath'
p492
F1.0
sS'soumen_eclectic'
p493
F1.0
sS'tamaramunzner'
p494
F1.0
sS'maruthven'
p495
F1.0
sS'AnneEUrai'
p496
F0.99
sS'being2shubham'
p497
F0.0
sS'MichelleUfford'
p498
F1.0
sS'sieben99krist'
p499
F1.0
sS'leighadlr'
p500
F0.0
sS'GulfStar_Tur'
p501
F1.0
sS'chaiejtefron'
p502
F0.98
sS'balajiln'
p503
F1.0
sS'DTO_Fr'
p504
F1.0
sS'slowiika'
p505
F1.0
sS'mridulnandy1'
p506
F1.0
sS'cdChristinaDiaz'
p507
F1.0
sS'jovialjoy'
p508
F1.0
sS'kerstin_bach'
p509
F1.0
sS'drjessilyn'
p510
F1.0
sS'onindianhistory'
p511
F1.0
sS'2plus2make5'
p512
F1.0
sS'wgrus'
p513
F1.0
sS'ideaofhappiness'
p514
F0.0
sS'jkl2'
p515
F1.0
sS'phuonganh1239'
p516
F0.8
sS'pinkrving'
p517
F1.0
sS'smoclerk1'
p518
F1.0
sS'JreneeRenee'
p519
F0.83
sS'mmlee'
p520
F0.99
sS'deborahhanus'
p521
F1.0
sS'ProcreateDesign'
p522
F1.0
sS'WBPolice'
p523
F0.0
sS'VaynixVNX'
p524
F0.0
sS'kaythaney'
p525
F1.0
sS'majsander'
p526
F0.98
sS'clareconway'
p527
F0.97
sS'hessiejones'
p528
F1.0
sS'taiabur01'
p529
F1.0
sS'dayvidvictor'
p530
F1.0
sS'sandra_greiss'
p531
F1.0
sS'EmCalGal'
p532
F1.0
sS'EmilyGorcenski'
p533
F0.98
sS'jfreirenet'
p534
F1.0
sS'ML_NLP'
p535
F1.0
sS'meena_uvaca'
p536
F1.0
sS'scyspy'
p537
F1.0
sS'danrobsondias'
p538
F1.0
sS'beeonaposy'
p539
F0.94
sS'sagihaider'
p540
F1.0
sS'sgrifter'
p541
F1.0
sS'BadamPistha'
p542
F1.0
sS'tracykteal'
p543
F1.0
sS'rapperredd'
p544
F0.0
sS'DrJillianNey'
p545
F1.0
sS'lesmil'
p546
F1.0
sS'dennybritz'
p547
F1.0
sS'bouncingsheep'
p548
F1.0
sS'DebateLover'
p549
F1.0
sS'notmisha'
p550
F1.0
sS'lpettingill'
p551
F1.0
sS'aareiass'
p552
F1.0
sS'CatRey'
p553
F0.98
sS'Ciri8923'
p554
F1.0
sS'daljeetsainifan'
p555
F0.99
sS'Jddgascon'
p556
F1.0
sS'DrLinaBader'
p557
F0.97
sS'TutorialBartop'
p558
F0.0
sS'Globalinspectio'
p559
F1.0
sS'PlasticStar_Mag'
p560
F1.0
sS'jenniromanek'
p561
F1.0
sS'butchimaubmt'
p562
F0.96
sS'WeekendArchaeo'
p563
F0.99
sS'bengoertzel'
p564
F1.0
sS'Crownkart'
p565
F1.0
sS'MayaVersal'
p566
F1.0
sS'jo_hardin47'
p567
F1.0
sS'shivanigrao'
p568
F1.0
sS'Rewak_'
p569
F0.967391304347826
sS'OMGannaks'
p570
F1.0
sS'RosalindPicard'
p571
F1.0
sS'dianam'
p572
F1.0
sS'skilled_odisha'
p573
F1.0
sS'michellejw'
p574
F1.0
sS'esimpler'
p575
F0.99
sS'StuartJehan'
p576
F1.0
sS'SusannBeier'
p577
F0.0
sS'jamie_kays'
p578
F1.0
sS'MCanalytics'
p579
F1.0
sS'rileymsmith19'
p580
F1.0
sS'momiperalta'
p581
F1.0
sS'librarylettie'
p582
F0.97
sS'suchisaria'
p583
F1.0
sS'kerfors'
p584
F1.0
sS'mashritaonline'
p585
F1.0
sS'catmule'
p586
F0.0
sS'abhisheksapabap'
p587
F1.0
sS'sarahsproehnle'
p588
F1.0
sS'NguyenM81031025'
p589
F0.99
sS'SQLCindy'
p590
F1.0
sS'shantihomeindia'
p591
F1.0
sS'atmccann'
p592
F0.99
sS'aileengemma'
p593
F0.99
sS'JohnX011010'
p594
F1.0
sS'crypto_anttheta'
p595
F1.0
sS'gdequeiroz'
p596
F0.99
sS'Maccow01'
p597
F0.96
sS'janith075'
p598
F1.0
sS'data_nerd'
p599
F0.97
sS'inma_martinez'
p600
F0.0
sS'adampaulcoates'
p601
F1.0
sS'datapriestess'
p602
F1.0
sS'freelatestsms'
p603
F1.0
sS'AskHelenBrown'
p604
F1.0
sS'zararah'
p605
F0.99
sS'AmandaHeiderman'
p606
F1.0
sS'annalisabarla'
p607
F1.0
sS'Vwalkshoe'
p608
F1.0
sS'Dr_CMingarelli'
p609
F0.99
sS'emilyinamillion'
p610
F1.0
sS'_lisaq'
p611
F1.0
sS'louiseadennis'
p612
F0.98
sS'd_jyldyz'
p613
F1.0
sS'bluevincent'
p614
F0.99
sS'xuNsh1neV1'
p615
F0.0
sS'amyskerry'
p616
F1.0
sS'MicheleJKiss'
p617
F1.0
sS'genevievemp'
p618
F1.0
sS'lakhotia_anita'
p619
F1.0
sS'annakrystalli'
p620
F0.0
sS'InvensMobile'
p621
F1.0
sS'clairemelamed'
p622
F1.0
sS'datapointier'
p623
F1.0
sS'riicolimited'
p624
F1.0
sS'DennisKoutoudis'
p625
F0.99
sS'amssvensson'
p626
F0.99
sS'lindaliukas'
p627
F1.0
sS'elenatej'
p628
F1.0
sS'michelleminkoff'
p629
F1.0
sS'SoniDharamander'
p630
F1.0
sS'LauraHKahn'
p631
F1.0
sS'ARoyalHistorian'
p632
F1.0
sS'ShojibMohoshin'
p633
F1.0
sS'huynhhuutho520'
p634
F0.9714285714285714
sS'i_pascu'
p635
F0.98
sS'TyronDixon'
p636
F1.0
sS'RajivW1984'
p637
F1.0
sS'fossilosophy'
p638
F0.99
sS'leo8xls'
p639
F0.98
sS'morganthegray'
p640
F1.0
sS'Yssybyl'
p641
F1.0
sS'NancyAjram'
p642
F1.0
sS'StaniMeredith'
p643
F1.0
sS'RichardPyros'
p644
F1.0
sS'embrein'
p645
F0.99
sS'shanfu'
p646
F0.0
sS'vem_de_vlog'
p647
F1.0
sS'bricon5'
p648
F1.0
sS'H_A_P_A'
p649
F0.99
sS'lmthang'
p650
F1.0
sS'MiaD'
p651
F0.99
sS'Alexanderemr__'
p652
F0.0
sS'hspter'
p653
F1.0
sS'adversariel'
p654
F0.0
sS'JaclynWeiser'
p655
F1.0
sS'emilybartha'
p656
F0.0
sS'DaphnaHarel'
p657
F1.0
sS'GaskyK'
p658
F1.0
sS'jhamrick'
p659
F0.0
sS'seogoogleall'
p660
F1.0
sS'KathyApplebaum'
p661
F1.0
sS'ledell'
p662
F0.98
sS'xllora'
p663
F1.0
sS'dlmgaming'
p664
F1.0
sS'ancuty69'
p665
F0.99
sS'lishali88'
p666
F1.0
sS'nathali_leone'
p667
F1.0
sS'Groovy_Bois'
p668
F1.0
sS'lonestarsally'
p669
F1.0
sS'katycns'
p670
F1.0
sS'neal_lathia'
p671
F1.0
sS'pchandarr'
p672
F1.0
sS'rajmanoj11'
p673
F1.0
sS'btc_amazing_com'
p674
F0.0
sS'hagiang8x'
p675
F0.92
sS'thejunglejane'
p676
F1.0
sS'michelenull'
p677
F1.0
sS'DrCatNelson'
p678
F1.0
sS'forcetalks'
p679
F1.0
sS'OlgaTsubiks'
p680
F1.0
sS'ChiriGo_'
p681
F1.0
sS'kahnchat'
p682
F1.0
sS'JeanneHolm'
p683
F1.0
sS'sherrirose'
p684
F1.0
sS'Nhungkia'
p685
F1.0
sS'TechPolicy'
p686
F1.0
sS'ChrisMalinow'
p687
F1.0
sS'JennyToan1983'
p688
F0.13
sS'JennyBryan'
p689
F1.0
sS'mdreid'
p690
F1.0
sS'vivian__zhang'
p691
F0.99
sS'nitipaudyal'
p692
F1.0
sS'claudiawilliams'
p693
F1.0
sS'Bill__Hoang'
p694
F1.0
sS'kdphd'
p695
F1.0
sS'multiartazure'
p696
F1.0
sS'KryanIgor'
p697
F1.0
sS'AliMakhzani'
p698
F1.0
sS'ilknurkabul'
p699
F1.0
sS'ChrisMedia4'
p700
F1.0
sS'ellen_koenig'
p701
F1.0
sS'fridapolli'
p702
F0.0
sS'shopGHTN'
p703
F1.0
sS'RichardSocher'
p704
F1.0
sS'LittleMissData'
p705
F1.0
sS'ladamic'
p706
F1.0
sS'Lydia_S_Chen'
p707
F1.0
sS'rubyrubyruby9'
p708
F1.0
sS'fcarson'
p709
F1.0
sS'Notawful'
p710
F1.0
sS'mthielbar'
p711
F1.0
sS'StudentOfEarth'
p712
F0.97
sS'abmakulec'
p713
F1.0
sS'nikitaljohnson'
p714
F0.98
sS'juliasilge'
p715
F0.99
sS'Themadbugkoustu'
p716
F0.98
sS'FutureFlicks_'
p717
F1.0
sS'NestadeV1337'
p718
F0.0
sS'AngelaZutavern'
p719
F0.95
sS'klubkodiak'
p720
F0.35
sS'priyaponnapalli'
p721
F1.0
sS'johnmyleswhite'
p722
F1.0
sS'loooorenanicole'
p723
F1.0
sS'FarfalleArt_IN'
p724
F1.0
sS'RubyChilds'
p725
F0.99
sS'emsweene57'
p726
F1.0
sS'BKaan05'
p727
F1.0
sS'notielvigilante'
p728
F1.0
sS'KrishBhatt2000'
p729
F1.0
sS'gillianmchin'
p730
F1.0
sS'n_kahmed'
p731
F0.0
sS'Begum__Ozdemirr'
p732
F1.0
sS'figure8labs'
p733
F1.0
sS'LeighCressman'
p734
F1.0
sS'nsaphra'
p735
F1.0
sS'natschluter'
p736
F1.0
sS'CathrynCarson'
p737
F1.0
sS'miriamfriedel'
p738
F1.0
sS'KristinHenry'
p739
F1.0
sS'CESCLimited'
p740
F1.0
sS'gloriatlau'
p741
F1.0
sS'RNA_biologist'
p742
F1.0
sS'HostBooksIndia'
p743
F0.99
sS'enkayfreda'
p744
F1.0
sS'ApoorveDubey'
p745
F1.0
sS'priyasad95'
p746
F1.0
sS'TungTun63652781'
p747
F1.0
sS'CamEtLeon'
p748
F1.0
sS'DataIsFuture'
p749
F1.0
sS'Iskanderal'
p750
F1.0
sS's_bedir'
p751
F1.0
sS'monicachristlad'
p752
F1.0
sS'NguyenV12853850'
p753
F1.0
sS'responsibledesi'
p754
F1.0
sS'charrtay'
p755
F0.99
sS'mdabdulbari1993'
p756
F1.0
sS'idhasitha'
p757
F0.0
sS'debbiebere'
p758
F0.97
sS'DataToViz'
p759
F1.0
sS'GunamHospital'
p760
F1.0
sS'sunandakp'
p761
F1.0
sS'groundhog0202'
p762
F0.9
sS'chothechosenone'
p763
F1.0
sS'CandiHalbert'
p764
F1.0
sS'eminomura'
p765
F1.0
sS'babu3608'
p766
F1.0
sS'hirafdo'
p767
F1.0
sS'samim'
p768
F0.94
sS'Greendrv'
p769
F1.0
sS'diana_nario'
p770
F1.0
sS'himidu_'
p771
F1.0
sS'lnhaynes'
p772
F1.0
sS'amj_alves'
p773
F1.0
sS'nancykoppdw'
p774
F1.0
sS'LadyAshBorg'
p775
F0.99
sS'Shugars'
p776
F1.0
sS'SherlockpHolmes'
p777
F1.0
sS'lorynyc'
p778
F1.0
sS'DearPriya'
p779
F0.97
sS'aliawan9999'
p780
F1.0
sS'Miles_Brundage'
p781
F0.99
sS'mlsbd100'
p782
F1.0
sS'trimboy20017'
p783
F1.0
sS'RKkaspersky'
p784
F0.0
sS'RalitoDigital'
p785
F0.57
sS'thyngkm'
p786
F1.0
sS'nyghtowl'
p787
F1.0
sS'chadjamian'
p788
F1.0
sS'antheaws'
p789
F1.0
sS'DheerajSanghi'
p790
F1.0
sS'RVAwonk'
p791
F1.0
sS'lme2407'
p792
F1.0
sS'yasmind'
p793
F1.0
sS'EvilLucifera'
p794
F1.0
sS'MultoGhost'
p795
F1.0
sS'nsdelpitiya'
p796
F0.88
sS'zanstrong'
p797
F1.0
sS'prasad19841020'
p798
F1.0
sS'BevBrown'
p799
F0.0
sS'digitalFlaneuse'
p800
F1.0
sS'ErinMichelson'
p801
F0.93
sS'itscarolzee'
p802
F1.0
sS'grandtechvision'
p803
F1.0
sS'Avinashk_7'
p804
F0.99
sS'LisaVaughnFox26'
p805
F1.0
sS'AyleeNielsen'
p806
F1.0
sS'nimitjain11'
p807
F1.0
sS'monkqy'
p808
F1.0
sS'lalitkapoor'
p809
F1.0
sS'UbongLydia'
p810
F1.0
sS'PeatuceHq'
p811
F1.0
sS'thilakshan0001'
p812
F1.0
sS'bahiaZ'
p813
F0.98
sS'bigdata'
p814
F1.0
sS'wedgate'
p815
F0.0
sS'halawiBahia'
p816
F1.0
sS'CEHandley'
p817
F1.0
sS'jeniferjones'
p818
F1.0
sS'Iam_MMHirani'
p819
F1.0
sS'SolutionsVowel'
p820
F1.0
sS'RP_SanjivGoenka'
p821
F1.0
sS'NataliaKoles99'
p822
F1.0
sS'alison_cossette'
p823
F1.0
sS'nbrodnax'
p824
F1.0
sS'gappy3000'
p825
F1.0
sS'ttangAWS'
p826
F1.0
sS'morgantaschuk'
p827
F1.0
sS'suzymoat'
p828
F1.0
sS'ogrisel'
p829
F0.0
sS'crypto_beetle'
p830
F1.0
sS'jsteeleeditor'
p831
F1.0
sS'timwee'
p832
F1.0
sS'Classlicity'
p833
F1.0
sS'jessicammoss'
p834
F1.0
sS'ds_patricio'
p835
F0.0
sS'kralljr'
p836
F1.0
sS'mobycy'
p837
F0.99
sS'RealCashIn'
p838
F1.0
sS'KowalVA'
p839
F1.0
sS'jessiedza'
p840
F1.0
sS'lindaterlouw'
p841
F1.0
sS'WillingCarol'
p842
F1.0
sS'rajatmonga'
p843
F1.0
sS'MsDataDetective'
p844
F1.0
sS'EmilyLPatterson'
p845
F1.0
sS'EstherVasiete'
p846
F0.0
sS'thinkmariya'
p847
F1.0
sS'Tjido'
p848
F1.0
sS'Spiraladies'
p849
F1.0
sS'tatsianams'
p850
F1.0
sS'yusan_lin'
p851
F1.0
sS'kjam'
p852
F1.0
sS'rkthukral'
p853
F1.0
sS'evergreendata'
p854
F1.0
sS'jenbelissent'
p855
F1.0
sS'EvaMuStu'
p856
F1.0
sS'notivigilante'
p857
F1.0
sS'holdenkarau'
p858
F0.98
sS'TahsinAhmed69'
p859
F0.01
sS'amygershkoff'
p860
F1.0
sS'lisa_6789'
p861
F0.99
sS'decodyng'
p862
F1.0
sS'jmfabe'
p863
F1.0
sS'chamaraprasan16'
p864
F1.0
sS'ProfJenNeville'
p865
F1.0
sS'KmarzockShewolf'
p866
F0.96
sS'CesleeDineen'
p867
F1.0
sS'emmavaast'
p868
F1.0
sS'imightbemary'
p869
F1.0
sS'JustinL32562292'
p870
F1.0
sS'nasrinmmm'
p871
F0.0
sS'JenniSyed'
p872
F1.0
sS'Crypbull'
p873
F0.99
sS'ahfeel'
p874
F1.0
sS'tdoyon'
p875
F1.0
sS'lenikrsova'
p876
F0.99
sS'pga_cine'
p877
F1.0
sS'malonfe'
p878
F1.0
sS'AnnieGalati'
p879
F1.0
sS'zhangyaoy'
p880
F1.0
sS'dgasanka'
p881
F1.0
sS'achsoo'
p882
F1.0
sS'freewebmentor'
p883
F1.0
sS'jutrasmel'
p884
F1.0
sS'joycgarnett'
p885
F1.0
sS'steph_doctor'
p886
F1.0
sS'wolffpvck'
p887
F1.0
sS'dbdiaz99'
p888
F1.0
sS'birdsarah'
p889
F1.0
sS'cryptoolk'
p890
F0.99
sS'CamillaLongden'
p891
F1.0
sS'skahad39794940'
p892
F1.0
sS'e_delpech'
p893
F0.99
sS'Claradactyl'
p894
F1.0
sS'allisons'
p895
F1.0
sS'sere_signorelli'
p896
F1.0
sS'MaliciaRogue'
p897
F1.0
sS'barrosm_blog'
p898
F1.0
sS'jent103'
p899
F1.0
sS'EdwardTufte'
p900
F1.0
sS'sudhakarkodati'
p901
F1.0
sS'ProQuesAsker'
p902
F1.0
sS'lusantala'
p903
F0.99
sS'Bahareh360'
p904
F0.99
sS'esourceit'
p905
F0.99
sS'Tretyakova933'
p906
F1.0
sS'SehansaD'
p907
F0.97
sS'DanielleAlberti'
p908
F1.0
sS'sameerapoduri'
p909
F1.0
sS'BitplaceTo'
p910
F1.0
sS'AfanasjevaOlga'
p911
F1.0
sS'_MondoBizarro_'
p912
F1.0
sS'gcosma1'
p913
F1.0
sS'silil3'
p914
F1.0
sS'jessicagarson'
p915
F0.98
sS'kathytpham'
p916
F1.0
sS'ch402'
p917
F1.0
sS'janithkt'
p918
F0.0
sS'ElaineF'
p919
F0.99
sS'HyperRedX'
p920
F1.0
sS'm_rgoK'
p921
F1.0
sS'Katsivan3'
p922
F1.0
sS'SolMantra'
p923
F0.0
sS'vdignum'
p924
F1.0
sS'lesleylathrop'
p925
F1.0
sS'SeismoSue'
p926
F1.0
sS'GamingFrontNet'
p927
F1.0
sS'dataginjaninja'
p928
F1.0
sS'marwansarhan216'
p929
F0.82
sS'testobsessed'
p930
F1.0
sS'rajuahmed330'
p931
F0.86
sS'v_maini'
p932
F1.0
sS'nilupulie_k'
p933
F1.0
sS'arman_kara'
p934
F0.99
sS'KibetBenard_'
p935
F1.0
sS'AlexKeyman_D'
p936
F1.0
sS'NicoleADonnelly'
p937
F1.0
sS'brianavecchione'
p938
F1.0
sS'jessicayluo'
p939
F1.0
sS'emshort'
p940
F1.0
sS'AnneMarie2006'
p941
F1.0
sS'christinachirps'
p942
F1.0
sS'cstarlyv'
p943
F1.0
sS'LucyStats'
p944
F0.0
sS'BayesForDays'
p945
F1.0
sS'sheilaisbell'
p946
F1.0
sS'kristenaburton'
p947
F0.9883720930232558
sS'seriousssam'
p948
F1.0
sS'yuvadeepkumar'
p949
F1.0
sS'noUpside'
p950
F1.0
sS'ChrisDiehl'
p951
F1.0
sS'CaroleJesse'
p952
F1.0
sS'jr_razaa'
p953
F0.0
sS'fox90_'
p954
F1.0
sS'peteskomoroch'
p955
F0.0
sS'parisa_l'
p956
F1.0
sS'cazencott'
p957
F0.98
sS'kimknilsson'
p958
F1.0
sS'Shashicrypto1'
p959
F1.0
sS'meredithter'
p960
F1.0
sS'handee'
p961
F1.0
sS'mariasumner29'
p962
F0.99
sS'moor1204'
p963
F1.0
sS'sonnguyen1810'
p964
F1.0
sS'nealrichter'
p965
F0.99
sS'BridesLounge'
p966
F1.0
sS'KayFButterfield'
p967
F1.0
sS'evelgab'
p968
F1.0
sS'HomesAtMetacoda'
p969
F1.0
sS'DianeBELDAME'
p970
F1.0
sS'DigiChime'
p971
F1.0
sS'bhathiyaprabhat'
p972
F0.9764705882352941
sS'SashaLaundy'
p973
F1.0
sS'laura_tastic'
p974
F1.0
sS'kierisi'
p975
F0.99
sS'SasaSivcev'
p976
F1.0
sS'justcleanitGTA'
p977
F1.0
sS'MirelaGTulbure'
p978
F1.0
sS'semanticvoid'
p979
F1.0
sS'marianattestad'
p980
F1.0
sS'eyspahn'
p981
F1.0
sS'AlexandraaPodop'
p982
F1.0
sS'JayCeeBeer'
p983
F0.99
sS'fabianenardon'
p984
F1.0
sS'HarleyKwyn'
p985
F1.0
sS'STDANIELS54'
p986
F1.0
sS'tariqul99623297'
p987
F1.0
sS'slimbumzie'
p988
F1.0
sS'GermaineReyes'
p989
F1.0
sS'MHDKHAN13'
p990
F0.0
sS'pattithepotato'
p991
F1.0
sS'isanuage'
p992
F1.0
sS'UglyResearch'
p993
F1.0
sS'EimanKanjo'
p994
F0.99
sS'sathyainfo'
p995
F1.0
sS'ahs_academy'
p996
F0.0
sS'BernardMarr'
p997
F0.0
sS'kajepo'
p998
F1.0
sS'StephLKim'
p999
F1.0
sS'annakoop'
p1000
F1.0
s.