(dp0
S'mdabdulbari1993'
p1
F0.09
sS'kuzandonoz'
p2
F0.0
sS'RustyRokib'
p3
F0.0
sS'rajmanoj11'
p4
F0.0
sS'Katsivan3'
p5
F0.0
sS'Begum__Ozdemirr'
p6
F0.0
sS'freewebmentor'
p7
F0.0
sS'BitplaceTo'
p8
F0.03
sS'DTO_Fr'
p9
F0.0
sS'Workout4Jesus'
p10
F0.0
s.