(dp0
S'ShahziaHoltom'
p1
F0.17647058823529413
sS'Rivas1Alex'
p2
F0.3333333333333333
sS'deborahdahl'
p3
F0.3333333333333333
sS'sujamthe'
p4
F0.17647058823529413
sS'johnsonll'
p5
F0.17647058823529413
sS'hmson'
p6
F0.3333333333333333
sS'TheAnnaGat'
p7
F0.17647058823529413
sS'peterph51641121'
p8
F0.25
sS'aheineike'
p9
F0.25
sS'Samsterrrs'
p10
F0.17647058823529413
sS'stephaniejyee'
p11
F0.25
sS'DuniyaSamachar'
p12
F0.17647058823529413
sS'VedParkash71'
p13
F0.25
sS'rptrpn'
p14
F0.25
sS'MarianneMader'
p15
F0.17647058823529413
sS'katyhuff'
p16
F0.25
sS'HiFiCinema'
p17
F0.3333333333333333
sS'mariagrineva'
p18
F0.25
sS'petitegeek'
p19
F0.25
sS'thanhdat031'
p20
F0.25
sS'dalbersszafir'
p21
F0.3333333333333333
sS'Bbl_Astrophyscs'
p22
F0.25
sS'KarinaSchewtsc'
p23
F0.17647058823529413
sS'zacharylipton'
p24
F0.17647058823529413
sS'TraderCobb'
p25
F0.25
sS'YesCheek'
p26
F0.17647058823529413
sS'haleyvandyck'
p27
F0.3333333333333333
sS'thilinanamal93'
p28
F0.42857142857142855
sS'NoritaJaafar'
p29
F0.25
sS'EllieSemantic'
p30
F0.17647058823529413
sS'BITechWatch'
p31
F0.1111111111111111
sS'carolinesinders'
p32
F0.25
sS'Load4App'
p33
F0.1111111111111111
sS'UshaChavan'
p34
F0.5384615384615384
sS'DJSOUNDTECHNOL1'
p35
I0
sS'angelaschoellig'
p36
F0.25
sS'TinyChocola'
p37
F0.17647058823529413
sS'james05202191'
p38
F0.17647058823529413
sS'PyViv'
p39
F0.42857142857142855
sS'damienfrancois'
p40
F0.17647058823529413
sS'vkrakovna'
p41
F0.25
sS'ashcoool93'
p42
F0.25
sS'sowasser'
p43
F0.25
sS'eksoward'
p44
F0.17647058823529413
sS'RikaGorn'
p45
F0.3333333333333333
sS'iremcamlica'
p46
F0.42857142857142855
sS'irenetrampoline'
p47
F0.3333333333333333
sS'codemestat'
p48
F0.17647058823529413
sS'AmeliaMN'
p49
F0.25
sS'aleatha'
p50
F0.17647058823529413
sS'captainsafia'
p51
F0.25
sS'IMdeepakdalal'
p52
F0.1111111111111111
sS'evelynmuenster'
p53
F0.3333333333333333
sS'alexandrasanne'
p54
F0.25
sS'Kart_Lisa'
p55
F0.5384615384615384
sS'samithaslw'
p56
F0.3333333333333333
sS'frey_1'
p57
F0.3333333333333333
sS'DoVanNhat6'
p58
F0.25
sS'crypto_beebeta'
p59
I0
sS'maykaynvwd'
p60
F0.17647058823529413
sS'Zofiathewitch'
p61
F0.25
sS'NatashaWalk'
p62
F0.3333333333333333
sS'crypbtc'
p63
F0.25
sS'ashtonjenner_88'
p64
F0.25
sS'khurchla'
p65
F0.17647058823529413
sS'nicoleradziwill'
p66
F0.25
sS'chandana78'
p67
F0.25
sS'jiazhang'
p68
F0.25
sS'crypto_flyalpha'
p69
F0.17647058823529413
sS'jamesian'
p70
F0.25
sS'KimSted'
p71
F0.17647058823529413
sS'heshanisulo90'
p72
F0.3333333333333333
sS'PayarForever'
p73
F0.25
sS'SighSam'
p74
F0.17647058823529413
sS'Cryptoking93'
p75
F0.42857142857142855
sS'SamuelsSamsam'
p76
F0.17647058823529413
sS'mrogati'
p77
F0.3333333333333333
sS'Pro_Advisory'
p78
F0.17647058823529413
sS'imrchen'
p79
F0.1111111111111111
sS'SpaceAnubis'
p80
F0.3333333333333333
sS'JanelleCShane'
p81
F0.25
sS'JamieDJS'
p82
F0.3333333333333333
sS'EsamHigab'
p83
F0.17647058823529413
sS'bigdana'
p84
F0.25
sS'dmonett'
p85
F0.3333333333333333
sS'reworkAI'
p86
F0.3333333333333333
sS'AkilaJeeson'
p87
F0.1111111111111111
sS'tamaradull'
p88
F0.25
sS'srionline2'
p89
F0.25
sS'TensorFlow'
p90
F0.25
sS'tesherista'
p91
F0.25
sS'lindauruchurtu'
p92
F0.25
sS'XixinaXixikk'
p93
F0.25
sS'zinmalu'
p94
F0.3333333333333333
sS'MaineC'
p95
F0.3333333333333333
sS'PardisSabeti'
p96
F0.17647058823529413
sS'jasdumas'
p97
F0.17647058823529413
sS'tammyschirle'
p98
F0.25
sS'alexisylchan'
p99
F0.17647058823529413
sS'CarlieIdoine'
p100
F0.25
sS'senuri89'
p101
F0.3333333333333333
sS'mikiobraun'
p102
F0.17647058823529413
sS'TeamRokeyaJ'
p103
F0.25
sS'drarnakarick'
p104
F0.25
sS'tentejswi'
p105
F0.17647058823529413
sS'cynthiablee'
p106
F0.25
sS'ClaireNS'
p107
F0.42857142857142855
sS'kazisajib1718'
p108
F0.17647058823529413
sS'lindsleininger'
p109
F0.25
sS'janexwang'
p110
F0.3333333333333333
sS'Poulincogsci'
p111
F0.3333333333333333
sS'cetacean_needed'
p112
F0.3333333333333333
sS'trinachi'
p113
F0.17647058823529413
sS'proulx_n'
p114
F0.25
sS'vboykis'
p115
F0.3333333333333333
sS'OlaHawatmeh'
p116
F0.42857142857142855
sS'Vid_Spandana'
p117
F0.25
sS'BaminiJ'
p118
F0.25
sS'inventiongirl'
p119
F0.17647058823529413
sS'theoni_p'
p120
F0.3333333333333333
sS'meganmoneill'
p121
F0.25
sS'csdoctorsister'
p122
F0.3333333333333333
sS'stephaniehicks'
p123
F0.25
sS'vaishalivijay1'
p124
F0.25
sS'xinh_huynh'
p125
F0.25
sS'math_rachel'
p126
F0.3333333333333333
sS'Lmilley'
p127
F0.1111111111111111
sS'mattredlon'
p128
F0.17647058823529413
sS'Clair3tt'
p129
F0.25
sS'Workout4Jesus'
p130
F0.05263157894736842
sS'ezinelk'
p131
F0.3333333333333333
sS'sehosking'
p132
F0.25
sS'sharon000'
p133
F0.25
sS'ilichglz'
p134
F0.6666666666666666
sS'dstraussalbee'
p135
F0.25
sS'kbreitman'
p136
F0.25
sS'mlchan'
p137
F0.25
sS'marjowolff'
p138
F0.6666666666666666
sS'loellen_c'
p139
F0.3333333333333333
sS'rctatman'
p140
F0.3333333333333333
sS'fedhere'
p141
F0.25
sS'evilches'
p142
F0.3333333333333333
sS'deirdrelee'
p143
F0.25
sS'jakehofman'
p144
F0.25
sS'jenniferbhecht'
p145
F0.25
sS'ch_doig'
p146
F0.25
sS'elizabethmatsui'
p147
F0.17647058823529413
sS'mesmerizingkhan'
p148
F0.17647058823529413
sS'karen_ec_levy'
p149
F0.17647058823529413
sS'dsiegel'
p150
F0.25
sS'Markiting7'
p151
F0.25
sS'Prudent_Digital'
p152
F0.25
sS'adryenn'
p153
F0.25
sS'BaiduResearch'
p154
F0.25
sS'NekrasKate09'
p155
F0.17647058823529413
sS'sharonstrands'
p156
F0.25
sS'gspandana'
p157
F0.3333333333333333
sS'okdistribute'
p158
F0.17647058823529413
sS'_JessicaLundin'
p159
F0.3333333333333333
sS'pauldix'
p160
F0.25
sS'Nicole_Michel'
p161
F0.25
sS'MGalinox'
p162
F0.6666666666666666
sS'sensored'
p163
F0.1111111111111111
sS'JenWBruce'
p164
F0.17647058823529413
sS'mpellet771'
p165
F0.17647058823529413
sS'C_Leo_patra'
p166
F0.17647058823529413
sS'HarrisPay'
p167
F0.3333333333333333
sS'PritiPaul7'
p168
F0.25
sS'lijiali_vision'
p169
F0.3333333333333333
sS'HamidehIraj'
p170
F0.1111111111111111
sS'anjiperera96'
p171
F0.3333333333333333
sS'booziv'
p172
F0.3333333333333333
sS'redvmars'
p173
F0.17647058823529413
sS'jschneider'
p174
F0.17647058823529413
sS'peejaroni17'
p175
F0.25
sS'MayTaiwan'
p176
F0.17647058823529413
sS'rachel_shorey'
p177
F0.25
sS'bvenus'
p178
F0.25
sS'wavvysoul'
p179
F0.17647058823529413
sS'_erin_rachel'
p180
F0.25
sS'Lizstuartdc'
p181
F0.17647058823529413
sS'MarzyehGhassemi'
p182
F0.17647058823529413
sS'Lea_Shanley'
p183
F0.25
sS'amy_linehan_ca'
p184
F0.3333333333333333
sS'stefjacinto'
p185
F0.25
sS'brendan642'
p186
F0.25
sS'edenmedina'
p187
F0.3333333333333333
sS'lisadebruine'
p188
F0.17647058823529413
sS'LauraMath3r'
p189
F0.25
sS'NephiAxe'
p190
F0.17647058823529413
sS'Tude36'
p191
F0.25
sS'sbradshaww'
p192
F0.3333333333333333
sS'CoherenceMed'
p193
F0.17647058823529413
sS'ayodeleohh'
p194
F0.25
sS'tundraponds'
p195
F0.25
sS'catherinedevlin'
p196
F0.25
sS'AnnKEmery'
p197
F0.25
sS'siminaboca'
p198
F0.25
sS'kathrynmyronuk'
p199
F0.25
sS'clarecorthell'
p200
F0.17647058823529413
sS'oceanmindband'
p201
F0.25
sS'Freelancing22'
p202
F0.17647058823529413
sS'dpseidel'
p203
F0.25
sS'crypto879'
p204
F0.3333333333333333
sS'reina_reyes'
p205
F0.1111111111111111
sS'conikeec'
p206
F0.17647058823529413
sS'theMingYang'
p207
F0.17647058823529413
sS'UnGranDioso'
p208
F0.5384615384615384
sS'coevote'
p209
F0.17647058823529413
sS'koreaninterpre'
p210
F0.3333333333333333
sS'Jonbuckhouse'
p211
F0.3333333333333333
sS'DrJimmyStar'
p212
F0.17647058823529413
sS'erinshellman'
p213
F0.3333333333333333
sS'ameliagreenhall'
p214
F0.1875
sS'raukstar'
p215
F0.125
sS'chrisalbon'
p216
F0.1111111111111111
sS'www_Dewa17com'
p217
F0.17647058823529413
sS'cortnie_cdo'
p218
F0.25
sS'communicating'
p219
F0.3333333333333333
sS'Imsumudu'
p220
F0.25
sS'Kai_India_'
p221
F0.17647058823529413
sS'TruckeeMarcie'
p222
F0.25
sS'IrinaSedenko'
p223
F0.25
sS'WireMonkey'
p224
F0.25
sS'NotAnArtichoke'
p225
F0.17647058823529413
sS'CLcep'
p226
F0.17647058823529413
sS'annmariastat'
p227
F0.25
sS'lopezjenniferw'
p228
F0.25
sS'Solar_lass'
p229
F0.25
sS'linhnguyen1094'
p230
F0.5384615384615384
sS'ReginaNuzzo'
p231
F0.17647058823529413
sS'grapealope'
p232
F0.17647058823529413
sS'alinochkasmirn4'
p233
F0.17647058823529413
sS'jchaskell2'
p234
F0.25
sS'lightofnationne'
p235
F0.1111111111111111
sS'DrScranto'
p236
F0.25
sS'jhurwitz'
p237
F0.17647058823529413
sS'nausher'
p238
F0.17647058823529413
sS'patrickabrar'
p239
F0.1111111111111111
sS'catherinebuk'
p240
F0.3333333333333333
sS'SteffLocke'
p241
F0.17647058823529413
sS'JessicaHullman'
p242
F0.25
sS'jamie_irza'
p243
F0.17647058823529413
sS'drfeifei'
p244
F0.3333333333333333
sS'katherinebailey'
p245
F0.3333333333333333
sS'__280__'
p246
I0
sS'alisohani'
p247
F0.17647058823529413
sS'eloyan_ani'
p248
F0.3333333333333333
sS'LaithAJ_Fans'
p249
F0.25
sS'walter_mair'
p250
F0.25
sS'DwanAlwen'
p251
F0.1111111111111111
sS'GinnyGhezzo'
p252
F0.25
sS'angelaambroz'
p253
F0.17647058823529413
sS'LoveStats'
p254
F0.17647058823529413
sS'schartkoff'
p255
F0.25
sS'Kelsey_Clubb'
p256
F0.17647058823529413
sS'lalorenz6'
p257
F0.17647058823529413
sS'OmarAbou8711'
p258
F0.17647058823529413
sS'reworkpip'
p259
F0.3333333333333333
sS'RadhikaAtEmcien'
p260
F0.17647058823529413
sS'thrintelmarket'
p261
F0.1111111111111111
sS'visahousedelhi'
p262
F0.1111111111111111
sS'Vic_Bioinfo'
p263
F0.3333333333333333
sS'brockvicky'
p264
F0.25
sS'OluwaYettie'
p265
F0.17647058823529413
sS'agnieszka_th'
p266
F0.25
sS'kuzandonoz'
p267
F0.25
sS'marca_direct'
p268
F0.07692307692307693
sS'natalieasis'
p269
F0.17647058823529413
sS'AsankaDey'
p270
F0.3333333333333333
sS'SubraaPD'
p271
F0.17647058823529413
sS'syf_2013'
p272
F0.17647058823529413
sS'Gbitses'
p273
F0.25
sS'ChillerDeo1'
p274
F0.25
sS'AgileAnuja'
p275
F0.25
sS'AGICTechnology'
p276
I0
sS'biobeth'
p277
F0.17647058823529413
sS'mmh1'
p278
F0.17647058823529413
sS'umunairu'
p279
F0.25
sS'arunachalamev'
p280
F0.17647058823529413
sS'AruniNishanthi'
p281
F0.1111111111111111
sS'beena_ammanath'
p282
F0.17647058823529413
sS'smith_gk'
p283
F0.25
sS'lisachwinter'
p284
F0.25
sS'DavidHloch'
p285
F0.17647058823529413
sS'VisualEcon'
p286
F0.25
sS'margaretlmck'
p287
F0.3333333333333333
sS'victoriastodden'
p288
F0.3333333333333333
sS'nellwyn'
p289
I0
sS'Maggiemakar'
p290
F0.25
sS'marla_caraibi'
p291
F0.3333333333333333
sS'datachloe'
p292
F0.25
sS'DivulgaTVZ'
p293
F0.5384615384615384
sS'bethnoveck'
p294
F0.25
sS'kellecruz'
p295
F0.17647058823529413
sS'karenchurch'
p296
F0.3333333333333333
sS'ojahnn'
p297
F0.25
sS'siatogia'
p298
F0.17647058823529413
sS'yukselduman25'
p299
F0.25
sS'JennFleck'
p300
F0.25
sS'houssaine_amzil'
p301
I0
sS'Ada_Jeles'
p302
F0.25
sS'CreationScisso2'
p303
F0.17647058823529413
sS'Cassie_DeWitt'
p304
F0.17647058823529413
sS'mkutmon'
p305
F0.25
sS'annosax'
p306
F0.25
sS'seersco'
p307
F0.1111111111111111
sS'Tatjana_Kec'
p308
F0.42857142857142855
sS'BeEngelhardt'
p309
F0.25
sS'cryptosrilanka'
p310
F0.17647058823529413
sS'jeremyphoward'
p311
F0.25
sS'elindse1'
p312
F0.17647058823529413
sS'sctyner'
p313
F0.3333333333333333
sS'gan_ef'
p314
F0.25
sS'RealKAYRHOMA'
p315
F0.17647058823529413
sS'nmatthiasmoore'
p316
I0
sS'susanaferreras'
p317
F0.5384615384615384
sS'jrnewww'
p318
F0.25
sS'emirfarinas'
p319
F0.3333333333333333
sS'starignus'
p320
F0.17647058823529413
sS'DataJunkie'
p321
F0.3333333333333333
sS'lindamciver'
p322
F0.17647058823529413
sS'mer__edith'
p323
F0.25
sS'DrAndyPardoe'
p324
F0.25
sS'alexduke'
p325
F0.17647058823529413
sS'gdb'
p326
F0.25
sS'HuuViet2410'
p327
F0.42857142857142855
sS'PrabhaGana'
p328
F0.25
sS'j_l_kelly'
p329
F0.17647058823529413
sS'BolagSpecialist'
p330
F0.25
sS'follow_me_plz28'
p331
F0.17647058823529413
sS'jennifermarsman'
p332
F0.3333333333333333
sS'MySuratMySMC'
p333
F0.6666666666666666
sS'cthydng'
p334
F0.17647058823529413
sS'_glitterworm'
p335
F0.25
sS'GreatBlueC'
p336
F0.25
sS'thebigcormack'
p337
F0.17647058823529413
sS'elthenerd'
p338
F0.3333333333333333
sS'_kyliejane'
p339
F0.25
sS'ImRameshwor'
p340
F0.05263157894736842
sS'Kritika_Jalan'
p341
F0.17647058823529413
sS'SarahJaneHoya'
p342
F0.17647058823529413
sS'sweetsp'
p343
F0.3333333333333333
sS'elaineklee'
p344
F0.3333333333333333
sS'MediaSKINNED'
p345
F0.25
sS'kolesnikalinka1'
p346
F0.17647058823529413
sS'heathercmiller'
p347
F0.25
sS'havasi'
p348
F0.17647058823529413
sS'bradcryp'
p349
F0.42857142857142855
sS'ilse_ackerman'
p350
F0.17647058823529413
sS'wendykan'
p351
F0.3333333333333333
sS'amcyg'
p352
F0.25
sS'shellyjang'
p353
F0.17647058823529413
sS'guo_krystal'
p354
F0.3333333333333333
sS'RustyRokib'
p355
F0.25
sS'notFromShrek'
p356
F0.25
sS'furnishingstore'
p357
F0.1111111111111111
sS'DrBrittne'
p358
F0.3333333333333333
sS'afwong'
p359
F0.3333333333333333
sS'dinujuly22'
p360
F0.3333333333333333
sS'disrupster'
p361
F0.8181818181818182
sS'PartyDabba'
p362
F0.1111111111111111
sS'WomenInStat'
p363
F0.25
sS'lizzadwoskin'
p364
F0.17647058823529413
sS'MHuebnerPhD'
p365
F0.25
sS'officialCTMcom'
p366
F0.17647058823529413
sS'RaeKnowler'
p367
F0.25
sS'sorprendida'
p368
F0.6666666666666666
sS'MichelleWiest'
p369
F0.25
sS'shawonbabu'
p370
F0.17647058823529413
sS'tordable'
p371
F0.42857142857142855
sS'i2pi'
p372
F0.17647058823529413
sS'donna_ddmh'
p373
F0.25
sS'karenhsumar'
p374
F0.17647058823529413
sS'FSchueuer'
p375
F0.17647058823529413
sS'thatburquebelle'
p376
F0.17647058823529413
sS'JackieKazil'
p377
F0.25
sS'skcexport'
p378
F0.17647058823529413
sS'clinton_dews'
p379
F0.3333333333333333
sS'gamephace'
p380
F0.17647058823529413
sS'Erie'
p381
F0.3333333333333333
sS'OzBigdownunder'
p382
F0.25
sS'treasa'
p383
F0.1111111111111111
sS'yaelgarten'
p384
F0.17647058823529413
sS'sunnydeveloper'
p385
F0.17647058823529413
sS'_JAStark'
p386
F0.3333333333333333
sS'MdMohib1996'
p387
F0.42857142857142855
sS'etalbot1291'
p388
F0.17647058823529413
sS'rodrigocornejoz'
p389
F0.6666666666666666
sS't_tsvet'
p390
F0.42857142857142855
sS'nmaggikelly'
p391
F0.5384615384615384
sS'Nightitaly'
p392
F0.17647058823529413
sS'emilymbender'
p393
F0.5384615384615384
sS'abarysh'
p394
F0.17647058823529413
sS'getLaura'
p395
F0.25
sS'LillianSaysSo'
p396
F0.17647058823529413
sS'jczetta'
p397
F0.25
sS'haydemtzl'
p398
F0.42857142857142855
sS'xciteandempower'
p399
F0.42857142857142855
sS'marden928'
p400
F0.25
sS'jazman_zweni'
p401
F0.25
sS'hero93669219'
p402
F0.3333333333333333
sS'lenadroid'
p403
F0.17647058823529413
sS'eamcvey'
p404
F0.3333333333333333
sS'CryptoSpaceTM'
p405
F0.5384615384615384
sS'ExchangeAlerter'
p406
F0.17647058823529413
sS'bergautier'
p407
F0.25
sS'JScurrell'
p408
F0.25
sS'Ajitkumargiri92'
p409
F0.17647058823529413
sS'mercyangelo10'
p410
F0.3333333333333333
sS'grammarnerd'
p411
F0.17647058823529413
sS'AShendruk'
p412
F0.25
sS'sastoudt'
p413
F0.25
sS'kellieotto'
p414
F0.17647058823529413
sS'rajashreeb07'
p415
F0.25
sS'moorejh'
p416
F0.17647058823529413
sS'EllieAsksWhy'
p417
F0.1111111111111111
sS'catherineols'
p418
F0.17647058823529413
sS'sairmais'
p419
F0.17647058823529413
sS'julialintern'
p420
F0.25
sS'nancygrady'
p421
F0.25
sS'tessalau'
p422
F0.25
sS'jkv_crypto'
p423
F0.25
sS'FeminismTech'
p424
F0.25
sS'n_ashutosh'
p425
F0.42857142857142855
sS'dellsystem'
p426
F0.3333333333333333
sS'crypt_mantisbee'
p427
F0.17647058823529413
sS'kaitlinbdevine'
p428
F0.17647058823529413
sS'xenonq07'
p429
F0.17647058823529413
sS'MuhammaddNawaz'
p430
F0.1111111111111111
sS'CoinInvestBank'
p431
F0.17647058823529413
sS'hannahjean515'
p432
F0.25
sS'lc_powell'
p433
F0.25
sS'jackiecassell'
p434
F0.17647058823529413
sS'AndrewYNg'
p435
F0.25
sS'eredmil1'
p436
F0.25
sS'SamanthaSifleet'
p437
F0.25
sS'behavioralist'
p438
I0
sS'ssahebi'
p439
F0.3333333333333333
sS'sophie_sparkes'
p440
F0.3333333333333333
sS'samarwakel'
p441
F0.17647058823529413
sS'eleanorahowe'
p442
F0.25
sS'nanacalderon'
p443
F0.17647058823529413
sS'd4tagirl'
p444
F0.3333333333333333
sS'OberoiPri'
p445
F0.25
sS'vcheplygina'
p446
F0.3333333333333333
sS'sxywu'
p447
F0.17647058823529413
sS'minebocek'
p448
F0.25
sS'BVLSingler'
p449
F0.25
sS'ByerlyElizabeth'
p450
F0.3333333333333333
sS'WomenInData'
p451
F0.3333333333333333
sS'OrnellinaGreco'
p452
F0.3333333333333333
sS'LuckyFeliciaH'
p453
F0.5384615384615384
sS'David_Kudla'
p454
F0.25
sS'magda92122'
p455
F0.42857142857142855
sS'cattruxillo'
p456
F0.25
sS'rachelss'
p457
F0.25
sS'demishassabis'
p458
F0.3333333333333333
sS'extremefriday'
p459
F0.25
sS'whichblockchain'
p460
F0.25
sS'DrCh0le'
p461
F0.25
sS'Data_Visual_'
p462
F0.17647058823529413
sS'sangha_deb'
p463
F0.3333333333333333
sS'brooksbell'
p464
F0.25
sS'tabithagold'
p465
F0.25
sS'lauraalbertphd'
p466
F0.25
sS'DonJovieThaOG'
p467
F0.17647058823529413
sS'DavidDuvenaud'
p468
F0.17647058823529413
sS'maxmagnus555'
p469
F0.25
sS'zelashoe'
p470
F0.17647058823529413
sS'cecilialiao'
p471
F0.3333333333333333
sS'kwchang'
p472
F0.25
sS'AliciaOshlack'
p473
F0.3333333333333333
sS'gypsyescapade'
p474
F0.25
sS'BhatPrshant'
p475
F0.17647058823529413
sS'jackiefloyd'
p476
F0.25
sS'londonaesthetik'
p477
F0.17647058823529413
sS'oliviawalch'
p478
F0.25
sS'abhishektiwari'
p479
F0.25
sS'_jenlowe_'
p480
F0.25
sS'IsabellaGollini'
p481
F0.3333333333333333
sS'AyRenay'
p482
F0.25
sS'LynnOvermann'
p483
F0.25
sS'kennelliott'
p484
F0.25
sS'suhaib_saad'
p485
F0.25
sS'bbwfriendsdate'
p486
F0.1111111111111111
sS'RailAnalysis'
p487
F0.3333333333333333
sS'rachelbinx'
p488
F0.17647058823529413
sS'taoyeah'
p489
F0.3333333333333333
sS'marebertola'
p490
F0.17647058823529413
sS'Smerity'
p491
F0.25
sS'Sudarma_Sampath'
p492
F0.3333333333333333
sS'soumen_eclectic'
p493
F0.25
sS'tamaramunzner'
p494
F0.17647058823529413
sS'maruthven'
p495
F0.25
sS'AnneEUrai'
p496
F0.25
sS'being2shubham'
p497
F0.17647058823529413
sS'MichelleUfford'
p498
F0.3333333333333333
sS'sieben99krist'
p499
F0.17647058823529413
sS'leighadlr'
p500
I0
sS'GulfStar_Tur'
p501
F0.17647058823529413
sS'chaiejtefron'
p502
F0.3333333333333333
sS'balajiln'
p503
F0.3333333333333333
sS'DTO_Fr'
p504
F0.42857142857142855
sS'slowiika'
p505
F0.3333333333333333
sS'mridulnandy1'
p506
F0.3333333333333333
sS'cdChristinaDiaz'
p507
F0.25
sS'jovialjoy'
p508
F0.3333333333333333
sS'kerstin_bach'
p509
F0.25
sS'drjessilyn'
p510
F0.17647058823529413
sS'onindianhistory'
p511
F0.1111111111111111
sS'2plus2make5'
p512
F0.17647058823529413
sS'wgrus'
p513
F0.25
sS'ideaofhappiness'
p514
F0.25
sS'jkl2'
p515
F0.17647058823529413
sS'phuonganh1239'
p516
I0
sS'pinkrving'
p517
F0.17647058823529413
sS'smoclerk1'
p518
F0.1111111111111111
sS'JreneeRenee'
p519
F0.17647058823529413
sS'mmlee'
p520
F0.25
sS'deborahhanus'
p521
F0.3333333333333333
sS'ProcreateDesign'
p522
F0.17647058823529413
sS'WBPolice'
p523
F0.25
sS'VaynixVNX'
p524
I0
sS'kaythaney'
p525
F0.3333333333333333
sS'majsander'
p526
F0.3333333333333333
sS'clareconway'
p527
F0.42857142857142855
sS'hessiejones'
p528
F0.25
sS'taiabur01'
p529
F0.17647058823529413
sS'dayvidvictor'
p530
F0.25
sS'sandra_greiss'
p531
F0.17647058823529413
sS'EmCalGal'
p532
F0.25
sS'EmilyGorcenski'
p533
F0.25
sS'jfreirenet'
p534
F0.17647058823529413
sS'ML_NLP'
p535
F0.1111111111111111
sS'meena_uvaca'
p536
F0.42857142857142855
sS'scyspy'
p537
F0.17647058823529413
sS'danrobsondias'
p538
F0.3333333333333333
sS'beeonaposy'
p539
F0.25
sS'sagihaider'
p540
F0.17647058823529413
sS'sgrifter'
p541
F0.3333333333333333
sS'BadamPistha'
p542
F0.1111111111111111
sS'tracykteal'
p543
F0.25
sS'rapperredd'
p544
F0.17647058823529413
sS'DrJillianNey'
p545
F0.25
sS'lesmil'
p546
F0.3333333333333333
sS'dennybritz'
p547
F0.3333333333333333
sS'bouncingsheep'
p548
F0.25
sS'DebateLover'
p549
F0.17647058823529413
sS'notmisha'
p550
F0.17647058823529413
sS'lpettingill'
p551
F0.25
sS'aareiass'
p552
F0.25
sS'CatRey'
p553
F0.17647058823529413
sS'Ciri8923'
p554
F0.17647058823529413
sS'daljeetsainifan'
p555
F0.07142857142857142
sS'Jddgascon'
p556
F0.8181818181818182
sS'DrLinaBader'
p557
F0.25
sS'TutorialBartop'
p558
I0
sS'Globalinspectio'
p559
F0.1111111111111111
sS'PlasticStar_Mag'
p560
F0.25
sS'jenniromanek'
p561
F0.25
sS'butchimaubmt'
p562
F0.25
sS'WeekendArchaeo'
p563
F0.6666666666666666
sS'bengoertzel'
p564
F0.25
sS'Crownkart'
p565
F0.1111111111111111
sS'MayaVersal'
p566
F0.17647058823529413
sS'jo_hardin47'
p567
F0.25
sS'shivanigrao'
p568
F0.25
sS'Rewak_'
p569
F0.3333333333333333
sS'OMGannaks'
p570
F0.25
sS'RosalindPicard'
p571
F0.17647058823529413
sS'dianam'
p572
F0.3333333333333333
sS'skilled_odisha'
p573
F0.6666666666666666
sS'michellejw'
p574
F0.17647058823529413
sS'esimpler'
p575
F0.25
sS'StuartJehan'
p576
F0.17647058823529413
sS'SusannBeier'
p577
F0.3333333333333333
sS'jamie_kays'
p578
I0
sS'MCanalytics'
p579
F0.25
sS'rileymsmith19'
p580
F0.25
sS'momiperalta'
p581
F0.42857142857142855
sS'librarylettie'
p582
F0.25
sS'suchisaria'
p583
F0.3333333333333333
sS'kerfors'
p584
F0.25
sS'mashritaonline'
p585
F0.1111111111111111
sS'catmule'
p586
F0.25
sS'abhisheksapabap'
p587
F0.3333333333333333
sS'sarahsproehnle'
p588
F0.5384615384615384
sS'NguyenM81031025'
p589
F0.5384615384615384
sS'SQLCindy'
p590
F0.17647058823529413
sS'shantihomeindia'
p591
F0.17647058823529413
sS'atmccann'
p592
F0.3333333333333333
sS'aileengemma'
p593
F0.3333333333333333
sS'JohnX011010'
p594
F0.1111111111111111
sS'crypto_anttheta'
p595
F0.17647058823529413
sS'gdequeiroz'
p596
F0.3333333333333333
sS'Maccow01'
p597
F0.25
sS'janith075'
p598
F0.42857142857142855
sS'data_nerd'
p599
F0.17647058823529413
sS'inma_martinez'
p600
F0.25
sS'adampaulcoates'
p601
F0.42857142857142855
sS'datapriestess'
p602
F0.3333333333333333
sS'freelatestsms'
p603
F0.05263157894736842
sS'AskHelenBrown'
p604
F0.25
sS'zararah'
p605
F0.17647058823529413
sS'AmandaHeiderman'
p606
F0.3333333333333333
sS'annalisabarla'
p607
F0.25
sS'Vwalkshoe'
p608
F0.17647058823529413
sS'Dr_CMingarelli'
p609
F0.25
sS'emilyinamillion'
p610
F0.25
sS'_lisaq'
p611
F0.25
sS'louiseadennis'
p612
F0.25
sS'd_jyldyz'
p613
F0.3333333333333333
sS'bluevincent'
p614
F0.25
sS'xuNsh1neV1'
p615
F0.3333333333333333
sS'amyskerry'
p616
F0.3333333333333333
sS'MicheleJKiss'
p617
F0.3333333333333333
sS'genevievemp'
p618
F0.17647058823529413
sS'lakhotia_anita'
p619
F0.3333333333333333
sS'annakrystalli'
p620
F0.42857142857142855
sS'InvensMobile'
p621
F0.17647058823529413
sS'clairemelamed'
p622
F0.3333333333333333
sS'datapointier'
p623
F0.3333333333333333
sS'riicolimited'
p624
F0.5384615384615384
sS'DennisKoutoudis'
p625
F0.17647058823529413
sS'amssvensson'
p626
F0.3333333333333333
sS'lindaliukas'
p627
F0.25
sS'elenatej'
p628
F0.25
sS'michelleminkoff'
p629
F0.17647058823529413
sS'SoniDharamander'
p630
F0.3333333333333333
sS'LauraHKahn'
p631
F0.3333333333333333
sS'ARoyalHistorian'
p632
F0.42857142857142855
sS'ShojibMohoshin'
p633
F0.17647058823529413
sS'huynhhuutho520'
p634
F0.3333333333333333
sS'i_pascu'
p635
F0.3333333333333333
sS'TyronDixon'
p636
F0.17647058823529413
sS'RajivW1984'
p637
F0.25
sS'fossilosophy'
p638
F0.3333333333333333
sS'leo8xls'
p639
F0.3333333333333333
sS'morganthegray'
p640
F0.3333333333333333
sS'Yssybyl'
p641
F0.3333333333333333
sS'NancyAjram'
p642
I0
sS'StaniMeredith'
p643
F0.25
sS'RichardPyros'
p644
F0.17647058823529413
sS'embrein'
p645
F0.25
sS'shanfu'
p646
F0.25
sS'vem_de_vlog'
p647
F0.17647058823529413
sS'bricon5'
p648
F0.17647058823529413
sS'H_A_P_A'
p649
F0.25
sS'lmthang'
p650
F0.25
sS'MiaD'
p651
F0.17647058823529413
sS'Alexanderemr__'
p652
F0.5384615384615384
sS'hspter'
p653
F0.25
sS'adversariel'
p654
F0.25
sS'JaclynWeiser'
p655
F0.25
sS'emilybartha'
p656
F0.25
sS'DaphnaHarel'
p657
F0.25
sS'GaskyK'
p658
F0.42857142857142855
sS'jhamrick'
p659
F0.3333333333333333
sS'seogoogleall'
p660
F0.3333333333333333
sS'KathyApplebaum'
p661
F0.25
sS'ledell'
p662
F0.25
sS'xllora'
p663
F0.25
sS'dlmgaming'
p664
F0.25
sS'ancuty69'
p665
F0.42857142857142855
sS'lishali88'
p666
F0.25
sS'nathali_leone'
p667
F0.25
sS'Groovy_Bois'
p668
F0.25
sS'lonestarsally'
p669
F0.25
sS'katycns'
p670
F0.17647058823529413
sS'neal_lathia'
p671
F0.25
sS'pchandarr'
p672
F0.25
sS'rajmanoj11'
p673
F0.17647058823529413
sS'btc_amazing_com'
p674
I0
sS'hagiang8x'
p675
F0.42857142857142855
sS'thejunglejane'
p676
F0.25
sS'michelenull'
p677
F0.25
sS'DrCatNelson'
p678
F0.17647058823529413
sS'forcetalks'
p679
F0.42857142857142855
sS'OlgaTsubiks'
p680
F0.25
sS'ChiriGo_'
p681
F0.5384615384615384
sS'kahnchat'
p682
I0
sS'JeanneHolm'
p683
F0.17647058823529413
sS'sherrirose'
p684
F0.25
sS'Nhungkia'
p685
F0.25
sS'TechPolicy'
p686
F0.25
sS'ChrisMalinow'
p687
F0.25
sS'JennyToan1983'
p688
F0.25
sS'JennyBryan'
p689
F0.25
sS'mdreid'
p690
F0.25
sS'vivian__zhang'
p691
F0.1111111111111111
sS'nitipaudyal'
p692
F0.17647058823529413
sS'claudiawilliams'
p693
F0.25
sS'Bill__Hoang'
p694
F0.25
sS'kdphd'
p695
F0.3333333333333333
sS'multiartazure'
p696
F0.15384615384615385
sS'KryanIgor'
p697
F0.17647058823529413
sS'AliMakhzani'
p698
F0.17647058823529413
sS'ilknurkabul'
p699
F0.25
sS'ChrisMedia4'
p700
F0.25
sS'ellen_koenig'
p701
F0.25
sS'fridapolli'
p702
I0
sS'shopGHTN'
p703
F0.1111111111111111
sS'RichardSocher'
p704
F0.25
sS'LittleMissData'
p705
F0.25
sS'ladamic'
p706
F0.25
sS'Lydia_S_Chen'
p707
F0.17647058823529413
sS'rubyrubyruby9'
p708
F0.17647058823529413
sS'fcarson'
p709
F0.3333333333333333
sS'Notawful'
p710
F0.25
sS'mthielbar'
p711
F0.25
sS'StudentOfEarth'
p712
F0.17647058823529413
sS'abmakulec'
p713
F0.3333333333333333
sS'nikitaljohnson'
p714
F0.17647058823529413
sS'juliasilge'
p715
F0.25
sS'Themadbugkoustu'
p716
F0.3333333333333333
sS'FutureFlicks_'
p717
F0.42857142857142855
sS'NestadeV1337'
p718
F0.17647058823529413
sS'AngelaZutavern'
p719
F0.25
sS'klubkodiak'
p720
F0.17647058823529413
sS'priyaponnapalli'
p721
F0.25
sS'johnmyleswhite'
p722
F0.25
sS'loooorenanicole'
p723
F0.25
sS'FarfalleArt_IN'
p724
F0.17647058823529413
sS'RubyChilds'
p725
F0.3333333333333333
sS'emsweene57'
p726
F0.25
sS'BKaan05'
p727
F0.42857142857142855
sS'notielvigilante'
p728
F0.5384615384615384
sS'KrishBhatt2000'
p729
F0.17647058823529413
sS'gillianmchin'
p730
F0.25
sS'n_kahmed'
p731
F0.25
sS'Begum__Ozdemirr'
p732
I0
sS'figure8labs'
p733
F0.25
sS'LeighCressman'
p734
F0.25
sS'nsaphra'
p735
F0.3333333333333333
sS'natschluter'
p736
F0.25
sS'CathrynCarson'
p737
F0.25
sS'miriamfriedel'
p738
F0.25
sS'KristinHenry'
p739
F0.3333333333333333
sS'CESCLimited'
p740
F0.1111111111111111
sS'gloriatlau'
p741
F0.25
sS'RNA_biologist'
p742
F0.25
sS'HostBooksIndia'
p743
F0.25
sS'enkayfreda'
p744
F0.17647058823529413
sS'ApoorveDubey'
p745
F0.17647058823529413
sS'priyasad95'
p746
F0.17647058823529413
sS'TungTun63652781'
p747
F0.3333333333333333
sS'CamEtLeon'
p748
F0.42857142857142855
sS'DataIsFuture'
p749
F0.25
sS'Iskanderal'
p750
F0.25
sS's_bedir'
p751
F0.25
sS'monicachristlad'
p752
F0.25
sS'NguyenV12853850'
p753
F0.17647058823529413
sS'responsibledesi'
p754
F0.1111111111111111
sS'charrtay'
p755
F0.25
sS'mdabdulbari1993'
p756
F0.6666666666666666
sS'idhasitha'
p757
F0.3333333333333333
sS'debbiebere'
p758
F0.25
sS'DataToViz'
p759
F0.25
sS'GunamHospital'
p760
F0.17647058823529413
sS'sunandakp'
p761
F0.17647058823529413
sS'groundhog0202'
p762
F0.17647058823529413
sS'chothechosenone'
p763
F0.25
sS'CandiHalbert'
p764
F0.17647058823529413
sS'eminomura'
p765
F0.15384615384615385
sS'babu3608'
p766
F0.17647058823529413
sS'hirafdo'
p767
F0.17647058823529413
sS'samim'
p768
F0.25
sS'Greendrv'
p769
F0.25
sS'diana_nario'
p770
F0.25
sS'himidu_'
p771
F0.17647058823529413
sS'lnhaynes'
p772
F0.25
sS'amj_alves'
p773
F0.25
sS'nancykoppdw'
p774
F0.25
sS'LadyAshBorg'
p775
F0.17647058823529413
sS'Shugars'
p776
F0.42857142857142855
sS'SherlockpHolmes'
p777
F0.25
sS'lorynyc'
p778
F0.25
sS'DearPriya'
p779
F0.3333333333333333
sS'aliawan9999'
p780
F0.1111111111111111
sS'Miles_Brundage'
p781
F0.25
sS'mlsbd100'
p782
F0.17647058823529413
sS'trimboy20017'
p783
F0.25
sS'RKkaspersky'
p784
F0.05263157894736842
sS'RalitoDigital'
p785
F0.17647058823529413
sS'thyngkm'
p786
F0.25
sS'nyghtowl'
p787
F0.25
sS'chadjamian'
p788
F0.17647058823529413
sS'antheaws'
p789
F0.25
sS'DheerajSanghi'
p790
F0.17647058823529413
sS'RVAwonk'
p791
F0.17647058823529413
sS'lme2407'
p792
F0.17647058823529413
sS'yasmind'
p793
F0.25
sS'EvilLucifera'
p794
F0.2
sS'MultoGhost'
p795
F0.42857142857142855
sS'nsdelpitiya'
p796
I0
sS'zanstrong'
p797
F0.17647058823529413
sS'prasad19841020'
p798
F0.25
sS'BevBrown'
p799
F0.3333333333333333
sS'digitalFlaneuse'
p800
F0.25
sS'ErinMichelson'
p801
F0.25
sS'itscarolzee'
p802
F0.25
sS'grandtechvision'
p803
F0.1111111111111111
sS'Avinashk_7'
p804
F0.25
sS'LisaVaughnFox26'
p805
F0.25
sS'AyleeNielsen'
p806
F0.17647058823529413
sS'nimitjain11'
p807
F0.25
sS'monkqy'
p808
F0.17647058823529413
sS'lalitkapoor'
p809
F0.25
sS'UbongLydia'
p810
F0.17647058823529413
sS'PeatuceHq'
p811
I0
sS'thilakshan0001'
p812
F0.25
sS'bahiaZ'
p813
F0.3333333333333333
sS'bigdata'
p814
F0.25
sS'wedgate'
p815
I0
sS'halawiBahia'
p816
F0.25
sS'CEHandley'
p817
F0.25
sS'jeniferjones'
p818
F0.42857142857142855
sS'Iam_MMHirani'
p819
F0.25
sS'SolutionsVowel'
p820
F0.05263157894736842
sS'RP_SanjivGoenka'
p821
F0.1111111111111111
sS'NataliaKoles99'
p822
F0.1111111111111111
sS'alison_cossette'
p823
F0.17647058823529413
sS'nbrodnax'
p824
F0.17647058823529413
sS'gappy3000'
p825
F0.25
sS'ttangAWS'
p826
F0.17647058823529413
sS'morgantaschuk'
p827
F0.25
sS'suzymoat'
p828
F0.3333333333333333
sS'ogrisel'
p829
F0.3333333333333333
sS'crypto_beetle'
p830
F0.17647058823529413
sS'jsteeleeditor'
p831
F0.25
sS'timwee'
p832
F0.25
sS'Classlicity'
p833
F0.17647058823529413
sS'jessicammoss'
p834
F0.3333333333333333
sS'ds_patricio'
p835
F0.25
sS'kralljr'
p836
F0.25
sS'mobycy'
p837
F0.17647058823529413
sS'RealCashIn'
p838
F0.1111111111111111
sS'KowalVA'
p839
F0.42857142857142855
sS'jessiedza'
p840
F0.17647058823529413
sS'lindaterlouw'
p841
F0.25
sS'WillingCarol'
p842
F0.3333333333333333
sS'rajatmonga'
p843
F0.42857142857142855
sS'MsDataDetective'
p844
F0.25
sS'EmilyLPatterson'
p845
F0.25
sS'EstherVasiete'
p846
F0.3333333333333333
sS'thinkmariya'
p847
F0.25
sS'Tjido'
p848
F0.3333333333333333
sS'Spiraladies'
p849
F0.1111111111111111
sS'tatsianams'
p850
F0.17647058823529413
sS'yusan_lin'
p851
F0.17647058823529413
sS'kjam'
p852
F0.17647058823529413
sS'rkthukral'
p853
I0
sS'evergreendata'
p854
F0.17647058823529413
sS'jenbelissent'
p855
F0.25
sS'EvaMuStu'
p856
F0.25
sS'notivigilante'
p857
F0.3333333333333333
sS'holdenkarau'
p858
F0.17647058823529413
sS'TahsinAhmed69'
p859
F0.3333333333333333
sS'amygershkoff'
p860
F0.25
sS'lisa_6789'
p861
F0.3333333333333333
sS'decodyng'
p862
F0.25
sS'jmfabe'
p863
F0.17647058823529413
sS'chamaraprasan16'
p864
F0.3333333333333333
sS'ProfJenNeville'
p865
F0.25
sS'KmarzockShewolf'
p866
F0.17647058823529413
sS'CesleeDineen'
p867
F0.17647058823529413
sS'emmavaast'
p868
F0.25
sS'imightbemary'
p869
F0.25
sS'JustinL32562292'
p870
F0.17647058823529413
sS'nasrinmmm'
p871
F0.25
sS'JenniSyed'
p872
F0.25
sS'Crypbull'
p873
F0.42857142857142855
sS'ahfeel'
p874
F0.17647058823529413
sS'tdoyon'
p875
F0.25
sS'lenikrsova'
p876
F0.5384615384615384
sS'pga_cine'
p877
F0.6666666666666666
sS'malonfe'
p878
F0.42857142857142855
sS'AnnieGalati'
p879
F0.3333333333333333
sS'zhangyaoy'
p880
F0.42857142857142855
sS'dgasanka'
p881
F0.25
sS'achsoo'
p882
F0.17647058823529413
sS'freewebmentor'
p883
F0.17647058823529413
sS'jutrasmel'
p884
F0.25
sS'joycgarnett'
p885
F0.25
sS'steph_doctor'
p886
F0.25
sS'wolffpvck'
p887
F0.17647058823529413
sS'dbdiaz99'
p888
F0.5384615384615384
sS'birdsarah'
p889
F0.3333333333333333
sS'cryptoolk'
p890
F0.3333333333333333
sS'CamillaLongden'
p891
F0.3333333333333333
sS'skahad39794940'
p892
I0
sS'e_delpech'
p893
F0.5384615384615384
sS'Claradactyl'
p894
F0.25
sS'allisons'
p895
F0.25
sS'sere_signorelli'
p896
F0.17647058823529413
sS'MaliciaRogue'
p897
F0.5384615384615384
sS'barrosm_blog'
p898
F0.17647058823529413
sS'jent103'
p899
F0.25
sS'EdwardTufte'
p900
F0.25
sS'sudhakarkodati'
p901
F0.25
sS'ProQuesAsker'
p902
F0.25
sS'lusantala'
p903
F0.42857142857142855
sS'Bahareh360'
p904
F0.25
sS'esourceit'
p905
F0.1111111111111111
sS'Tretyakova933'
p906
F0.17647058823529413
sS'SehansaD'
p907
I0
sS'DanielleAlberti'
p908
F0.25
sS'sameerapoduri'
p909
F0.17647058823529413
sS'BitplaceTo'
p910
F0.17647058823529413
sS'AfanasjevaOlga'
p911
F0.5384615384615384
sS'_MondoBizarro_'
p912
F0.3333333333333333
sS'gcosma1'
p913
F0.25
sS'silil3'
p914
F0.42857142857142855
sS'jessicagarson'
p915
F0.17647058823529413
sS'kathytpham'
p916
I0
sS'ch402'
p917
F0.25
sS'janithkt'
p918
F0.25
sS'ElaineF'
p919
F0.3333333333333333
sS'HyperRedX'
p920
F0.25
sS'm_rgoK'
p921
F0.17647058823529413
sS'Katsivan3'
p922
F0.3333333333333333
sS'SolMantra'
p923
F0.1111111111111111
sS'vdignum'
p924
F0.17647058823529413
sS'lesleylathrop'
p925
F0.25
sS'SeismoSue'
p926
F0.17647058823529413
sS'GamingFrontNet'
p927
F0.17647058823529413
sS'dataginjaninja'
p928
F0.25
sS'marwansarhan216'
p929
F0.17647058823529413
sS'testobsessed'
p930
F0.25
sS'rajuahmed330'
p931
F0.5384615384615384
sS'v_maini'
p932
F0.3333333333333333
sS'nilupulie_k'
p933
F0.3333333333333333
sS'arman_kara'
p934
F0.42857142857142855
sS'KibetBenard_'
p935
F0.3333333333333333
sS'AlexKeyman_D'
p936
F0.17647058823529413
sS'NicoleADonnelly'
p937
F0.17647058823529413
sS'brianavecchione'
p938
F0.42857142857142855
sS'jessicayluo'
p939
F0.25
sS'emshort'
p940
F0.25
sS'AnneMarie2006'
p941
F0.17647058823529413
sS'christinachirps'
p942
F0.17647058823529413
sS'cstarlyv'
p943
F0.17647058823529413
sS'LucyStats'
p944
F0.3333333333333333
sS'BayesForDays'
p945
F0.17647058823529413
sS'sheilaisbell'
p946
F0.25
sS'kristenaburton'
p947
F0.25
sS'seriousssam'
p948
F0.25
sS'yuvadeepkumar'
p949
F0.25
sS'noUpside'
p950
F0.17647058823529413
sS'ChrisDiehl'
p951
F0.25
sS'CaroleJesse'
p952
F0.17647058823529413
sS'jr_razaa'
p953
F0.2
sS'fox90_'
p954
F0.3
sS'peteskomoroch'
p955
F0.25
sS'parisa_l'
p956
F0.17647058823529413
sS'cazencott'
p957
F0.25
sS'kimknilsson'
p958
F0.25
sS'Shashicrypto1'
p959
F0.3333333333333333
sS'meredithter'
p960
F0.17647058823529413
sS'handee'
p961
F0.3333333333333333
sS'mariasumner29'
p962
F0.25
sS'moor1204'
p963
F0.17647058823529413
sS'sonnguyen1810'
p964
F0.3333333333333333
sS'nealrichter'
p965
F0.25
sS'BridesLounge'
p966
F0.17647058823529413
sS'KayFButterfield'
p967
F0.3333333333333333
sS'evelgab'
p968
F0.3333333333333333
sS'HomesAtMetacoda'
p969
F0.25
sS'DianeBELDAME'
p970
F0.3333333333333333
sS'DigiChime'
p971
F0.17647058823529413
sS'bhathiyaprabhat'
p972
F0.25
sS'SashaLaundy'
p973
F0.25
sS'laura_tastic'
p974
F0.25
sS'kierisi'
p975
F0.25
sS'SasaSivcev'
p976
F0.17647058823529413
sS'justcleanitGTA'
p977
F0.17647058823529413
sS'MirelaGTulbure'
p978
F0.5384615384615384
sS'semanticvoid'
p979
F0.17647058823529413
sS'marianattestad'
p980
F0.3333333333333333
sS'eyspahn'
p981
F0.17647058823529413
sS'AlexandraaPodop'
p982
F0.17647058823529413
sS'JayCeeBeer'
p983
F0.25
sS'fabianenardon'
p984
F0.17647058823529413
sS'HarleyKwyn'
p985
F0.25
sS'STDANIELS54'
p986
F0.17647058823529413
sS'tariqul99623297'
p987
F0.25
sS'slimbumzie'
p988
F0.17647058823529413
sS'GermaineReyes'
p989
F0.3333333333333333
sS'MHDKHAN13'
p990
F0.3333333333333333
sS'pattithepotato'
p991
F0.17647058823529413
sS'isanuage'
p992
F0.3333333333333333
sS'UglyResearch'
p993
F0.17647058823529413
sS'EimanKanjo'
p994
F0.25
sS'sathyainfo'
p995
F0.17647058823529413
sS'ahs_academy'
p996
I0
sS'BernardMarr'
p997
F0.17647058823529413
sS'kajepo'
p998
F0.3333333333333333
sS'StephLKim'
p999
F0.25
sS'annakoop'
p1000
F0.17647058823529413
s.