(dp0
S'ShahziaHoltom'
p1
F0.02
sS'Rivas1Alex'
p2
F0.02
sS'deborahdahl'
p3
F0.06
sS'sujamthe'
p4
F0.0
sS'johnsonll'
p5
F0.0
sS'hmson'
p6
F0.0
sS'TheAnnaGat'
p7
F0.0
sS'peterph51641121'
p8
F0.0
sS'aheineike'
p9
F0.0
sS'Samsterrrs'
p10
F0.0
sS'stephaniejyee'
p11
F0.0
sS'DuniyaSamachar'
p12
F0.0
sS'VedParkash71'
p13
F0.06
sS'rptrpn'
p14
F0.0
sS'MarianneMader'
p15
F0.04
sS'katyhuff'
p16
F0.0
sS'HiFiCinema'
p17
F0.0
sS'mariagrineva'
p18
F0.04
sS'petitegeek'
p19
F0.0
sS'thanhdat031'
p20
F0.0
sS'dalbersszafir'
p21
F0.0
sS'Bbl_Astrophyscs'
p22
F0.0
sS'KarinaSchewtsc'
p23
F0.0
sS'zacharylipton'
p24
F0.04
sS'TraderCobb'
p25
F0.0
sS'YesCheek'
p26
F0.0
sS'haleyvandyck'
p27
F0.0
sS'thilinanamal93'
p28
F0.0
sS'NoritaJaafar'
p29
F0.04
sS'EllieSemantic'
p30
F0.0
sS'BITechWatch'
p31
F0.0
sS'carolinesinders'
p32
F0.0
sS'Load4App'
p33
F0.02
sS'UshaChavan'
p34
F0.0
sS'DJSOUNDTECHNOL1'
p35
F0.04
sS'angelaschoellig'
p36
F0.02
sS'TinyChocola'
p37
F0.0
sS'james05202191'
p38
F0.0
sS'PyViv'
p39
F0.06
sS'damienfrancois'
p40
F0.0
sS'vkrakovna'
p41
F0.0
sS'ashcoool93'
p42
F0.0
sS'sowasser'
p43
F0.04
sS'eksoward'
p44
F0.02
sS'RikaGorn'
p45
F0.04
sS'iremcamlica'
p46
F0.0
sS'irenetrampoline'
p47
F0.0
sS'codemestat'
p48
F0.0
sS'AmeliaMN'
p49
F0.0
sS'aleatha'
p50
F0.02
sS'captainsafia'
p51
F0.02
sS'IMdeepakdalal'
p52
F0.0
sS'evelynmuenster'
p53
F0.0
sS'alexandrasanne'
p54
F0.0
sS'Kart_Lisa'
p55
F0.0
sS'samithaslw'
p56
F0.0
sS'frey_1'
p57
F0.0
sS'DoVanNhat6'
p58
F0.0
sS'crypto_beebeta'
p59
F0.0
sS'maykaynvwd'
p60
F0.0
sS'Zofiathewitch'
p61
F0.02
sS'NatashaWalk'
p62
F0.08
sS'crypbtc'
p63
F0.0
sS'ashtonjenner_88'
p64
F0.0
sS'khurchla'
p65
F0.0
sS'nicoleradziwill'
p66
F0.04
sS'chandana78'
p67
F0.0
sS'jiazhang'
p68
F0.02
sS'crypto_flyalpha'
p69
F0.0
sS'jamesian'
p70
F0.0
sS'KimSted'
p71
F0.0
sS'heshanisulo90'
p72
F0.0
sS'PayarForever'
p73
F0.0
sS'SighSam'
p74
F0.02
sS'Cryptoking93'
p75
F0.0
sS'SamuelsSamsam'
p76
F0.0
sS'mrogati'
p77
F0.0
sS'Pro_Advisory'
p78
F0.0
sS'imrchen'
p79
F0.0
sS'SpaceAnubis'
p80
F0.0
sS'JanelleCShane'
p81
F0.02
sS'JamieDJS'
p82
F0.0
sS'EsamHigab'
p83
F0.0
sS'bigdana'
p84
F0.02
sS'dmonett'
p85
F0.02
sS'reworkAI'
p86
F0.02
sS'AkilaJeeson'
p87
F0.0
sS'tamaradull'
p88
F0.0
sS'srionline2'
p89
F0.0
sS'TensorFlow'
p90
F0.0
sS'tesherista'
p91
F0.0
sS'lindauruchurtu'
p92
F0.0
sS'XixinaXixikk'
p93
F0.0
sS'zinmalu'
p94
F0.0
sS'MaineC'
p95
F0.04
sS'PardisSabeti'
p96
F0.04
sS'jasdumas'
p97
F0.0
sS'tammyschirle'
p98
F0.0
sS'alexisylchan'
p99
F0.02
sS'CarlieIdoine'
p100
F0.02
sS'senuri89'
p101
F0.0
sS'mikiobraun'
p102
F0.06
sS'TeamRokeyaJ'
p103
F0.1
sS'drarnakarick'
p104
F0.02
sS'tentejswi'
p105
F0.0
sS'cynthiablee'
p106
F0.02
sS'ClaireNS'
p107
F0.0
sS'kazisajib1718'
p108
F0.0
sS'lindsleininger'
p109
F0.08
sS'janexwang'
p110
F0.0
sS'Poulincogsci'
p111
F0.02
sS'cetacean_needed'
p112
F0.02
sS'trinachi'
p113
F0.0
sS'proulx_n'
p114
F0.32
sS'vboykis'
p115
F0.04
sS'OlaHawatmeh'
p116
F0.02
sS'Vid_Spandana'
p117
F0.0
sS'BaminiJ'
p118
F0.0
sS'inventiongirl'
p119
F0.0
sS'theoni_p'
p120
F0.04
sS'meganmoneill'
p121
F0.06
sS'csdoctorsister'
p122
F0.28
sS'stephaniehicks'
p123
F0.04
sS'vaishalivijay1'
p124
F0.0
sS'xinh_huynh'
p125
F0.0
sS'math_rachel'
p126
F0.02
sS'Lmilley'
p127
F0.0
sS'mattredlon'
p128
F0.0
sS'Clair3tt'
p129
F0.06
sS'Workout4Jesus'
p130
F0.0
sS'ezinelk'
p131
F0.0
sS'sehosking'
p132
F0.1590909090909091
sS'sharon000'
p133
F0.04
sS'ilichglz'
p134
F0.04
sS'dstraussalbee'
p135
F0.0
sS'kbreitman'
p136
F0.02
sS'mlchan'
p137
F0.02
sS'marjowolff'
p138
F0.0
sS'loellen_c'
p139
F0.0
sS'rctatman'
p140
F0.02
sS'fedhere'
p141
F0.04
sS'evilches'
p142
F0.0
sS'deirdrelee'
p143
F0.12
sS'jakehofman'
p144
F0.0
sS'jenniferbhecht'
p145
F0.04
sS'ch_doig'
p146
F0.08
sS'elizabethmatsui'
p147
F0.02
sS'mesmerizingkhan'
p148
F0.0
sS'karen_ec_levy'
p149
F0.08
sS'dsiegel'
p150
F0.02
sS'Markiting7'
p151
F0.0
sS'Prudent_Digital'
p152
F0.0
sS'adryenn'
p153
F0.02
sS'BaiduResearch'
p154
F0.0
sS'NekrasKate09'
p155
F0.0
sS'sharonstrands'
p156
F0.0
sS'gspandana'
p157
F0.0
sS'okdistribute'
p158
F0.0
sS'_JessicaLundin'
p159
F0.0
sS'pauldix'
p160
F0.02
sS'Nicole_Michel'
p161
F0.08
sS'MGalinox'
p162
F0.0
sS'sensored'
p163
F0.0
sS'JenWBruce'
p164
F0.0
sS'mpellet771'
p165
F0.02
sS'C_Leo_patra'
p166
F0.02
sS'HarrisPay'
p167
F0.06
sS'PritiPaul7'
p168
F0.0
sS'lijiali_vision'
p169
F0.0
sS'HamidehIraj'
p170
F0.02
sS'anjiperera96'
p171
F0.0
sS'booziv'
p172
F0.0
sS'redvmars'
p173
F0.02
sS'jschneider'
p174
F0.0
sS'peejaroni17'
p175
F0.0
sS'MayTaiwan'
p176
F0.0
sS'rachel_shorey'
p177
F0.0
sS'bvenus'
p178
F0.0
sS'wavvysoul'
p179
F0.0
sS'_erin_rachel'
p180
F0.02
sS'Lizstuartdc'
p181
F0.02
sS'MarzyehGhassemi'
p182
F0.0
sS'Lea_Shanley'
p183
F0.02
sS'amy_linehan_ca'
p184
F0.0
sS'stefjacinto'
p185
F0.0
sS'brendan642'
p186
F0.0
sS'edenmedina'
p187
F0.0
sS'lisadebruine'
p188
F0.02
sS'LauraMath3r'
p189
F0.0
sS'NephiAxe'
p190
F0.1
sS'Tude36'
p191
F0.02
sS'sbradshaww'
p192
F0.0
sS'CoherenceMed'
p193
F0.02
sS'ayodeleohh'
p194
F0.02
sS'tundraponds'
p195
F0.02
sS'catherinedevlin'
p196
F0.0
sS'AnnKEmery'
p197
F0.06
sS'siminaboca'
p198
F0.02
sS'kathrynmyronuk'
p199
F0.0
sS'clarecorthell'
p200
F0.0
sS'oceanmindband'
p201
F0.0
sS'Freelancing22'
p202
F0.0
sS'dpseidel'
p203
F0.04
sS'crypto879'
p204
F0.0
sS'reina_reyes'
p205
F0.04
sS'conikeec'
p206
F0.02
sS'theMingYang'
p207
F0.02857142857142857
sS'UnGranDioso'
p208
F0.0
sS'coevote'
p209
F0.0
sS'koreaninterpre'
p210
F0.0
sS'Jonbuckhouse'
p211
F0.0
sS'DrJimmyStar'
p212
F0.0
sS'erinshellman'
p213
F0.0
sS'ameliagreenhall'
p214
F0.0
sS'raukstar'
p215
F0.0
sS'chrisalbon'
p216
F0.02
sS'www_Dewa17com'
p217
F0.0
sS'cortnie_cdo'
p218
F0.04
sS'communicating'
p219
F0.0
sS'Imsumudu'
p220
F0.0
sS'Kai_India_'
p221
F0.0
sS'TruckeeMarcie'
p222
F0.0
sS'IrinaSedenko'
p223
F0.06
sS'WireMonkey'
p224
F0.04
sS'NotAnArtichoke'
p225
F0.0
sS'CLcep'
p226
F0.0
sS'annmariastat'
p227
F0.02
sS'lopezjenniferw'
p228
F0.0
sS'Solar_lass'
p229
F0.0
sS'linhnguyen1094'
p230
F0.0
sS'ReginaNuzzo'
p231
F0.0
sS'grapealope'
p232
F0.0
sS'alinochkasmirn4'
p233
F0.0
sS'jchaskell2'
p234
F0.0
sS'lightofnationne'
p235
F0.08
sS'DrScranto'
p236
F0.0
sS'jhurwitz'
p237
F0.0
sS'nausher'
p238
F0.0
sS'patrickabrar'
p239
F0.0
sS'catherinebuk'
p240
F0.0
sS'SteffLocke'
p241
F0.1
sS'JessicaHullman'
p242
F0.0
sS'jamie_irza'
p243
F0.022727272727272728
sS'drfeifei'
p244
F0.0
sS'katherinebailey'
p245
F0.0
sS'__280__'
p246
F0.0
sS'alisohani'
p247
F0.0
sS'eloyan_ani'
p248
F0.0
sS'LaithAJ_Fans'
p249
F0.0
sS'walter_mair'
p250
F0.02
sS'DwanAlwen'
p251
F0.0
sS'GinnyGhezzo'
p252
F0.04
sS'angelaambroz'
p253
F0.0
sS'LoveStats'
p254
F0.0
sS'schartkoff'
p255
F0.0
sS'Kelsey_Clubb'
p256
F0.0
sS'lalorenz6'
p257
F0.02
sS'OmarAbou8711'
p258
F0.0
sS'reworkpip'
p259
F0.0
sS'RadhikaAtEmcien'
p260
F0.0
sS'thrintelmarket'
p261
F0.0
sS'visahousedelhi'
p262
F0.0
sS'Vic_Bioinfo'
p263
F0.0
sS'brockvicky'
p264
F0.02
sS'OluwaYettie'
p265
F0.0
sS'agnieszka_th'
p266
F0.0
sS'kuzandonoz'
p267
F0.0
sS'marca_direct'
p268
F0.0
sS'natalieasis'
p269
F0.0
sS'AsankaDey'
p270
F0.0
sS'SubraaPD'
p271
F0.0
sS'syf_2013'
p272
F0.0
sS'Gbitses'
p273
F0.0
sS'ChillerDeo1'
p274
F0.0
sS'AgileAnuja'
p275
F0.0
sS'AGICTechnology'
p276
F1.12
sS'biobeth'
p277
F0.0
sS'mmh1'
p278
F0.0
sS'umunairu'
p279
F0.0
sS'arunachalamev'
p280
F0.0
sS'AruniNishanthi'
p281
F0.0
sS'beena_ammanath'
p282
F0.02
sS'smith_gk'
p283
F0.04
sS'lisachwinter'
p284
F0.06
sS'DavidHloch'
p285
F0.0
sS'VisualEcon'
p286
F0.0
sS'margaretlmck'
p287
F0.0
sS'victoriastodden'
p288
F0.0
sS'nellwyn'
p289
F0.0
sS'Maggiemakar'
p290
F0.02
sS'marla_caraibi'
p291
F0.0
sS'datachloe'
p292
F0.0
sS'DivulgaTVZ'
p293
F0.0
sS'bethnoveck'
p294
F0.0
sS'kellecruz'
p295
F0.0
sS'karenchurch'
p296
F0.0
sS'ojahnn'
p297
F0.0
sS'siatogia'
p298
F0.0
sS'yukselduman25'
p299
F0.0
sS'JennFleck'
p300
F0.16
sS'houssaine_amzil'
p301
F0.0
sS'Ada_Jeles'
p302
F0.0
sS'CreationScisso2'
p303
F0.0
sS'Cassie_DeWitt'
p304
F0.0
sS'mkutmon'
p305
F0.0
sS'annosax'
p306
F0.04
sS'seersco'
p307
F0.045454545454545456
sS'Tatjana_Kec'
p308
F0.0
sS'BeEngelhardt'
p309
F0.0
sS'cryptosrilanka'
p310
F0.02
sS'jeremyphoward'
p311
F0.0
sS'elindse1'
p312
F0.08
sS'sctyner'
p313
F0.02
sS'gan_ef'
p314
F0.0
sS'RealKAYRHOMA'
p315
F0.0
sS'nmatthiasmoore'
p316
F0.0
sS'susanaferreras'
p317
F0.06
sS'jrnewww'
p318
F0.04
sS'emirfarinas'
p319
F0.0
sS'starignus'
p320
F0.0
sS'DataJunkie'
p321
F0.0
sS'lindamciver'
p322
F0.26
sS'mer__edith'
p323
F0.0
sS'DrAndyPardoe'
p324
F0.0
sS'alexduke'
p325
F0.0
sS'gdb'
p326
F0.0
sS'HuuViet2410'
p327
F0.0
sS'PrabhaGana'
p328
F0.02
sS'j_l_kelly'
p329
F0.02
sS'BolagSpecialist'
p330
F0.0
sS'follow_me_plz28'
p331
F0.0
sS'jennifermarsman'
p332
F0.0
sS'MySuratMySMC'
p333
F0.32
sS'cthydng'
p334
F0.0
sS'_glitterworm'
p335
F0.08
sS'GreatBlueC'
p336
F0.0
sS'thebigcormack'
p337
F0.0
sS'elthenerd'
p338
F0.0
sS'_kyliejane'
p339
F0.0
sS'ImRameshwor'
p340
F0.02
sS'Kritika_Jalan'
p341
F0.08
sS'SarahJaneHoya'
p342
F0.0
sS'sweetsp'
p343
F0.04
sS'elaineklee'
p344
F0.0
sS'MediaSKINNED'
p345
F0.0
sS'kolesnikalinka1'
p346
F0.0
sS'heathercmiller'
p347
F0.0
sS'havasi'
p348
F0.02
sS'bradcryp'
p349
F0.0
sS'ilse_ackerman'
p350
F0.0
sS'wendykan'
p351
F0.0
sS'amcyg'
p352
F0.0
sS'shellyjang'
p353
F0.0
sS'guo_krystal'
p354
F0.02
sS'RustyRokib'
p355
F0.0
sS'notFromShrek'
p356
F0.02
sS'furnishingstore'
p357
F0.0
sS'DrBrittne'
p358
F0.0
sS'afwong'
p359
F0.0
sS'dinujuly22'
p360
F0.0
sS'disrupster'
p361
F0.0
sS'PartyDabba'
p362
F0.0
sS'WomenInStat'
p363
F0.0
sS'lizzadwoskin'
p364
F0.0
sS'MHuebnerPhD'
p365
F0.04
sS'officialCTMcom'
p366
F0.0
sS'RaeKnowler'
p367
F0.0
sS'sorprendida'
p368
F0.0
sS'MichelleWiest'
p369
F0.0
sS'shawonbabu'
p370
F0.0
sS'tordable'
p371
F0.0
sS'i2pi'
p372
F0.0
sS'donna_ddmh'
p373
F0.02
sS'karenhsumar'
p374
F0.0
sS'FSchueuer'
p375
F0.0
sS'thatburquebelle'
p376
F0.04
sS'JackieKazil'
p377
F0.04
sS'skcexport'
p378
F0.0
sS'clinton_dews'
p379
F0.0
sS'gamephace'
p380
F0.0
sS'Erie'
p381
F0.0
sS'OzBigdownunder'
p382
F0.0
sS'treasa'
p383
F0.0
sS'yaelgarten'
p384
F0.0
sS'sunnydeveloper'
p385
F0.02
sS'_JAStark'
p386
F0.02
sS'MdMohib1996'
p387
F0.0
sS'etalbot1291'
p388
F0.0
sS'rodrigocornejoz'
p389
F0.0
sS't_tsvet'
p390
F0.0
sS'nmaggikelly'
p391
F0.04
sS'Nightitaly'
p392
F0.0
sS'emilymbender'
p393
F0.02
sS'abarysh'
p394
F0.02
sS'getLaura'
p395
F0.02
sS'LillianSaysSo'
p396
F0.0
sS'jczetta'
p397
F0.0
sS'haydemtzl'
p398
F0.0
sS'xciteandempower'
p399
F0.0
sS'marden928'
p400
F0.0
sS'jazman_zweni'
p401
F0.0
sS'hero93669219'
p402
F0.0
sS'lenadroid'
p403
F0.02
sS'eamcvey'
p404
F0.0
sS'CryptoSpaceTM'
p405
F0.0
sS'ExchangeAlerter'
p406
F0.2
sS'bergautier'
p407
F0.0
sS'JScurrell'
p408
F0.0
sS'Ajitkumargiri92'
p409
F0.0
sS'mercyangelo10'
p410
F0.0
sS'grammarnerd'
p411
F0.0
sS'AShendruk'
p412
F0.0
sS'sastoudt'
p413
F0.04
sS'kellieotto'
p414
F0.1
sS'rajashreeb07'
p415
F0.0
sS'moorejh'
p416
F0.02
sS'EllieAsksWhy'
p417
F0.0
sS'catherineols'
p418
F0.0
sS'sairmais'
p419
F0.0
sS'julialintern'
p420
F0.04
sS'nancygrady'
p421
F0.0
sS'tessalau'
p422
F0.0
sS'jkv_crypto'
p423
F0.0
sS'FeminismTech'
p424
F0.04
sS'n_ashutosh'
p425
F0.0
sS'dellsystem'
p426
F0.04
sS'crypt_mantisbee'
p427
F0.0
sS'kaitlinbdevine'
p428
F0.04
sS'xenonq07'
p429
F0.0
sS'MuhammaddNawaz'
p430
F0.0
sS'CoinInvestBank'
p431
F0.0
sS'hannahjean515'
p432
F0.02
sS'lc_powell'
p433
F0.04
sS'jackiecassell'
p434
F0.0
sS'AndrewYNg'
p435
F0.02
sS'eredmil1'
p436
F0.0
sS'SamanthaSifleet'
p437
F0.02
sS'behavioralist'
p438
F0.0
sS'ssahebi'
p439
F0.0
sS'sophie_sparkes'
p440
F0.06
sS'samarwakel'
p441
F0.0
sS'eleanorahowe'
p442
F0.0
sS'nanacalderon'
p443
F0.06
sS'd4tagirl'
p444
F0.02
sS'OberoiPri'
p445
F0.0
sS'vcheplygina'
p446
F0.0
sS'sxywu'
p447
F0.0
sS'minebocek'
p448
F0.0
sS'BVLSingler'
p449
F0.0
sS'ByerlyElizabeth'
p450
F0.0
sS'WomenInData'
p451
F0.0
sS'OrnellinaGreco'
p452
F0.0
sS'LuckyFeliciaH'
p453
F0.04
sS'David_Kudla'
p454
F0.0
sS'magda92122'
p455
F0.0
sS'cattruxillo'
p456
F0.04
sS'rachelss'
p457
F0.0
sS'demishassabis'
p458
F0.0
sS'extremefriday'
p459
F0.04
sS'whichblockchain'
p460
F0.02
sS'DrCh0le'
p461
F0.4
sS'Data_Visual_'
p462
F0.18
sS'sangha_deb'
p463
F0.0
sS'brooksbell'
p464
F0.0
sS'tabithagold'
p465
F0.0
sS'lauraalbertphd'
p466
F0.08
sS'DonJovieThaOG'
p467
F0.0
sS'DavidDuvenaud'
p468
F0.0
sS'maxmagnus555'
p469
F0.32
sS'zelashoe'
p470
F0.02
sS'cecilialiao'
p471
F0.2
sS'kwchang'
p472
F0.02
sS'AliciaOshlack'
p473
F0.02
sS'gypsyescapade'
p474
F0.0
sS'BhatPrshant'
p475
F0.0
sS'jackiefloyd'
p476
F0.02
sS'londonaesthetik'
p477
F0.04
sS'oliviawalch'
p478
F0.04
sS'abhishektiwari'
p479
F0.0
sS'_jenlowe_'
p480
F0.0
sS'IsabellaGollini'
p481
F0.16
sS'AyRenay'
p482
F0.14
sS'LynnOvermann'
p483
F0.02
sS'kennelliott'
p484
F0.0
sS'suhaib_saad'
p485
F0.0
sS'bbwfriendsdate'
p486
F0.0
sS'RailAnalysis'
p487
F0.02
sS'rachelbinx'
p488
F0.0
sS'taoyeah'
p489
F0.0
sS'marebertola'
p490
F0.0
sS'Smerity'
p491
F0.0
sS'Sudarma_Sampath'
p492
F0.0
sS'soumen_eclectic'
p493
F0.0
sS'tamaramunzner'
p494
F0.0
sS'maruthven'
p495
F0.0
sS'AnneEUrai'
p496
F0.02
sS'being2shubham'
p497
F0.0
sS'MichelleUfford'
p498
F0.0
sS'sieben99krist'
p499
F0.0
sS'leighadlr'
p500
F0.0
sS'GulfStar_Tur'
p501
F0.52
sS'chaiejtefron'
p502
F0.0
sS'balajiln'
p503
F0.0
sS'DTO_Fr'
p504
F0.02
sS'slowiika'
p505
F0.0
sS'mridulnandy1'
p506
F0.0
sS'cdChristinaDiaz'
p507
F0.0
sS'jovialjoy'
p508
F0.0
sS'kerstin_bach'
p509
F0.1
sS'drjessilyn'
p510
F0.36
sS'onindianhistory'
p511
F0.0
sS'2plus2make5'
p512
F0.08
sS'wgrus'
p513
F0.1
sS'ideaofhappiness'
p514
F0.0
sS'jkl2'
p515
F0.02
sS'phuonganh1239'
p516
F0.0
sS'pinkrving'
p517
F0.0
sS'smoclerk1'
p518
F2.34
sS'JreneeRenee'
p519
F0.0
sS'mmlee'
p520
F0.0
sS'deborahhanus'
p521
F0.04
sS'ProcreateDesign'
p522
F0.0
sS'WBPolice'
p523
F0.0
sS'VaynixVNX'
p524
F0.26
sS'kaythaney'
p525
F0.0
sS'majsander'
p526
F0.0
sS'clareconway'
p527
F0.04
sS'hessiejones'
p528
F0.06
sS'taiabur01'
p529
F0.0
sS'dayvidvictor'
p530
F0.0
sS'sandra_greiss'
p531
F0.0
sS'EmCalGal'
p532
F0.02
sS'EmilyGorcenski'
p533
F0.06
sS'jfreirenet'
p534
F0.0
sS'ML_NLP'
p535
F0.0
sS'meena_uvaca'
p536
F0.08
sS'scyspy'
p537
F0.0
sS'danrobsondias'
p538
F0.0
sS'beeonaposy'
p539
F0.02
sS'sagihaider'
p540
F0.02
sS'sgrifter'
p541
F0.04
sS'BadamPistha'
p542
F0.04
sS'tracykteal'
p543
F0.02
sS'rapperredd'
p544
F0.14
sS'DrJillianNey'
p545
F0.0
sS'lesmil'
p546
F0.1
sS'dennybritz'
p547
F0.0
sS'bouncingsheep'
p548
F0.02
sS'DebateLover'
p549
F0.02
sS'notmisha'
p550
F0.0
sS'lpettingill'
p551
F0.02
sS'aareiass'
p552
F0.0
sS'CatRey'
p553
F0.0
sS'Ciri8923'
p554
F0.02127659574468085
sS'daljeetsainifan'
p555
F0.0
sS'Jddgascon'
p556
F0.02
sS'DrLinaBader'
p557
F0.22
sS'TutorialBartop'
p558
F0.0
sS'Globalinspectio'
p559
F0.0
sS'PlasticStar_Mag'
p560
F0.02
sS'jenniromanek'
p561
F0.0
sS'butchimaubmt'
p562
F0.0
sS'WeekendArchaeo'
p563
F0.0
sS'bengoertzel'
p564
F0.0
sS'Crownkart'
p565
F0.0
sS'MayaVersal'
p566
F0.0
sS'jo_hardin47'
p567
F0.02
sS'shivanigrao'
p568
F0.0
sS'Rewak_'
p569
F0.0
sS'OMGannaks'
p570
F0.0
sS'RosalindPicard'
p571
F0.04
sS'dianam'
p572
F0.0
sS'skilled_odisha'
p573
F0.16
sS'michellejw'
p574
F0.04
sS'esimpler'
p575
F0.0
sS'StuartJehan'
p576
F0.0
sS'SusannBeier'
p577
F0.04
sS'jamie_kays'
p578
F0.04
sS'MCanalytics'
p579
F0.02
sS'rileymsmith19'
p580
F0.06
sS'momiperalta'
p581
F0.02
sS'librarylettie'
p582
F0.0
sS'suchisaria'
p583
F0.0
sS'kerfors'
p584
F0.04
sS'mashritaonline'
p585
F0.0
sS'catmule'
p586
F0.08
sS'abhisheksapabap'
p587
F0.02
sS'sarahsproehnle'
p588
F0.0
sS'NguyenM81031025'
p589
F0.0
sS'SQLCindy'
p590
F0.06
sS'shantihomeindia'
p591
F0.0
sS'atmccann'
p592
F0.0
sS'aileengemma'
p593
F0.0
sS'JohnX011010'
p594
F0.0
sS'crypto_anttheta'
p595
F0.0
sS'gdequeiroz'
p596
F0.0
sS'Maccow01'
p597
F0.0
sS'janith075'
p598
F0.1
sS'data_nerd'
p599
F0.0
sS'inma_martinez'
p600
F0.0
sS'adampaulcoates'
p601
F0.0
sS'datapriestess'
p602
F0.02
sS'freelatestsms'
p603
F0.0
sS'AskHelenBrown'
p604
F0.02
sS'zararah'
p605
F0.0
sS'AmandaHeiderman'
p606
F0.04
sS'annalisabarla'
p607
F0.0
sS'Vwalkshoe'
p608
F0.0
sS'Dr_CMingarelli'
p609
F0.0
sS'emilyinamillion'
p610
F0.0
sS'_lisaq'
p611
F0.0
sS'louiseadennis'
p612
F0.02
sS'd_jyldyz'
p613
F0.06
sS'bluevincent'
p614
F0.0
sS'xuNsh1neV1'
p615
F0.0
sS'amyskerry'
p616
F0.0
sS'MicheleJKiss'
p617
F0.02
sS'genevievemp'
p618
F0.0
sS'lakhotia_anita'
p619
F0.0
sS'annakrystalli'
p620
F0.0
sS'InvensMobile'
p621
F0.0
sS'clairemelamed'
p622
F0.02
sS'datapointier'
p623
F0.04
sS'riicolimited'
p624
F0.0
sS'DennisKoutoudis'
p625
F0.0
sS'amssvensson'
p626
F0.0
sS'lindaliukas'
p627
F0.0
sS'elenatej'
p628
F0.0
sS'michelleminkoff'
p629
F0.0
sS'SoniDharamander'
p630
F0.0
sS'LauraHKahn'
p631
F0.02
sS'ARoyalHistorian'
p632
F0.0
sS'ShojibMohoshin'
p633
F0.0
sS'huynhhuutho520'
p634
F0.0
sS'i_pascu'
p635
F0.0
sS'TyronDixon'
p636
F0.0
sS'RajivW1984'
p637
F0.0
sS'fossilosophy'
p638
F0.02
sS'leo8xls'
p639
F0.0
sS'morganthegray'
p640
F0.04
sS'Yssybyl'
p641
F0.06
sS'NancyAjram'
p642
F0.0
sS'StaniMeredith'
p643
F0.0
sS'RichardPyros'
p644
F0.0
sS'embrein'
p645
F0.0
sS'shanfu'
p646
F0.0
sS'vem_de_vlog'
p647
F0.0
sS'bricon5'
p648
F0.0
sS'H_A_P_A'
p649
F0.04
sS'lmthang'
p650
F0.0
sS'MiaD'
p651
F0.0
sS'Alexanderemr__'
p652
F0.0
sS'hspter'
p653
F0.0
sS'adversariel'
p654
F0.0
sS'JaclynWeiser'
p655
F0.0
sS'emilybartha'
p656
F0.04
sS'DaphnaHarel'
p657
F0.08
sS'GaskyK'
p658
F0.1
sS'jhamrick'
p659
F0.0
sS'seogoogleall'
p660
F0.0
sS'KathyApplebaum'
p661
F0.0
sS'ledell'
p662
F0.02
sS'xllora'
p663
F0.0
sS'dlmgaming'
p664
F0.02
sS'ancuty69'
p665
F0.0
sS'lishali88'
p666
F0.02
sS'nathali_leone'
p667
F0.0
sS'Groovy_Bois'
p668
F0.02
sS'lonestarsally'
p669
F0.0
sS'katycns'
p670
F0.04
sS'neal_lathia'
p671
F0.0
sS'pchandarr'
p672
F0.0
sS'rajmanoj11'
p673
F0.0
sS'btc_amazing_com'
p674
F0.0
sS'hagiang8x'
p675
F0.0
sS'thejunglejane'
p676
F0.08
sS'michelenull'
p677
F0.24
sS'DrCatNelson'
p678
F0.0
sS'forcetalks'
p679
F0.06
sS'OlgaTsubiks'
p680
F0.0
sS'ChiriGo_'
p681
F0.0
sS'kahnchat'
p682
F0.02
sS'JeanneHolm'
p683
F0.02
sS'sherrirose'
p684
F0.0
sS'Nhungkia'
p685
F0.0
sS'TechPolicy'
p686
F0.0
sS'ChrisMalinow'
p687
F0.0
sS'JennyToan1983'
p688
F0.0
sS'JennyBryan'
p689
F0.0
sS'mdreid'
p690
F0.0
sS'vivian__zhang'
p691
F0.04
sS'nitipaudyal'
p692
F0.0
sS'claudiawilliams'
p693
F0.02
sS'Bill__Hoang'
p694
F0.0
sS'kdphd'
p695
F0.0
sS'multiartazure'
p696
F0.0
sS'KryanIgor'
p697
F0.0
sS'AliMakhzani'
p698
F0.0
sS'ilknurkabul'
p699
F0.06
sS'ChrisMedia4'
p700
F0.0
sS'ellen_koenig'
p701
F0.08
sS'fridapolli'
p702
F0.0
sS'shopGHTN'
p703
F0.3
sS'RichardSocher'
p704
F0.0
sS'LittleMissData'
p705
F0.02
sS'ladamic'
p706
F0.04
sS'Lydia_S_Chen'
p707
F0.06
sS'rubyrubyruby9'
p708
F0.02
sS'fcarson'
p709
F0.04
sS'Notawful'
p710
F0.0
sS'mthielbar'
p711
F0.02
sS'StudentOfEarth'
p712
F0.0
sS'abmakulec'
p713
F0.2
sS'nikitaljohnson'
p714
F0.0
sS'juliasilge'
p715
F0.0
sS'Themadbugkoustu'
p716
F0.0
sS'FutureFlicks_'
p717
F0.0
sS'NestadeV1337'
p718
F0.0
sS'AngelaZutavern'
p719
F0.04
sS'klubkodiak'
p720
F0.0
sS'priyaponnapalli'
p721
F0.06
sS'johnmyleswhite'
p722
F0.02
sS'loooorenanicole'
p723
F0.32
sS'FarfalleArt_IN'
p724
F0.0
sS'RubyChilds'
p725
F0.0
sS'emsweene57'
p726
F0.0
sS'BKaan05'
p727
F0.0
sS'notielvigilante'
p728
F0.0
sS'KrishBhatt2000'
p729
F0.0
sS'gillianmchin'
p730
F0.0
sS'n_kahmed'
p731
F0.04
sS'Begum__Ozdemirr'
p732
F0.0
sS'figure8labs'
p733
F0.08
sS'LeighCressman'
p734
F0.0
sS'nsaphra'
p735
F0.02
sS'natschluter'
p736
F0.02
sS'CathrynCarson'
p737
F0.0
sS'miriamfriedel'
p738
F0.1
sS'KristinHenry'
p739
F0.0
sS'CESCLimited'
p740
F0.0
sS'gloriatlau'
p741
F0.1
sS'RNA_biologist'
p742
F0.0
sS'HostBooksIndia'
p743
F0.02
sS'enkayfreda'
p744
F0.02
sS'ApoorveDubey'
p745
F0.0
sS'priyasad95'
p746
F0.0
sS'TungTun63652781'
p747
F0.0
sS'CamEtLeon'
p748
F0.04
sS'DataIsFuture'
p749
F0.0
sS'Iskanderal'
p750
F0.02
sS's_bedir'
p751
F0.04
sS'monicachristlad'
p752
F0.08333333333333333
sS'NguyenV12853850'
p753
F0.0
sS'responsibledesi'
p754
F0.0
sS'charrtay'
p755
F0.06
sS'mdabdulbari1993'
p756
F0.1
sS'idhasitha'
p757
F0.0
sS'debbiebere'
p758
F0.04
sS'DataToViz'
p759
F0.02
sS'GunamHospital'
p760
F0.0
sS'sunandakp'
p761
F0.06
sS'groundhog0202'
p762
F0.0
sS'chothechosenone'
p763
F0.0
sS'CandiHalbert'
p764
F0.0
sS'eminomura'
p765
F0.0
sS'babu3608'
p766
F0.0
sS'hirafdo'
p767
F0.0
sS'samim'
p768
F0.02
sS'Greendrv'
p769
F0.02
sS'diana_nario'
p770
F0.04
sS'himidu_'
p771
F0.0
sS'lnhaynes'
p772
F0.0
sS'amj_alves'
p773
F0.0
sS'nancykoppdw'
p774
F0.0
sS'LadyAshBorg'
p775
F0.0
sS'Shugars'
p776
F0.0
sS'SherlockpHolmes'
p777
F0.0
sS'lorynyc'
p778
F0.06
sS'DearPriya'
p779
F0.04
sS'aliawan9999'
p780
F0.0
sS'Miles_Brundage'
p781
F0.0
sS'mlsbd100'
p782
F0.0
sS'trimboy20017'
p783
F0.0
sS'RKkaspersky'
p784
F0.0
sS'RalitoDigital'
p785
F0.1
sS'thyngkm'
p786
F0.02
sS'nyghtowl'
p787
F0.0
sS'chadjamian'
p788
F0.04
sS'antheaws'
p789
F0.0
sS'DheerajSanghi'
p790
F0.22
sS'RVAwonk'
p791
F0.0
sS'lme2407'
p792
F0.0
sS'yasmind'
p793
F0.02
sS'EvilLucifera'
p794
F0.0
sS'MultoGhost'
p795
F0.02
sS'nsdelpitiya'
p796
F0.0
sS'zanstrong'
p797
F0.0
sS'prasad19841020'
p798
F0.0
sS'BevBrown'
p799
F0.0
sS'digitalFlaneuse'
p800
F0.0
sS'ErinMichelson'
p801
F0.0
sS'itscarolzee'
p802
F0.04
sS'grandtechvision'
p803
F0.0
sS'Avinashk_7'
p804
F0.0
sS'LisaVaughnFox26'
p805
F0.0
sS'AyleeNielsen'
p806
F0.0
sS'nimitjain11'
p807
F0.0
sS'monkqy'
p808
F0.02
sS'lalitkapoor'
p809
F0.0
sS'UbongLydia'
p810
F0.0
sS'PeatuceHq'
p811
F0.0
sS'thilakshan0001'
p812
F0.0
sS'bahiaZ'
p813
F0.02
sS'bigdata'
p814
F0.0
sS'wedgate'
p815
F0.04
sS'halawiBahia'
p816
F0.0
sS'CEHandley'
p817
F0.04
sS'jeniferjones'
p818
F0.02
sS'Iam_MMHirani'
p819
F0.0
sS'SolutionsVowel'
p820
F0.0
sS'RP_SanjivGoenka'
p821
F0.76
sS'NataliaKoles99'
p822
F0.0
sS'alison_cossette'
p823
F0.0
sS'nbrodnax'
p824
F0.02
sS'gappy3000'
p825
F0.0
sS'ttangAWS'
p826
F0.0
sS'morgantaschuk'
p827
F0.14
sS'suzymoat'
p828
F0.1
sS'ogrisel'
p829
F0.0
sS'crypto_beetle'
p830
F0.0
sS'jsteeleeditor'
p831
F0.0
sS'timwee'
p832
F0.0
sS'Classlicity'
p833
F0.0
sS'jessicammoss'
p834
F0.0
sS'ds_patricio'
p835
F0.0
sS'kralljr'
p836
F0.0
sS'mobycy'
p837
F0.0
sS'RealCashIn'
p838
F0.0
sS'KowalVA'
p839
F0.08
sS'jessiedza'
p840
F0.0
sS'lindaterlouw'
p841
F0.02
sS'WillingCarol'
p842
F0.0
sS'rajatmonga'
p843
F0.0
sS'MsDataDetective'
p844
F0.0
sS'EmilyLPatterson'
p845
F0.0
sS'EstherVasiete'
p846
F0.04
sS'thinkmariya'
p847
F0.0
sS'Tjido'
p848
F0.14
sS'Spiraladies'
p849
F0.0
sS'tatsianams'
p850
F0.02
sS'yusan_lin'
p851
F0.04
sS'kjam'
p852
F0.04
sS'rkthukral'
p853
F0.0
sS'evergreendata'
p854
F0.06
sS'jenbelissent'
p855
F0.1
sS'EvaMuStu'
p856
F0.0
sS'notivigilante'
p857
F0.0
sS'holdenkarau'
p858
F0.02
sS'TahsinAhmed69'
p859
F0.0
sS'amygershkoff'
p860
F0.0
sS'lisa_6789'
p861
F0.0
sS'decodyng'
p862
F0.06
sS'jmfabe'
p863
F0.1
sS'chamaraprasan16'
p864
F0.04
sS'ProfJenNeville'
p865
F0.0
sS'KmarzockShewolf'
p866
F0.02
sS'CesleeDineen'
p867
F0.02
sS'emmavaast'
p868
F0.1
sS'imightbemary'
p869
F0.0
sS'JustinL32562292'
p870
F0.0
sS'nasrinmmm'
p871
F0.0
sS'JenniSyed'
p872
F0.04
sS'Crypbull'
p873
F0.0
sS'ahfeel'
p874
F0.0
sS'tdoyon'
p875
F0.0
sS'lenikrsova'
p876
F0.06
sS'pga_cine'
p877
F0.0
sS'malonfe'
p878
F0.0
sS'AnnieGalati'
p879
F0.0
sS'zhangyaoy'
p880
F0.0
sS'dgasanka'
p881
F0.0
sS'achsoo'
p882
F0.0
sS'freewebmentor'
p883
F0.0
sS'jutrasmel'
p884
F0.02
sS'joycgarnett'
p885
F0.0
sS'steph_doctor'
p886
F0.0
sS'wolffpvck'
p887
F0.0
sS'dbdiaz99'
p888
F0.0
sS'birdsarah'
p889
F0.0
sS'cryptoolk'
p890
F0.0
sS'CamillaLongden'
p891
F0.0
sS'skahad39794940'
p892
F0.0
sS'e_delpech'
p893
F0.0
sS'Claradactyl'
p894
F0.0
sS'allisons'
p895
F0.04
sS'sere_signorelli'
p896
F0.1
sS'MaliciaRogue'
p897
F0.04
sS'barrosm_blog'
p898
F0.0
sS'jent103'
p899
F0.06
sS'EdwardTufte'
p900
F0.0
sS'sudhakarkodati'
p901
F0.0
sS'ProQuesAsker'
p902
F0.04
sS'lusantala'
p903
F0.02
sS'Bahareh360'
p904
F0.06
sS'esourceit'
p905
F0.06
sS'Tretyakova933'
p906
F0.0
sS'SehansaD'
p907
F0.0
sS'DanielleAlberti'
p908
F0.0
sS'sameerapoduri'
p909
F0.0
sS'BitplaceTo'
p910
F0.02
sS'AfanasjevaOlga'
p911
F0.0
sS'_MondoBizarro_'
p912
F0.0
sS'gcosma1'
p913
F0.04
sS'silil3'
p914
F0.0
sS'jessicagarson'
p915
F0.0
sS'kathytpham'
p916
F0.02
sS'ch402'
p917
F0.0
sS'janithkt'
p918
F0.0
sS'ElaineF'
p919
F0.0
sS'HyperRedX'
p920
F0.0
sS'm_rgoK'
p921
F0.023255813953488372
sS'Katsivan3'
p922
F0.0
sS'SolMantra'
p923
F0.0
sS'vdignum'
p924
F0.02
sS'lesleylathrop'
p925
F0.0
sS'SeismoSue'
p926
F0.02
sS'GamingFrontNet'
p927
F0.0
sS'dataginjaninja'
p928
F0.0
sS'marwansarhan216'
p929
F0.0
sS'testobsessed'
p930
F0.0
sS'rajuahmed330'
p931
F0.0
sS'v_maini'
p932
F0.0
sS'nilupulie_k'
p933
F0.0
sS'arman_kara'
p934
F0.02
sS'KibetBenard_'
p935
F0.0
sS'AlexKeyman_D'
p936
F0.0
sS'NicoleADonnelly'
p937
F0.04
sS'brianavecchione'
p938
F0.0
sS'jessicayluo'
p939
F0.0
sS'emshort'
p940
F0.02
sS'AnneMarie2006'
p941
F0.0
sS'christinachirps'
p942
F0.0
sS'cstarlyv'
p943
F0.0
sS'LucyStats'
p944
F0.02
sS'BayesForDays'
p945
F0.0
sS'sheilaisbell'
p946
F0.08
sS'kristenaburton'
p947
F0.2
sS'seriousssam'
p948
F0.0
sS'yuvadeepkumar'
p949
F0.0
sS'noUpside'
p950
F0.0
sS'ChrisDiehl'
p951
F0.02
sS'CaroleJesse'
p952
F0.04
sS'jr_razaa'
p953
F0.0
sS'fox90_'
p954
F0.0
sS'peteskomoroch'
p955
F0.0
sS'parisa_l'
p956
F0.0
sS'cazencott'
p957
F0.02
sS'kimknilsson'
p958
F0.04
sS'Shashicrypto1'
p959
F0.0
sS'meredithter'
p960
F0.0
sS'handee'
p961
F0.0
sS'mariasumner29'
p962
F0.02
sS'moor1204'
p963
F0.04
sS'sonnguyen1810'
p964
F0.0
sS'nealrichter'
p965
F0.0
sS'BridesLounge'
p966
F0.04
sS'KayFButterfield'
p967
F0.0
sS'evelgab'
p968
F0.06
sS'HomesAtMetacoda'
p969
F0.0
sS'DianeBELDAME'
p970
F0.0
sS'DigiChime'
p971
F0.0
sS'bhathiyaprabhat'
p972
F0.0
sS'SashaLaundy'
p973
F0.0
sS'laura_tastic'
p974
F0.0
sS'kierisi'
p975
F0.0
sS'SasaSivcev'
p976
F0.0
sS'justcleanitGTA'
p977
F0.0
sS'MirelaGTulbure'
p978
F0.0
sS'semanticvoid'
p979
F0.0
sS'marianattestad'
p980
F0.0
sS'eyspahn'
p981
F0.1
sS'AlexandraaPodop'
p982
F0.0
sS'JayCeeBeer'
p983
F0.0
sS'fabianenardon'
p984
F0.02
sS'HarleyKwyn'
p985
F0.0
sS'STDANIELS54'
p986
F0.0
sS'tariqul99623297'
p987
F0.0
sS'slimbumzie'
p988
F0.0
sS'GermaineReyes'
p989
F0.0
sS'MHDKHAN13'
p990
F0.0
sS'pattithepotato'
p991
F0.08
sS'isanuage'
p992
F0.44
sS'UglyResearch'
p993
F0.12
sS'EimanKanjo'
p994
F0.04
sS'sathyainfo'
p995
F1.58
sS'ahs_academy'
p996
F0.0
sS'BernardMarr'
p997
F0.0
sS'kajepo'
p998
F0.2
sS'StephLKim'
p999
F0.0
sS'annakoop'
p1000
F0.0
s.