(dp0
S'colinraffel'
p1
I0
sS'sedielem'
p2
I0
sS'multiartazure'
p3
I0
sS'Sudarma_Sampath'
p4
I0
sS'HyperRedX'
p5
I0
sS'forcetalks'
p6
I0
sS'JamieDJS'
p7
I0
sS'AndrewYNg'
p8
I0
sS'demishassabis'
p9
I0
sS'raukstar'
p10
I0
s.