(dp0
S'anupamaa12'
p1
(lp2
(iObject
Object
p3
(dp4
S'tweet_id'
p5
S'934495694479429632'
p6
sS'retweet_count'
p7
S'0'
p8
sS'tweet_text'
p9
V@makemytrip I got payment confirmation from MMT, but didn't get the ticket confirmation. Now since I do not have th\u2026 https://t.co/WHUZbVxTSC
p10
sS'favorite_count'
p11
g8
sba(iObject
Object
p12
(dp13
g5
S'930366274206437376'
p14
sg7
S'2'
p15
sg9
V. @prateekdewan defending his PhD titled "Techniques for Automating Quality Assessment of Context-specific Content\u2026 https://t.co/7hGgZBtNQw
p16
sg11
S'10'
p17
sba(iObject
Object
p18
(dp19
g5
S'929303955493883905'
p20
sg7
S'19'
p21
sg9
VRT @ponguru: I am looking for full time #phdstudents full time #ResearchAssociates and #interns for #summer2018 to join Precog@IIIT-D Inter\u2026
p22
sg11
g8
sba(iObject
Object
p23
(dp24
g5
S'928603472647241728'
p25
sg7
S'1'
p26
sg9
VTejas defending his PhD thesis on "Pushing Boundaries of Face Recognition: Adversary, Heterogeneity, and Scale". Wa\u2026 https://t.co/AAekl31g5B
p27
sg11
S'3'
p28
sba(iObject
Object
p29
(dp30
g5
S'912629625951358977'
p31
sg7
g8
sg9
VJeff Dean on future goals of TensorFlow. Watch him live at #HLF17 https://t.co/6kixmtGQH4 https://t.co/Jm2T0ze0XK
p32
sg11
g15
sba(iObject
Object
p33
(dp34
g5
S'911947481398730753'
p35
sg7
g8
sg9
VQuantum Computing is the hot topic this year at #HLF17 Lookout for the programme at https://t.co/QhTFIO8me4
p36
sg11
g8
sba(iObject
Object
p37
(dp38
g5
S'911943396922499073'
p39
sg7
g8
sg9
VAnd so it begins! #HLF17 https://t.co/4BRfay7JBG
p40
sg11
g26
sba(iObject
Object
p41
(dp42
g5
S'899298587686785025'
p43
sg7
g8
sg9
V@AiranSwati congratulations for BITS! :-)
p44
sg11
g8
sba(iObject
Object
p45
(dp46
g5
S'895615159497928704'
p47
sg7
g8
sg9
VWatch @goodboyanush defend his PhD thesis live at https://t.co/y82kKkQOsh https://t.co/MVGYaa6Ww0
p48
sg11
g26
sba(iObject
Object
p49
(dp50
g5
S'895585725743120384'
p51
sg7
g8
sg9
V#PhDposition open with my advisor https://t.co/OZPP5aDlGt
p52
sg11
g15
sba(iObject
Object
p53
(dp54
g5
S'893320447810338816'
p55
sg7
S'461'
p56
sg9
VRT @mrogati: The AI pyramid of needs, or why you need a solid foundation for effective AI and Machine Learning: https://t.co/W3vaISW3bE
p57
sg11
g8
sba(iObject
Object
p58
(dp59
g5
S'890514352004104194'
p60
sg7
g26
sg9
VWatch @niharikasachdev PhD defense live -- https://t.co/B6l2MjMbkp https://t.co/A3GKsIiFXE
p61
sg11
g26
sba(iObject
Object
p62
(dp63
g5
S'889111227787599872'
p64
sg7
g28
sg9
VRT @Srishti_Gupta14: FB, TW, YouTube post containing a phone number looks suspicious? Report using PhoneRep plugin (https://t.co/jaZXxt1han\u2026
p65
sg11
g8
sba(iObject
Object
p66
(dp67
g5
S'885728331403898880'
p68
sg7
g8
sg9
V@goodboyanush Is that darviz tshirt?
p69
sg11
g26
sba(iObject
Object
p70
(dp71
g5
S'885727995566084096'
p72
sg7
g8
sg9
V@ponguru @mnkvachher you will be missed @mnkvachher !
p73
sg11
S'4'
p74
sba(iObject
Object
p75
(dp76
g5
S'885727755689533444'
p77
sg7
g28
sg9
VRT @ponguru: .@mnkvachher blogs his experience with @precog_iiitd \u201cStanding on the shoulders of giants\u201d https://t.co/jzupjaEGWY #PrecogsRoc\u2026
p78
sg11
g8
sba(iObject
Object
p79
(dp80
g5
S'884757648687616001'
p81
sg7
g8
sg9
V@bkeegan @ridhikash07 @ingmarweber Interesting! Was the data from https://t.co/5m0acgDbgc ?
p82
sg11
g8
sba(iObject
Object
p83
(dp84
g5
S'884643604001546240'
p85
sg7
g8
sg9
V@shravika_mittal Nice, would love to hear more about it when the project is more mature
p86
sg11
g8
sba(iObject
Object
p87
(dp88
g5
S'884641968734650368'
p89
sg7
g8
sg9
V. @SrishtiChandok , Masters students at @IIITDelhi defending her thesis. Watch the live feed here -https://t.co/mtkXzBTVAi \u005ccc @ponguru
p90
sg11
g26
sba(iObject
Object
p91
(dp92
g5
S'884626522622935040'
p93
sg7
g8
sg9
V@prateekdewan  https://t.co/do0lsaQIf9
p94
sg11
g26
sba(iObject
Object
p95
(dp96
g5
S'884625420959666176'
p97
sg7
g8
sg9
V@shravika_mittal So cool! What is your project about?
p98
sg11
g8
sba(iObject
Object
p99
(dp100
g5
S'884625199039102977'
p101
sg7
g15
sg9
VRT @ponguru: Was Charminarishly delightful to catch-up with @IIITDelhi Allums / Current students / RA in Hyderabad. #IIITDStudentsRock #III\u2026
p102
sg11
g8
sba(iObject
Object
p103
(dp104
g5
S'882898016532692992'
p105
sg7
S'42736'
p106
sg9
VRT @norm: China opened a panda-shaped solar power plant last week. It's pretty damn cute. https://t.co/OeWy1ZVliK
p107
sg11
g8
sba(iObject
Object
p108
(dp109
g5
S'882463463909371904'
p110
sg7
g8
sg9
V@LalitSanagavara How? suggestions? \u005ccc @ponguru @kushagrb
p111
sg11
g8
sba(iObject
Object
p112
(dp113
g5
S'882462495054495744'
p114
sg7
g8
sg9
V@alok4nand not something you would like to say in public if you want to get recruited by Twitter in future! :-P
p115
sg11
g8
sba(iObject
Object
p116
(dp117
g5
S'881863417375543296'
p118
sg7
g8
sg9
V@aravindkpaaa Our hardest working participant! \U0001f644
p119
sg11
g26
sba(iObject
Object
p120
(dp121
g5
S'881861519830429696'
p122
sg7
g15
sg9
VLive streaming talk by Dr. Manish Gupta from @Microsoft on Social Network Analysis at #psosmatiiith https://t.co/fpzkF6rfi4 \u005ccc @ponguru
p123
sg11
S'5'
p124
sba(iObject
Object
p125
(dp126
g5
S'881859369658335232'
p127
sg7
S'6'
p128
sg9
VRT @rmsherman: Really enjoyed @ponguru's invitation for a great discussion on data and privacy in social media at today's #PSOSMatIIITH eve\u2026
p129
sg11
g8
sba(iObject
Object
p130
(dp131
g5
S'881738128737746944'
p132
sg7
g8
sg9
VUser survey surprisingly showed @facebook users most preferred sharing option is public as well as only-friends - @rmsherman #psosmatiiith
p133
sg11
g26
sba(iObject
Object
p134
(dp135
g5
S'881734621754400768'
p136
sg7
g8
sg9
VFirst invited talk at #PSOSMatIIITH by @rmsherman , Deputy Chief Privacy Officer @facebook https://t.co/S9poBOfFit
p137
sg11
g15
sba(iObject
Object
p138
(dp139
g5
S'881728373222817794'
p140
sg7
g15
sg9
V1 billion Facebook users give a perception of being happy. Social networks are full of bots, spam, fake content -\u2026 https://t.co/FzqqjlZ2Cr
p141
sg11
g26
sba(iObject
Object
p142
(dp143
g5
S'881727209211179008'
p144
sg7
g26
sg9
VBehaviour of people on offline social networks is very diff frm behaviour on online social networks - @devvarma #PSOSMatIIITH
p145
sg11
g26
sba(iObject
Object
p146
(dp147
g5
S'881726606602928128'
p148
sg7
g15
sg9
VAll student organisers before the event kicks off... #PSOSMatIIITH https://t.co/NC2oaTgAC1
p149
sg11
S'11'
p150
sba(iObject
Object
p151
(dp152
g5
S'878563923468763138'
p153
sg7
g26
sg9
VHello world, again! #newstart
p154
sg11
g26
sbasS'SenguptaSrishti'
p155
(lp156
(iObject
Object
p157
(dp158
g5
S'970933257020887040'
p159
sg7
S'64'
p160
sg9
VRT @jamietomasello: If you are an underrepresented person in security, trust, or safety community and want to attend, I am pledging to pay\u2026
p161
sg11
g8
sba(iObject
Object
p162
(dp163
g5
S'970241063112736768'
p164
sg7
S'81'
p165
sg9
VRT @lcamtuf: My weird path to #infosec:\u000a\u000a1) Be born\u000a2) Full communism\u000a\u000aThe rest here:\u000ahttps://t.co/odYmDbqdq8
p166
sg11
g8
sba(iObject
Object
p167
(dp168
g5
S'966944205628207104'
p169
sg7
S'2399'
p170
sg9
VRT @schmmuck: Justin Trudeau is trying so hard to be Indian, the next thing you know he'll have a plastic bag filled with plastic bags in h\u2026
p171
sg11
g8
sba(iObject
Object
p172
(dp173
g5
S'966659842873221120'
p174
sg7
g74
sg9
VRT @m8urnett: I think I might know why my kitten can't leave my Yubikeys alone. https://t.co/iIwx7SdaVU
p175
sg11
g8
sba(iObject
Object
p176
(dp177
g5
S'966578769397014528'
p178
sg7
S'1240'
p179
sg9
VRT @randal_olson: When the person who stocks the #RaspberryPi magazines at the local supermarket doesn't know what a Raspberry Pi is. #prog\u2026
p180
sg11
g8
sba(iObject
Object
p181
(dp182
g5
S'965533073365504000'
p183
sg7
S'1864'
p184
sg9
VRT @xkcdComic: 2018 CVE List https://t.co/DKXhfBaED2 https://t.co/f850t4vDcH https://t.co/VV3a6cyDKq
p185
sg11
g8
sba(iObject
Object
p186
(dp187
g5
S'965094886872625152'
p188
sg7
S'23366'
p189
sg9
VRT @lulu_cheng: I got 99 tabs but I generally know where things are https://t.co/fRhjqpOENh
p190
sg11
g8
sba(iObject
Object
p191
(dp192
g5
S'964826697584578560'
p193
sg7
S'1914'
p194
sg9
VRT @kcunning: I am an experienced developer.\u000a\u000aI am also googling "How to roll back a git commit" for the millionth time.
p195
sg11
g8
sba(iObject
Object
p196
(dp197
g5
S'964330547844542465'
p198
sg7
S'2601'
p199
sg9
VRT @m8urnett: I caught my cat running out of my office with my yubikey in his mouth--a threat model I hadn't considered.
p200
sg11
g8
sba(iObject
Object
p201
(dp202
g5
S'964329865871638528'
p203
sg7
S'24'
p204
sg9
VRT @randal_olson: This morning has been a lesson in, "Stop trying to roll your own smart solutions to a common #programming problem when ot\u2026
p205
sg11
g8
sba(iObject
Object
p206
(dp207
g5
S'962197181057916929'
p208
sg7
S'19'
p209
sg9
VRT @patrickwardle: "while working at Apple, they were encouraged to use their access to help their friends in the jailbreaking community wi\u2026
p210
sg11
g8
sba(iObject
Object
p211
(dp212
g5
S'962196696364089344'
p213
sg7
S'3042'
p214
sg9
VRT @kalyanrath: In 500 years, the collective experience of our lives will be worth 1 mark in some kid\u2019s 9th grade history exam.
p215
sg11
g8
sba(iObject
Object
p216
(dp217
g5
S'961871936123842561'
p218
sg7
S'3103'
p219
sg9
VRT @StackSmashing: The leaked Apple source code mixes tabs and spaces.\U0001f92c https://t.co/yZXM4ufRNY
p220
sg11
g8
sba(iObject
Object
p221
(dp222
g5
S'961857140657856512'
p223
sg7
S'24'
p224
sg9
VRT @aionescu: Phenomenal advice and concise checklist items. And very happy to see #1 is \u201cdon\u2019t write a driver\u201d :) https://t.co/0zUDVgBXVQ
p225
sg11
g8
sba(iObject
Object
p226
(dp227
g5
S'961489060291399680'
p228
sg7
S'13'
p229
sg9
VRT @zoha_hamid: .@RailsGirlsSoC\u000a@paridhi_lohani and I are actively looking for coaches/mentors for RGSoC'18 with proficiency in Python/Djan\u2026
p230
sg11
g8
sba(iObject
Object
p231
(dp232
g5
S'961141713610924032'
p233
sg7
S'182'
p234
sg9
VRT @ifsecure: So you want to work in security? (my own version): https://t.co/xc2qThZadn
p235
sg11
g8
sba(iObject
Object
p236
(dp237
g5
S'931051371545030662'
p238
sg7
g8
sg9
Vvim &gt; emacs \U0001f60e\u000a#ghci17 #Bloomberg #codepoetry https://t.co/sR5TXJGLln
p239
sg11
S'10'
p240
sba(iObject
Object
p241
(dp242
g5
S'923943052732809216'
p243
sg7
S'127'
p244
sg9
VRT @nixcraft: Please help. I accidentally created a bunch of "~" symbols on Linux screen while following online tutorial. How can I delete\u2026
p245
sg11
g8
sba(iObject
Object
p246
(dp247
g5
S'921280395114450944'
p248
sg7
g8
sg9
V@MorganStanley @ghc the seeds I got from the Morgan Stanley booth at #GHC 2017 \u2764\ufe0f\U0001f423\U0001f331 https://t.co/7vCg8HGyFq
p249
sg11
g26
sba(iObject
Object
p250
(dp251
g5
S'920175788116152321'
p252
sg7
g8
sg9
VIt's scary that my feed full of #MeToo doesn't come as a shock.\u000aBtw, #MeToo
p253
sg11
S'7'
p254
sba(iObject
Object
p255
(dp256
g5
S'915561927677501441'
p257
sg7
g8
sg9
VThis is lit\U0001f525#ghc17 https://t.co/lqiKV45FBg
p258
sg11
S'10'
p259
sba(iObject
Object
p260
(dp261
g5
S'903571604474441728'
p262
sg7
g28
sg9
VRT @vinayaksn: @IIITDelhi students @dheryta28 duo wins 1st prize at national-level WiFi ThinkFest organized by @mojonetworks_  https://t.co\u2026
p263
sg11
g8
sba(iObject
Object
p264
(dp265
g5
S'899854865416859648'
p266
sg7
S'335'
p267
sg9
VRT @malwareunicorn: Made on a whim, several of us infosec fashionistas decided to make VanitySec: fashion + infosec. https://t.co/M0ePNMeSmQ
p268
sg11
g8
sba(iObject
Object
p269
(dp270
g5
S'899564638332788736'
p271
sg7
g8
sg9
V@krngrvr09 @SaloniKogta @YouTube That's so sad :'(
p272
sg11
g15
sba(iObject
Object
p273
(dp274
g5
S'893807535584452608'
p275
sg7
g8
sg9
V@agrawalamod All the best Amod \U0001f60e
p276
sg11
g15
sba(iObject
Object
p277
(dp278
g5
S'885335933658124288'
p279
sg7
S'518'
p280
sg9
VRT @torproject: This tweet is being \u2588\u2588\u2588\u2588 by your internet service provider. Well, not yet. We\u2019ve got to \u2588\u2588\u2588\u2588 stop them: https://t.co/Dmybt8\u2026
p281
sg11
g8
sba(iObject
Object
p282
(dp283
g5
S'885130843294900225'
p284
sg7
S'675'
p285
sg9
VRT @TheFunnyTeens: me: *mocks parents for not understanding technology*\u000a\u000ame: *has to google how to cook an egg*
p286
sg11
g8
sba(iObject
Object
p287
(dp288
g5
S'884784873793175558'
p289
sg7
g26
sg9
VRT @Saumyakul: Completely tripping over this. https://t.co/fXGDQ78BMy
p290
sg11
g8
sba(iObject
Object
p291
(dp292
g5
S'884608763772129280'
p293
sg7
g26
sg9
VI say "Hiiiii!!" to random dogs on the street, but avoid people \U0001f648
p294
sg11
S'9'
p295
sba(iObject
Object
p296
(dp297
g5
S'883654961220919296'
p298
sg7
g8
sg9
V@WomenTechmakers Is there something similar to this for the Asia-Pacific region?
p299
sg11
g15
sba(iObject
Object
p300
(dp301
g5
S'882230091882745856'
p302
sg7
g8
sg9
VThe only thing keeping me alive in metro rides is the guitar solo from Hotel California \U0001f3b8\U0001f602
p303
sg11
g74
sba(iObject
Object
p304
(dp305
g5
S'882093405089574912'
p306
sg7
S'27'
p307
sg9
VRT @travis_fnd: Today 20 teams from all over the world are starting their three months of @RailsGirlsSoC! We wish everyone a happy first da\u2026
p308
sg11
g8
sba(iObject
Object
p309
(dp310
g5
S'877349879764328448'
p311
sg7
g8
sg9
V@namanspace @ID_R_McGregor Yes! This is savage though \U0001f602
p312
sg11
g26
sba(iObject
Object
p313
(dp314
g5
S'876470391094378496'
p315
sg7
g8
sg9
VMauka mil hi gaya aaj \U0001f602
p316
sg11
g15
sba(iObject
Object
p317
(dp318
g5
S'873039078714769408'
p319
sg7
g8
sg9
V@namanspace @agrawalamod @SaloniKogta \U0001f613\U0001f62d
p320
sg11
g8
sba(iObject
Object
p321
(dp322
g5
S'872406399015206912'
p323
sg7
g15
sg9
VRT @iamishitak: After growing up, I\u2019ve realised that a lot of adults who I thought were really smart are actually just full of shit and ver\u2026
p324
sg11
g8
sba(iObject
Object
p325
(dp326
g5
S'869148847062237184'
p327
sg7
S'37'
p328
sg9
VRT @udacity: We\u2019ve partnered with @WomenTechmakers to offer women around the world a Nanodegree scholarship https://t.co/UZ2P1kjxEe #womeni\u2026
p329
sg11
g8
sba(iObject
Object
p330
(dp331
g5
S'867424296401907712'
p332
sg7
S'375'
p333
sg9
VRT @WomenTechmakers: We\u2019re launching a Nanodegree scholarship with @udacity for the global #womenintech community! https://t.co/WDalANGDLS\u2026
p334
sg11
g8
sba(iObject
Object
p335
(dp336
g5
S'866880079548121090'
p337
sg7
S'59'
p338
sg9
VRT @RailsGirlsSoC: \U0001f389 The big moment has arrived. Meet the RGSoC 2017 teams and their projects! \U0001f389 https://t.co/AAxMqUAWdt https://t.co/eZPsR\u2026
p339
sg11
g8
sba(iObject
Object
p340
(dp341
g5
S'866237380172234752'
p342
sg7
g8
sg9
V@agrawalamod I watched this particular episode just yesterday \u2764\ufe0f
p343
sg11
g15
sba(iObject
Object
p344
(dp345
g5
S'865484499957633026'
p346
sg7
S'16363'
p347
sg9
VRT @fztalks: When ransomware guys provide better customer support than most companies \U0001f602#WannaCry https://t.co/H7SIFV5WKl
p348
sg11
g8
sba(iObject
Object
p349
(dp350
g5
S'865461263471525889'
p351
sg7
g26
sg9
VAPPLY for the WTM Scholarship! It's an amazing opportunity to meet like minded kickass women, and of course visit G\u2026 https://t.co/3n6NQFkWzJ
p352
sg11
g28
sba(iObject
Object
p353
(dp354
g5
S'862329511794192384'
p355
sg7
g254
sg9
VRT @jrexnet: Cornell/Princeton network programming live hangout on PISCES Programmable Software Switch at 1:30pm ET Tue May 23. https://t.c\u2026
p356
sg11
g8
sba(iObject
Object
p357
(dp358
g5
S'861508736615161856'
p359
sg7
S'3086'
p360
sg9
VRT @nixcraft: git rebase -i ;) https://t.co/Qy2k7Q0EQJ
p361
sg11
g8
sba(iObject
Object
p362
(dp363
g5
S'855782644633681921'
p364
sg7
g8
sg9
V@Ben_Pfaff Sounds like a great opportunity. Aligns with my interests as well!
p365
sg11
g8
sba(iObject
Object
p366
(dp367
g5
S'853213597455060992'
p368
sg7
g128
sg9
VRT @ponguru: 100+ students, 8 Faculty, 39 presenters, 10 Evaluators, 2 TAs, 1 instructor at the #CSE501 #BBI2017! Pics: https://t.co/mr9ZEX\u2026
p369
sg11
g8
sba(iObject
Object
p370
(dp371
g5
S'851286916607623169'
p372
sg7
g8
sg9
VI can't imagine what life's going to be like! IIITD gave me the best moments of my life and I'd do anything to spen\u2026 https://t.co/em8yMjLlw0
p373
sg11
g124
sba(iObject
Object
p374
(dp375
g5
S'849516201554444289'
p376
sg7
S'54'
p377
sg9
VRT @langziehohr: The anniversary crowdfunding campaign for @RailsGirlsSoC ends in 10 days! Help us fund these last three teams: https://t.c\u2026
p378
sg11
g8
sba(iObject
Object
p379
(dp380
g5
S'846362509984485376'
p381
sg7
S'23'
p382
sg9
VRT @RailsGirlsSoC: 190 teams applied, 6 funded - we can achieve more! \U0001f4aa\U0001f3ff Here is a 5-Step-Kit how you can help us find sponsors:  https://t\u2026
p383
sg11
g8
sba(iObject
Object
p384
(dp385
g5
S'841328710661918721'
p386
sg7
g26
sg9
VPainted after a really long time. Inspired by jeshypark 's loose\u2026 https://t.co/jMH2bpBz6U
p387
sg11
g8
sba(iObject
Object
p388
(dp389
g5
S'839492403585138689'
p390
sg7
g8
sg9
VAll the more reason to apply! &lt;3 https://t.co/7ruSrSNy4J
p391
sg11
g15
sba(iObject
Object
p392
(dp393
g5
S'828315251015774208'
p394
sg7
g15
sg9
VRT @Shaan_Chopra97: #fosdem2017 #Brussels https://t.co/sFDQKcdL5j
p395
sg11
g8
sba(iObject
Object
p396
(dp397
g5
S'828267149248561152'
p398
sg7
g8
sg9
V@RailsGirlsSoC This is insane amount of swag! Thank you for this opportunity \u2764\ufe0f Applications are open for RGSoC 17!\u2026 https://t.co/RQf1GdQaAs
p399
sg11
g254
sba(iObject
Object
p400
(dp401
g5
S'823176730739376129'
p402
sg7
S'144'
p403
sg9
VRT @RailsGirlsSoC: \U0001f389 Are you ready for RGSoC 2017? We are! OSS Project Submissions are now OPEN until Jan 31st!\u000aApply here \U0001f449 https://t.co/x\u2026
p404
sg11
g8
sba(iObject
Object
p405
(dp406
g5
S'823176647360778241'
p407
sg7
S'8'
p408
sg9
VRT @RailsGirlsSoC: Happy Thursday! We recently wrote a post for the blog of one of our awesome 2016 sponsors, @gsoc. Read it here \U0001f449 https:/\u2026
p409
sg11
g8
sba(iObject
Object
p410
(dp411
g5
S'806121916645797888'
p412
sg7
g8
sg9
V@digitalocean @github @coreos\u000aReceived my #Hacktoberfest swag today!! \U0001f60e\U0001f601\U0001f646 https://t.co/0nsfEGm0S5
p413
sg11
g26
sba(iObject
Object
p414
(dp415
g5
S'806118549206859776'
p416
sg7
g8
sg9
VMind blown!! #BlackMirror
p417
sg11
g26
sba(iObject
Object
p418
(dp419
g5
S'785752545226465280'
p420
sg7
g8
sg9
V\u26a1\ufe0f "My Rails Girls Summer of Code experience"\u000a\u000ahttps://t.co/wNh6cWboeY
p421
sg11
g254
sba(iObject
Object
p422
(dp423
g5
S'785748788887433216'
p424
sg7
g15
sg9
VYayy! Blog got posted! &lt;3\u000a#rgsoc https://t.co/NCCofuvikb
p425
sg11
g254
sba(iObject
Object
p426
(dp427
g5
S'782240376018960384'
p428
sg7
g28
sg9
V@RailsGirlsSoC @SoUmmYaah when your calendar reminds you to put up a status update even after #rgsoc \U0001f622\u2026 https://t.co/8ai97Hic17
p429
sg11
g408
sba(iObject
Object
p430
(dp431
g5
S'781471033605795843'
p432
sg7
g8
sg9
VWow, this is awesome! https://t.co/dCuKyxrNNK
p433
sg11
g26
sba(iObject
Object
p434
(dp435
g5
S'781440193391841281'
p436
sg7
g26
sg9
V@RailsGirlsSoC @SoUmmYaah and I can't believe that it's going to end so soon.\u000a#twodaystogo #rgsoc #voc #l1ghtsab3r https://t.co/lsXFcpUale
p437
sg11
g74
sba(iObject
Object
p438
(dp439
g5
S'781149304308109312'
p440
sg7
g8
sg9
VFound a picture from our kickoff call! Shoutout to all the amazing coaches, our mentor and supervisor.Can't believe\u2026 https://t.co/bkHCsJDwR1
p441
sg11
g128
sba(iObject
Object
p442
(dp443
g5
S'778221350217396232'
p444
sg7
g26
sg9
V@RailsGirlsSoC @PyBeeWare Thanks for giving us this awesome opportunity &lt;3\u000a#rgsoc #cpython #voc #l1ghtsab3r https://t.co/7OHYFFVRul
p445
sg11
g15
sba(iObject
Object
p446
(dp447
g5
S'752028688993153024'
p448
sg7
g8
sg9
VI participated and secured 29 rank in International Women's Hackathon on @HackerEarth https://t.co/BBZkoA6hjF
p449
sg11
g295
sba(iObject
Object
p450
(dp451
g5
S'751450760492310529'
p452
sg7
g28
sg9
V@RailsGirlsSoC @SoUmmYaah Two pull requests merged! Yayyy!! :D\u000a#team_l1ghtsab3r https://t.co/7nvVW5Qn5Z
p453
sg11
g295
sba(iObject
Object
p454
(dp455
g5
S'751450211441139712'
p456
sg7
g8
sg9
VWe're on the Thank You board &lt;3\u000aThank you @RailsGirlsSoC and @PyBeeWare for this opportunity\u000a#team_l1ghtsab3r https://t.co/3msIFeKo0y
p457
sg11
g124
sba(iObject
Object
p458
(dp459
g5
S'751449298844413952'
p460
sg7
g8
sg9
V@RailsGirlsSoC @SoUmmYaah SO excited for the global kickoff :D\u000a#kickoffrgsoc https://t.co/4KdO3mYsY3
p461
sg11
g26
sba(iObject
Object
p462
(dp463
g5
S'743331298303836161'
p464
sg7
g8
sg9
V@s_jain1107 @SoUmmYaah Thank you so much!!! :D
p465
sg11
g8
sba(iObject
Object
p466
(dp467
g5
S'743101171355680770'
p468
sg7
g8
sg9
V@SoUmmYaah and I are so happy!! :D\u000aThank you @RailsGirlsSoC for this wonderful opportunity! https://t.co/qEx4RBI7L3
p469
sg11
g124
sba(iObject
Object
p470
(dp471
g5
S'738590693916966915'
p472
sg7
S'32'
p473
sg9
VRT @ycombinator: YC S16's Women Who Code helps female engineers level up in their careers https://t.co/rL0mv7Dj4i
p474
sg11
g8
sba(iObject
Object
p475
(dp476
g5
S'718522231089815552'
p477
sg7
g8
sg9
V@PyBeeWare Hi! Me and my rgsoc partner ( @SoUmmYaah ) would love to contribute to VOC! Please mentor us for the same
p478
sg11
g26
sba(iObject
Object
p479
(dp480
g5
S'716198878043766784'
p481
sg7
g8
sg9
V@akshay_vishnoi @kdengineer hey thanks for responding\u000aMy partner @SoUmmYaah and I will let you know of the projects we are pursuing soon
p482
sg11
g8
sba(iObject
Object
p483
(dp484
g5
S'710595418430644224'
p485
sg7
g26
sg9
V@RailsGirlsSoC My partner @SoUmmYaah and I (@SenguptaSrishti) are looking for a mentor based in Delhi for #rgsoc 2016\u000aPing if interested :)
p486
sg11
g28
sba(iObject
Object
p487
(dp488
g5
S'707614914706219008'
p489
sg7
g15
sg9
V@RailsGirlsSoC looking for a partner to pair with in New Delhi for #rgsoc 2016\u000aPing if interested :)
p490
sg11
g26
sba(iObject
Object
p491
(dp492
g5
S'692573558090891264'
p493
sg7
S'215'
p494
sg9
VRT @GirlsWhoCode: Join the biggest network of female #coders by applying to @GirlsWhoCode #SummerImmersionProgram! https://t.co/zJBUUFTGDZ \u2026
p495
sg11
g8
sba(iObject
Object
p496
(dp497
g5
S'692086225948160001'
p498
sg7
g8
sg9
VJust received helpful feedback on my project from a @Udacity reviewer! #Nanodegree
p499
sg11
g28
sba(iObject
Object
p500
(dp501
g5
S'690854505580113921'
p502
sg7
g8
sg9
VManish Pandey, wow.\u000a#IndvsAus
p503
sg11
g26
sba(iObject
Object
p504
(dp505
g5
S'690837671283789824'
p506
sg7
g26
sg9
VRohit Sharma, you were amazing!\u000a#IndvsAus
p507
sg11
g28
sba(iObject
Object
p508
(dp509
g5
S'687666323606777857'
p510
sg7
g8
sg9
VRest in peace #AlanRickman \u000aHarry Potter wouldn't have been the same without you. #SnapeForever
p511
sg11
g26
sba(iObject
Object
p512
(dp513
g5
S'687635975841812480'
p514
sg7
g8
sg9
V#rajdeepsardesai was a delight to hear! Looking forward to more public seminars at #iiitd :D
p515
sg11
g26
sba(iObject
Object
p516
(dp517
g5
S'686848833733529600'
p518
sg7
S'99'
p519
sg9
VRT @TheHackersNews: Remembering #AaronSwartz \u2014 Died 3 years ago Today #Respect #Geek #THN (3/3) @TheHackersNews https://t.co/QortsHaS4W
p520
sg11
g8
sba(iObject
Object
p521
(dp522
g5
S'683990330044067840'
p523
sg7
g128
sg9
VRT @Swati_THN: Chinese Hackers tried to Take Down #Tibetan Social Networking Website https://t.co/e7NIum1aDw #cyberattack
p524
sg11
g8
sba(iObject
Object
p525
(dp526
g5
S'683001835817308160'
p527
sg7
S'737'
p528
sg9
VRT @missambear: honestly can\u2019t believe this is the last meme of 2015 https://t.co/t0EdCQgsDq
p529
sg11
g8
sba(iObject
Object
p530
(dp531
g5
S'682444403676336128'
p532
sg7
g8
sg9
VRest in peace #Ian Murdock #Debian #Opensource
p533
sg11
g26
sba(iObject
Object
p534
(dp535
g5
S'677509845650694145'
p536
sg7
g8
sg9
VLimited edition Star Wars cardboard \U0001f600\U0001f604\u000a#asksundar #google https://t.co/K1Qs9faNJR
p537
sg11
g26
sba(iObject
Object
p538
(dp539
g5
S'677489316038340610'
p540
sg7
g8
sg9
VAwesome day! \u000a#asksundar #google #nofilter @ Shri Ram College of\u2026 https://t.co/iE2GJgYeJU
p541
sg11
g8
sba(iObject
Object
p542
(dp543
g5
S'677485514992189440'
p544
sg7
S'1345'
p545
sg9
VRT @bhogleharsha: Here's one view of the selfie with @sundarpichai. This 360deg selfie is quite something. https://t.co/0NAf1TJ6v0
p546
sg11
g8
sba(iObject
Object
p547
(dp548
g5
S'675302640943632384'
p549
sg7
S'13'
p550
sg9
VRT @unix_root: Terrifying... This Hacker-Friendly #SearchEngine Finds and Lists Every Internet-Connected https://t.co/AH10J01AUc https://t.\u2026
p551
sg11
g8
sba(iObject
Object
p552
(dp553
g5
S'675032923830120448'
p554
sg7
g8
sg9
V@JeroenDruwe Thanks! :)
p555
sg11
g8
sba(iObject
Object
p556
(dp557
g5
S'674886689580408832'
p558
sg7
g8
sg9
V@JeroenDruwe @themeteorchef This is so cool! How to get these stickers? :D
p559
sg11
g26
sba(iObject
Object
p560
(dp561
g5
S'674578819274027008'
p562
sg7
g8
sg9
VI am hacking at #IndiaHacks. Join me  https://t.co/qQJTB5Xt54  #iamhacker via @HackerEarth
p563
sg11
g15
sba(iObject
Object
p564
(dp565
g5
S'674493012743880705'
p566
sg7
S'43'
p567
sg9
VRT @ncilla: Yeah so I'm calling bs on this whole #SatoshiNakamoto story. Excellent article @kashhill \U0001f44c https://t.co/ezkhUgrnun #bitcoin
p568
sg11
g8
sba(iObject
Object
p569
(dp570
g5
S'670134612765478912'
p571
sg7
S'624'
p572
sg9
VRT @CW_Arrow: Heroes join forces to stand against an immortal threat on the #FlashxArrow crossover, presented by @ATT. https://t.co/LFFYHAR\u2026
p573
sg11
g8
sba(iObject
Object
p574
(dp575
g5
S'669607908540203009'
p576
sg7
S'13030'
p577
sg9
VRT @MKBHD: #DopeTech Giveaway: RT and follow @MKBHD and @dbrandSkins to enter to win these! 4 winners. 48 hours. Good luck! https://t.co/Y5\u2026
p578
sg11
g8
sba(iObject
Object
p579
(dp580
g5
S'662000659135201280'
p581
sg7
g8
sg9
VGet free dev stickers! Receive 4 stickers of your choice for free, worldwide!\u000ahttps://t.co/8jloyIR6gx
p582
sg11
g15
sba(iObject
Object
p583
(dp584
g5
S'657635012838338560'
p585
sg7
g26
sg9
VEnter the contest and win the best Bluetooth speaker "ZOOOK ROCKER 2" https://t.co/rRlEtpd584
p586
sg11
g26
sba(iObject
Object
p587
(dp588
g5
S'624106773654466560'
p589
sg7
g8
sg9
VIt's time to show off your acting skills! Sync your lips to any dubsmash video and win SPYKAR\u2026 https://t.co/3dkzsxyhSk
p590
sg11
g26
sba(iObject
Object
p591
(dp592
g5
S'608295208195915777'
p593
sg7
g8
sg9
VBroke a seed. Found an almond in it! \U0001f602\U0001f62e\U0001f600 https://t.co/9I8VS4qtUz
p594
sg11
g8
sba(iObject
Object
p595
(dp596
g5
S'603220578275753984'
p597
sg7
g8
sg9
VEsya's back! Yay! B| https://t.co/Uhv6SMX2NE
p598
sg11
g8
sba(iObject
Object
p599
(dp600
g5
S'603220124191956992'
p601
sg7
g8
sg9
V@iNamanGupta lol :P
p602
sg11
g8
sba(iObject
Object
p603
(dp604
g5
S'507552337611616256'
p605
sg7
g8
sg9
V@Avleen2295 :D
p606
sg11
g8
sbasS'bhavna_nagpal'
p607
(lp608
(iObject
Object
p609
(dp610
g5
S'963463404009730048'
p611
sg7
g8
sg9
V@UberINSupport  your guwahati drivers suck! With tactics and tricks they surely know how to make our life hell. What use is uber now!
p612
sg11
g8
sba(iObject
Object
p613
(dp614
g5
S'951784068424675330'
p615
sg7
g8
sg9
V@ZoomCarIndia Yes. It has been resolved. Thanks !
p616
sg11
g26
sba(iObject
Object
p617
(dp618
g5
S'951759207702736896'
p619
sg7
g8
sg9
V@ZoomCarIndia another 2 hours waiting for the replacement ! \U0001f44f\U0001f3fb\U0001f44f\U0001f3fb 30 mins of waiting for exec on call! We are not gi\u2026 https://t.co/wsqNLPNz1l
p620
sg11
g8
sba(iObject
Object
p621
(dp622
g5
S'951738475048353792'
p623
sg7
g8
sg9
V@ZoomCarIndia I don't get it how your organisation functions when it is supposed to makes our lives easy and now it\u2026 https://t.co/SWT9aUXvCl
p624
sg11
g8
sba(iObject
Object
p625
(dp626
g5
S'951734641035165696'
p627
sg7
g8
sg9
V@ZoomCarIndia I am not accepting that sorry! I have heard it a lot. Make it up by sending the car and tow service A\u2026 https://t.co/aDJkIKGY7G
p628
sg11
g8
sba(iObject
Object
p629
(dp630
g5
S'951733479116386304'
p631
sg7
g8
sg9
V@ZoomCarIndia way to go! Bravo ! You managed to make us wait 4 hours by saying 10-10 mins for tow and car change ! Really happy \U0001f621\U0001f621
p632
sg11
g8
sba(iObject
Object
p633
(dp634
g5
S'948132926427820032'
p635
sg7
S'1734'
p636
sg9
VRT @XplodingUnicorn: My 7-year-old asked for her first alarm clock for Christmas.\u000a\u000aWe just got it set up.\u000a\u000aI've never seen someone so happy\u2026
p637
sg11
g8
sba(iObject
Object
p638
(dp639
g5
S'946834515476889600'
p640
sg7
S'12'
p641
sg9
VRT @codechef: When HTML is your life #CodeChef #ProgrammersHumor\u000avia: https://t.co/fumHvgrhsQ https://t.co/jgaPjzLgJ7
p642
sg11
g8
sba(iObject
Object
p643
(dp644
g5
S'946477853511520256'
p645
sg7
g8
sg9
VWhat is with @instagram saving copies over and over in gallery in background - retrying to send a video that did no\u2026 https://t.co/QjrKErwat6
p646
sg11
g8
sba(iObject
Object
p647
(dp648
g5
S'926465451370037248'
p649
sg7
S'133'
p650
sg9
VRT @AcademicsSay: #AcademicHalloween https://t.co/dCQAg1X69w
p651
sg11
g8
sba(iObject
Object
p652
(dp653
g5
S'926463617074999298'
p654
sg7
g8
sg9
V@agrawalamod Only after we've lost our dead bits can we find the space to spring and be alive again
p655
sg11
g15
sba(iObject
Object
p656
(dp657
g5
S'921437613948465152'
p658
sg7
S'515'
p659
sg9
VRT @abhishekmgupta: The alarming situation that we are in right now. AQI in India as compared to the world around us. https://t.co/G5Q5h9By\u2026
p660
sg11
g8
sba(iObject
Object
p661
(dp662
g5
S'911069622702505984'
p663
sg7
g8
sg9
V@airtel_presence what use is this 4G symbol when I couldn\u2019t make internet help me book a cab even in 30 minutes
p664
sg11
g8
sba(iObject
Object
p665
(dp666
g5
S'910743210858733568'
p667
sg7
g8
sg9
V@airtel_presence what use is this 4G symbol when I couldn\u2019t make internet help me book a cab even in 30 minutes
p668
sg11
g8
sba(iObject
Object
p669
(dp670
g5
S'910235660274958336'
p671
sg7
g74
sg9
VRT @ponguru: Co-organizing Winter School on User Experience Design @IIITDelhi, Dec 4 - 9. Registration open at https://t.co/mW24BpE5MI #HCI\u2026
p672
sg11
g8
sba(iObject
Object
p673
(dp674
g5
S'907631747562655745'
p675
sg7
g8
sg9
V"Unusable software increases task completion time, which decreases productivity"https://t.co/PvkJFVPKT8 - @stackelberg
p676
sg11
g8
sba(iObject
Object
p677
(dp678
g5
S'906884522079170560'
p679
sg7
g8
sg9
V@Airtel_Presence no outgoing and access to mobile data :/ \u000aIncoming works fine!
p680
sg11
g8
sba(iObject
Object
p681
(dp682
g5
S'905881778019237889'
p683
sg7
g8
sg9
Vmore you visit your projects, better you know and appreciate them. https://t.co/WPlWmIXZtu\u000aThanks to @ponguru  for dhcs 2016!!! :")
p684
sg11
g15
sba(iObject
Object
p685
(dp686
g5
S'904964263977992193'
p687
sg7
g8
sg9
V@ChrisSpalton is so cooool! Definitely trying this method sometime soon :') https://t.co/T8GAFC8ENG
p688
sg11
g26
sba(iObject
Object
p689
(dp690
g5
S'904743238019432448'
p691
sg7
g26
sg9
VRT @ponguru: .@bhavna_nagpal #PrecogAlum #Classof2017 blogs \u201cPages from a chapter called Precog\u201c https://t.co/jdJ2gCkn4y Currently @_iitg S\u2026
p692
sg11
g8
sba(iObject
Object
p693
(dp694
g5
S'902995715114246144'
p695
sg7
g8
sg9
V@agrawalamod SO TRUE! I was taken aback for a moment when I met a few because they looked nothing like the pictures :P
p696
sg11
g26
sba(iObject
Object
p697
(dp698
g5
S'902102548563329025'
p699
sg7
g8
sg9
V'Be critical of everything as a designer, that is when you start looking for solutions everywhere.' #whattheprofsaid #Designmethods #amaze
p700
sg11
g28
sba(iObject
Object
p701
(dp702
g5
S'901845608884867076'
p703
sg7
g8
sg9
V@ThislsGorgeous \U0001f60d\U0001f60d\U0001f60d where is this?
p704
sg11
g26
sba(iObject
Object
p705
(dp706
g5
S'901786344040652800'
p707
sg7
g74
sg9
VIt is okay to fail in the beginning, because we\u2019ll just never get it right on our first try. And isn't that what Design Thinking is about?
p708
sg11
S'10'
p709
sba(iObject
Object
p710
(dp711
g5
S'896519557795401728'
p712
sg7
g8
sg9
V@ozchi24 registration for submission not working?
p713
sg11
g8
sba(iObject
Object
p714
(dp715
g5
S'896213199896367104'
p716
sg7
g8
sg9
V#ozchi24 #ozchi\u000abrainstorming in process - getting in the groove to sharing what we think on a topic about "sharing\u2026 https://t.co/GoAUPjWkVE
p717
sg11
g74
sba(iObject
Object
p718
(dp719
g5
S'895642553009135616'
p720
sg7
g8
sg9
V@Airtel_Presence Why say you'd service it with a priority when you really won't -.- yet another day of no connection
p721
sg11
g8
sba(iObject
Object
p722
(dp723
g5
S'895321698043437056'
p724
sg7
g8
sg9
V@Airtel_Presence yes, please. I have DMed the details. Please look into it. It's hampering my work.
p725
sg11
g8
sba(iObject
Object
p726
(dp727
g5
S'895319571757899776'
p728
sg7
g8
sg9
V@airtelindia @Airtel_Presence what does it take to get proper service? And 4G hotspot connection around here?
p729
sg11
g8
sba(iObject
Object
p730
(dp731
g5
S'894937557867216900'
p732
sg7
g8
sg9
V@airtelindia and @airtel_presence please help with 4G hotspot! Hampering with workflow now :/
p733
sg11
g8
sba(iObject
Object
p734
(dp735
g5
S'891650186660921346'
p736
sg7
g8
sg9
V@DTDCIndia Is this how you serve your customers and what kind of thiefs do you employyyyy! I want my package! (3)
p737
sg11
g8
sba(iObject
Object
p738
(dp739
g5
S'891650131971391488'
p740
sg7
g8
sg9
V@DTDCIndia boy - he disappears without helping - number now invalid! Filed customer care complaint no reply! (2)
p741
sg11
g8
sba(iObject
Object
p742
(dp743
g5
S'891650057497268224'
p744
sg7
g8
sg9
V@DTDCIndia WHAT A SHITTTY SERVICE! WTH IS THIS! My package delivered to god knows who! And now somehow I got hold of delivery (1)
p745
sg11
g8
sba(iObject
Object
p746
(dp747
g5
S'891378743020724224'
p748
sg7
g8
sg9
V@airtelindia v impressed with new dashboard flow for accounts.No distractions,bold call to actions!Lil sad wid necessary id bt great design!
p749
sg11
g8
sba(iObject
Object
p750
(dp751
g5
S'891232677680087040'
p752
sg7
g8
sg9
V@DTDCSupport help me find my package ! \U0001f621 calling regional office for hours - always busy, now mailed also!
p753
sg11
g8
sba(iObject
Object
p754
(dp755
g5
S'891200341307305985'
p756
sg7
g8
sg9
V@SaloniKogta Just like long strings in pyjamas!! :P
p757
sg11
g15
sba(iObject
Object
p758
(dp759
g5
S'891200048448421888'
p760
sg7
g8
sg9
Vbad experience with @DTDCIndia service. Rcvd no call now tracking shows delivered. Pckg not to be found :(
p761
sg11
g8
sba(iObject
Object
p762
(dp763
g5
S'886268044493770753'
p764
sg7
g8
sg9
V@IndiGo6E But students joining college don't have id card. M bringing fwd that this allowance offer should consider that lot too.
p765
sg11
g8
sba(iObject
Object
p766
(dp767
g5
S'886237818825056257'
p768
sg7
g8
sg9
V@SaloniKogta WOWWW! So cooool man :D
p769
sg11
g26
sba(iObject
Object
p770
(dp771
g5
S'886233339417337857'
p772
sg7
g8
sg9
V@IndiGo6E What about students joining college? This is when we require the "extra baggage allowance" the mosttt! \U0001f610\U0001f641
p773
sg11
g8
sba(iObject
Object
p774
(dp775
g5
S'881868798571106307'
p776
sg7
g8
sg9
V@agrawalamod or maybee, how strong you are instead? :P
p777
sg11
g26
sba(iObject
Object
p778
(dp779
g5
S'881868666198835200'
p780
sg7
g8
sg9
V@SaloniKogta Have a great timeee, Saloni!! :D
p781
sg11
g26
sba(iObject
Object
p782
(dp783
g5
S'881209658274271232'
p784
sg7
g8
sg9
V@squarelovin how to refresh stats? Insta account shows last nights analytics :/
p785
sg11
g8
sba(iObject
Object
p786
(dp787
g5
S'854115943961640960'
p788
sg7
g8
sg9
V@shivammax @SenguptaSrishti WOW. This was really beautiful! &lt;3
p789
sg11
g8
sba(iObject
Object
p790
(dp791
g5
S'854114921692282880'
p792
sg7
g8
sg9
Vhttps://t.co/FmnnwOFgGK Mind blowing support from @GoogleDesign for @materialdesign has just arrived. &amp; with a pretty bow on the package! :)
p793
sg11
g8
sba(iObject
Object
p794
(dp795
g5
S'850265138942717957'
p796
sg7
g8
sg9
V\u201cFind One Person Who Gives A Shit. The Rest Is Easy.\u201d by @Jonwestenberg https://t.co/EJLW29eTJS https://t.co/e85c8oDnyA
p797
sg11
g26
sba(iObject
Object
p798
(dp799
g5
S'838319239081533440'
p800
sg7
g74
sg9
VRT @shashanksahayy: \u201cUltimate Resource List for Mobile UX Design\u201d by Joanna Ngai https://t.co/wHr362Acku
p801
sg11
g8
sba(iObject
Object
p802
(dp803
g5
S'830148982923878400'
p804
sg7
g8
sg9
V@shivammax WHY NOT! Take a sheet of grid paper or make one for yourself! It's great to see how you've been doing!
p805
sg11
g8
sba(iObject
Object
p806
(dp807
g5
S'830148106515668993'
p808
sg7
g8
sg9
V@shivammax *TEEHEE* thankkkks :')
p809
sg11
g8
sba(iObject
Object
p810
(dp811
g5
S'830137910150123520'
p812
sg7
g8
sg9
V@shivammax I got back home so I thought I'll show you my bujo's year in pixels! :') https://t.co/KvcjLZyWBQ
p813
sg11
g15
sba(iObject
Object
p814
(dp815
g5
S'829622286726541312'
p816
sg7
g8
sg9
V@shivammax IT IS !!! I started it this year for tracking my year :') it feels great to see it in color
p817
sg11
g8
sba(iObject
Object
p818
(dp819
g5
S'826881207300337667'
p820
sg7
S'577'
p821
sg9
VRT @jmspool: Design is not being creative.\u000a\u000aIt's solving hard problems. \u000a\u000aYou may come to a creative solution, but only after you've done t\u2026
p822
sg11
g8
sba(iObject
Object
p823
(dp824
g5
S'826879222878662659'
p825
sg7
g8
sg9
V@iamsrk is so funny on @AllIndiaBakchod podcasts! WOW! \U0001f60d Delhiwalla love! #HelpTheGaalis
p826
sg11
g15
sba(iObject
Object
p827
(dp828
g5
S'821772321786503169'
p829
sg7
g8
sg9
V@PizzaHutIN 2 hours and still waiting \U0001f621\U0001f621\U0001f621 never expected this!
p830
sg11
g8
sba(iObject
Object
p831
(dp832
g5
S'801776315430862848'
p833
sg7
S'152'
p834
sg9
VRT @evernote: Focus on finishing what you've started and your workload won't be as heavy. \U0001f4dd #WednesdayWisdom https://t.co/SkBJn8c70B
p835
sg11
g8
sba(iObject
Object
p836
(dp837
g5
S'799426706486358016'
p838
sg7
g15
sg9
VRT @UXJobsBoard: #ux Quote of the Day: "If you don't talk to your customers, how will you know how to..." @semanticwill https://t.co/xwa19O\u2026
p839
sg11
g8
sba(iObject
Object
p840
(dp841
g5
S'798604422897025024'
p842
sg7
g8
sg9
V@shivammax OOOOOH! Yes yesss! Someday \U0001f60d
p843
sg11
g8
sba(iObject
Object
p844
(dp845
g5
S'796088877974855680'
p846
sg7
g28
sg9
VRT @UXJobsBoard: #ux Quote of the Day: "Usability is not a quality that can be spread out to cover a poor..." https://t.co/xrUJZirr80
p847
sg11
g8
sba(iObject
Object
p848
(dp849
g5
S'784738261998501889'
p850
sg7
g8
sg9
V"Developing your own process is almost as important as developing your own design style." via @InVisionApp
p851
sg11
g8
sba(iObject
Object
p852
(dp853
g5
S'784064106428895233'
p854
sg7
g8
sg9
V@Ozchi2016 when will the result of ozchi24 Student Design Challenge be out? \u000a#waitingForLong
p855
sg11
g8
sba(iObject
Object
p856
(dp857
g5
S'784063797887545344'
p858
sg7
g8
sg9
V&lt;3 &lt;3 https://t.co/zu7D9vQJ9S
p859
sg11
g8
sba(iObject
Object
p860
(dp861
g5
S'783401033863077890'
p862
sg7
g8
sg9
V@GuestHouser I want to contact the host ! How to do it? It says Cash on Arrival is available but doesn't give option while booking :/
p863
sg11
g8
sba(iObject
Object
p864
(dp865
g5
S'781646831553949696'
p866
sg7
g8
sg9
VI discovered my Patronus is a Wildcat on J.K. Rowling\u2019s @pottermore. Well that was unexpected.  #ExpectoPatronum
p867
sg11
g15
sba(iObject
Object
p868
(dp869
g5
S'781014265117437952'
p870
sg7
g8
sg9
V@ozchi24 will the results of student design challenge be out today?
p871
sg11
g8
sba(iObject
Object
p872
(dp873
g5
S'780879231160979456'
p874
sg7
g8
sg9
V.@vijayanpinarayi @drthomasisaac Only 1% away! Include migrant workers &amp; make Kerala ODF by #WorldToiletDay #TheLastMile #GlobalCitizenIndia
p875
sg11
g8
sba(iObject
Object
p876
(dp877
g5
S'780125816122245120'
p878
sg7
g8
sg9
V@SaloniKogta hahahah. My bet was on a new intern making it \U0001f648\U0001f648 but a hackathon could be it !
p879
sg11
g8
sba(iObject
Object
p880
(dp881
g5
S'780124678065037312'
p882
sg7
g8
sg9
V@SaloniKogta YEAH! Totally agree. Plus the buttons and profile pages made me feel like a new Android developer made it.
p883
sg11
g26
sba(iObject
Object
p884
(dp885
g5
S'780123941704577024'
p886
sg7
g8
sg9
V@SaloniKogta even I downloaded it for like a day n I was not impressed. Smart replies were good for small talk ! :/
p887
sg11
g8
sba(iObject
Object
p888
(dp889
g5
S'779748112319459328'
p890
sg7
g8
sg9
V@BidkarAkash yeah! Got mine! Thanks :)
p891
sg11
g8
sba(iObject
Object
p892
(dp893
g5
S'779682536909774848'
p894
sg7
g8
sg9
V@bookmyshow_sup can I change the name of my +1 for #GlobalCitizenIndia tickets later ?
p895
sg11
g8
sba(iObject
Object
p896
(dp897
g5
S'779642883414425600'
p898
sg7
g8
sg9
V@bookmyshow_sup yayie! Got the mail! Thanks a lot. How much time do I have now to use the url to book?
p899
sg11
g8
sba(iObject
Object
p900
(dp901
g5
S'779605921022418949'
p902
sg7
g8
sg9
V@glblctznIN I won two tickets yesterday. By when can I expect a @bookmyshow_sup mail? CAN'T WAIT! #GlobalCitizenIndia
p903
sg11
g8
sba(iObject
Object
p904
(dp905
g5
S'779595957990068224'
p906
sg7
g74
sg9
VRT @IIITDelhi: We are organising a technical talk on Monday, 26 Sept by DreamWorks Animation on Animation Film Making &amp; \u000a\u000aOpen for all http\u2026
p907
sg11
g8
sba(iObject
Object
p908
(dp909
g5
S'779387420164788224'
p910
sg7
g8
sg9
V@panku_ yesss :)
p911
sg11
g8
sba(iObject
Object
p912
(dp913
g5
S'779387113661837312'
p914
sg7
g8
sg9
VJust won two tickets to #GlobalCitizenIndia ! WUHUUU! My head is full of dreammmmms \U0001f60d https://t.co/nLYL5q5wsP
p915
sg11
g15
sba(iObject
Object
p916
(dp917
g5
S'779378831496884225'
p918
sg7
g8
sg9
VI just won GC Festival Tickets! When can I expect to get an email from @bookmyshow_sup ?
p919
sg11
g8
sba(iObject
Object
p920
(dp921
g5
S'779021525068283904'
p922
sg7
g8
sg9
V@TheHostelCrowd why just groups of 4! We are a large group and would have loved to stay at one of the quirky hostels :)
p923
sg11
g8
sba(iObject
Object
p924
(dp925
g5
S'778928796468596736'
p926
sg7
g8
sg9
V@SaloniKogta I Agree! It happens all the time man! And it's so frustrating that you can't even prevent it :/
p927
sg11
g26
sba(iObject
Object
p928
(dp929
g5
S'778603086554144768'
p930
sg7
g8
sg9
VThis is an amazing feature https://t.co/yY1wXrcO6H #invision #sketch
p931
sg11
g8
sba(iObject
Object
p932
(dp933
g5
S'776425964691525632'
p934
sg7
g8
sg9
V#Assistantai\u000aMy personal assistant. Amazing application https://t.co/wIiCjIHKqo
p935
sg11
g8
sba(iObject
Object
p936
(dp937
g5
S'776397345176944641'
p938
sg7
g8
sg9
VHead to globalcitizen.in &amp; know about how to take action for a better future #IAmAGlobalCitizen #GlobalCitizenIndia https://t.co/wuZoRHDHhh
p939
sg11
g28
sba(iObject
Object
p940
(dp941
g5
S'776392775734484997'
p942
sg7
g8
sg9
V@bookmyshow when is the next ticket sale? &lt;3
p943
sg11
g8
sba(iObject
Object
p944
(dp945
g5
S'775200044152651777'
p946
sg7
g8
sg9
VEnsure a better future by signing this petition to the Chief Ministers of India! https://t.co/c1XwCrK8Y3 #globalcitizen
p947
sg11
g8
sba(iObject
Object
p948
(dp949
g5
S'775199464923561986'
p950
sg7
g26
sg9
VI believe that change starts with me! #ShuruaatHoonMain #GlobalCitizenIndia
p951
sg11
g26
sba(iObject
Object
p952
(dp953
g5
S'774217050218725376'
p954
sg7
g8
sg9
VIf this was for a Delhi performance I would've cried,but it is for Mumbai. So HA HA HA Mumbaiiii! \U0001f602\U0001f602\U0001f602 https://t.co/36xUAJ7RFx
p955
sg11
g8
sba(iObject
Object
p956
(dp957
g5
S'769633973999919104'
p958
sg7
g26
sg9
VWhen it hits you that you're next to leave. Will miss this beautiful place \U0001f62d @IIITDelhi https://t.co/7zgaH0YCjv
p959
sg11
g124
sba(iObject
Object
p960
(dp961
g5
S'767014253761032192'
p962
sg7
g26
sg9
VRT @ozchi24: Team Experientia wins Mini Challenge 2! Congrats! The Honorable Mention goes to Team Blackbox, Bluequince, Tessellations, and\u2026
p963
sg11
g8
sba(iObject
Object
p964
(dp965
g5
S'767013083768389632'
p966
sg7
g8
sg9
VWith Mini Challenge 3 done, it's time for little relaxing. :') #ozchi24 #design challenge https://t.co/JLLIZ85Hof
p967
sg11
g74
sba(iObject
Object
p968
(dp969
g5
S'766945449785909248'
p970
sg7
g8
sg9
V@ozchi24 it says 7 hrs left ! \U0001f633\U0001f633\U0001f648 and we all went 'like whaaaa' \U0001f648\U0001f61d
p971
sg11
g8
sba(iObject
Object
p972
(dp973
g5
S'766893725725450241'
p974
sg7
g8
sg9
VDesign and Brainstorming @ OZChi student design competition #ozchi24 #design #hci https://t.co/ccZ8Gb4z7C
p975
sg11
g8
sba(iObject
Object
p976
(dp977
g5
S'766554060707160064'
p978
sg7
g74
sg9
VRT @ponguru: Empowering students! Robosoccer and Robowars @EsyaIIITD @IIITDelhi @sahar_siddiqui @bhavna_nagpal https://t.co/ZRdEPQYlnY
p979
sg11
g8
sba(iObject
Object
p980
(dp981
g5
S'761796823522631680'
p982
sg7
g8
sg9
VDelhi Mini Maker Faire and little kids rocking it! One is even aged 12 #iiitd #delhimakers https://t.co/gTseQiAK5F
p983
sg11
g15
sba(iObject
Object
p984
(dp985
g5
S'759705477693317121'
p986
sg7
g8
sg9
V"Understand how to design for personalization\u2014but do it without being creepy" https://t.co/lxvl22HB4a via @InVisionApp
p987
sg11
g8
sba(iObject
Object
p988
(dp989
g5
S'758329690838949888'
p990
sg7
S'3511'
p991
sg9
VRT @9GAG: 2016, ladies and gentleman! #PokemonGO\u000ahttps://t.co/BJ4eHafSDI https://t.co/zV7MMFAXTZ
p992
sg11
g8
sba(iObject
Object
p993
(dp994
g5
S'758011019432226817'
p995
sg7
g8
sg9
VCreated a website portfolio. https://t.co/YJKAvoUTkt . Feedback welcome \U0001f60c\U0001f60a
p996
sg11
g128
sba(iObject
Object
p997
(dp998
g5
S'755632490681864192'
p999
sg7
g8
sg9
V@SaloniKogta WOAAHHH partyyyy de
p1000
sg11
g26
sba(iObject
Object
p1001
(dp1002
g5
S'754177442718384128'
p1003
sg7
S'12'
p1004
sg9
VRT @hackerrank: #HackerRankandChill https://t.co/QFiDGjVN0Y
p1005
sg11
g8
sba(iObject
Object
p1006
(dp1007
g5
S'754035879245651968'
p1008
sg7
g8
sg9
VShould be user"wants". You analyse what he wants.  https://t.co/VMcKwmTKAp
p1009
sg11
g8
sba(iObject
Object
p1010
(dp1011
g5
S'753986948071579648'
p1012
sg7
g26
sg9
VBOGO and no sauce. Never thought I would not like the Roman Veg @dominos_india  :/ https://t.co/5cjANedVy5
p1013
sg11
g15
sba(iObject
Object
p1014
(dp1015
g5
S'753117908772028416'
p1016
sg7
g8
sg9
V\U0001f4f9 Half of our brain is hardwired for vision https://t.co/6lnIOhoGn3 *MindBlown*
p1017
sg11
g26
sba(iObject
Object
p1018
(dp1019
g5
S'753106771925987329'
p1020
sg7
g8
sg9
V"Every time you use the term UI/UX, a pretty bird dies somewhere!" https://t.co/9pYOujwqNb by @kshitiz on @LinkedIn
p1021
sg11
g26
sba(iObject
Object
p1022
(dp1023
g5
S'752937064673505280'
p1024
sg7
g8
sg9
V"Not surprisingly, hiring UX designers is difficult." https://t.co/r4nALqIVCB via @InVisionApp
p1025
sg11
g8
sba(iObject
Object
p1026
(dp1027
g5
S'751497069043585024'
p1028
sg7
g8
sg9
VColordrop.io : the newly found gem :')
p1029
sg11
g8
sba(iObject
Object
p1030
(dp1031
g5
S'750741027573624832'
p1032
sg7
g8
sg9
VI would want this when I've been trying to share @Adobe Color Pallete for a day. (Take a hint :D ) https://t.co/g7R9ul4Woc
p1033
sg11
g8
sba(iObject
Object
p1034
(dp1035
g5
S'750740463427125248'
p1036
sg7
g74
sg9
VRT @IIITDelhi: Aditya Jain's project GIS Mapping under the guidance of Dr. P.B. Sujit has mapped the entire campus of IIIT-Delhi \u000ahttps://t\u2026
p1037
sg11
g8
sba(iObject
Object
p1038
(dp1039
g5
S'750740282296205312'
p1040
sg7
g8
sg9
V@SaloniKogta wuhuuuu girl. :D be ready to be amazed :P
p1041
sg11
g26
sba(iObject
Object
p1042
(dp1043
g5
S'746773567690383360'
p1044
sg7
g8
sg9
V@SaloniKogta such a nerd, youuu! \U0001f648\U0001f61d
p1045
sg11
g8
sba(iObject
Object
p1046
(dp1047
g5
S'744630954896003072'
p1048
sg7
g8
sg9
VAnd that is not an easy part. \U0001f605 https://t.co/0rdCtVNuDN
p1049
sg11
g8
sba(iObject
Object
p1050
(dp1051
g5
S'744630842874564608'
p1052
sg7
g26
sg9
VRT @rachelnabors: When did I become a senior. \u000a\u000aWhen did this happen. \u000a\u000aWhere did MY seniors go? \u000a\u000aHalp.
p1053
sg11
g8
sba(iObject
Object
p1054
(dp1055
g5
S'744533464628797440'
p1056
sg7
g8
sg9
V@HeritageTranspo is one precious gem still hidden away from the people. https://t.co/oQolxGWFcy\u000a#ifoundawesome
p1057
sg11
g26
sba(iObject
Object
p1058
(dp1059
g5
S'744448109313396736'
p1060
sg7
g8
sg9
V@ComedyCentralIn "Do your best and God will take care of the rest" #CCDaddyCool #dadism
p1061
sg11
g26
sba(iObject
Object
p1062
(dp1063
g5
S'744447430519840770'
p1064
sg7
g124
sg9
VRT @EsyaIIITD: Aug 19-20 will take you on a trip to the infinity and beyond and blow your minds away! https://t.co/RrUWEkonOa https://t.co/\u2026
p1065
sg11
g8
sba(iObject
Object
p1066
(dp1067
g5
S'744035011611996160'
p1068
sg7
g8
sg9
V@SaloniKogta this is so amazing ! \U0001f60d
p1069
sg11
g26
sba(iObject
Object
p1070
(dp1071
g5
S'744033310712692740'
p1072
sg7
g8
sg9
V@HackerEarth please have a meetup or learning session in Delhi too :/
p1073
sg11
g26
sba(iObject
Object
p1074
(dp1075
g5
S'744032926854160384'
p1076
sg7
g8
sg9
V@namanspace people who go to airport, go there to pickup/drop. They already have entry fee incase you go in; that should be for maintenance
p1077
sg11
g8
sba(iObject
Object
p1078
(dp1079
g5
S'743719197771915268'
p1080
sg7
g8
sg9
V@namanspace firstly, they should decrease the parking rates? I mean why is it SO expensive?
p1081
sg11
g8
sba(iObject
Object
p1082
(dp1083
g5
S'743693541436592129'
p1084
sg7
g8
sg9
VHeritageTransportMuseum is gold! #Ifoundawesome https://t.co/xns9GbIL73
p1085
sg11
g8
sba(iObject
Object
p1086
(dp1087
g5
S'741377931285520384'
p1088
sg7
g8
sg9
V"Any product that needs a manual to work is broken." \u2013Elon Musk\u000aLessons that take you to basics excite you all the more.
p1089
sg11
g26
sba(iObject
Object
p1090
(dp1091
g5
S'735150405831806976'
p1092
sg7
g8
sg9
VAirports should have a better system for waiting cars. Not expensive parking :/ #airports
p1093
sg11
g26
sba(iObject
Object
p1094
(dp1095
g5
S'734106940289232896'
p1096
sg7
g74
sg9
VRT @workgroupsdv: "Take everything in your mind and lay it out. Decide what you want your life to look like." @AyseBirselSeck #HOWLive http\u2026
p1097
sg11
g8
sba(iObject
Object
p1098
(dp1099
g5
S'732556565769687040'
p1100
sg7
g8
sg9
V@SmartthMehta @googlechrome @ChromeExp yeahhh! You should check out the rest projects too! Really cool.
p1101
sg11
g8
sba(iObject
Object
p1102
(dp1103
g5
S'732227243217432576'
p1104
sg7
g8
sg9
VDon't know how it will produce good sounds, but a really amazing project to check out :D https://t.co/C3ZKGlYDFl
p1105
sg11
g8
sba(iObject
Object
p1106
(dp1107
g5
S'726187323193483268'
p1108
sg7
g8
sg9
VTotally want to try this out sometime soon \U0001f648\U0001f648 https://t.co/Idu3Of3yLe
p1109
sg11
g26
sba(iObject
Object
p1110
(dp1111
g5
S'724942383721402368'
p1112
sg7
g8
sg9
VCheck out this awesome set of CSS3 animations for your website. Great Stuff. \u000ahttps://t.co/8q0LOwbVLl via @JXTN
p1113
sg11
g8
sba(iObject
Object
p1114
(dp1115
g5
S'723627991356571650'
p1116
sg7
g8
sg9
V@HOWbrand thankyouuu so much :)
p1117
sg11
g8
sba(iObject
Object
p1118
(dp1119
g5
S'723626804465000448'
p1120
sg7
S'12'
p1121
sg9
VRT @InVisionApp: Visual Planning For Designers https://t.co/wMKMMIk7yT by @anatinge https://t.co/9ejYncaB2j
p1122
sg11
g8
sba(iObject
Object
p1123
(dp1124
g5
S'723515279800717312'
p1125
sg7
g8
sg9
V@HOWbrand when is the 2016 HOW ID conf? :')
p1126
sg11
g8
sba(iObject
Object
p1127
(dp1128
g5
S'722294943461445632'
p1129
sg7
g8
sg9
VWhat are you using Bartr for ? #BBI2016 #CSE501  :) https://t.co/488kIFDBdN
p1130
sg11
g8
sba(iObject
Object
p1131
(dp1132
g5
S'722123822309056512'
p1133
sg7
g28
sg9
VRT @ponguru: Inspiring to see students of #CSE501 @IIITDelhi working on #BBI2016 at 2300hrs now! #collagediaries #StudentLife https://t.co/\u2026
p1134
sg11
g8
sba(iObject
Object
p1135
(dp1136
g5
S'721869759743160321'
p1137
sg7
g15
sg9
V#BBI2016 Preps in full swing :') it's the day of action. Crafting after so long thanks to #CSE501 and Prof @ponguru https://t.co/iy2TGVcpDh
p1138
sg11
g8
sba(iObject
Object
p1139
(dp1140
g5
S'721683566409687040'
p1141
sg7
g15
sg9
VLittle snippet from our App Teaser. Check us out at #BBI2016 #CSE501 https://t.co/oBo1xQGTOM
p1142
sg11
g8
sba(iObject
Object
p1143
(dp1144
g5
S'721683261769048065'
p1145
sg7
S'10'
p1146
sg9
VRT @InVisionApp: Meet the Chat UI Kit: 60 templates, 80 UI components and more\u2014yours free from InVision! https://t.co/R7dfPV1Ig9 https://t.\u2026
p1147
sg11
g8
sba(iObject
Object
p1148
(dp1149
g5
S'721673191983161345'
p1150
sg7
g74
sg9
VRT @ponguru: Superb projects, great teasers https://t.co/23yX3c6qdK Don't miss it! #BBI2016 #CSE501 #Design #Human #Computer #Interactions
p1151
sg11
g8
sba(iObject
Object
p1152
(dp1153
g5
S'711489495854546945'
p1154
sg7
g28
sg9
VWhat we share is more powerful than what divides us. Stand together for gender equality at  https://t.co/JKqVLLT6Rg #HeForShe
p1155
sg11
g26
sba(iObject
Object
p1156
(dp1157
g5
S'707990482576486400'
p1158
sg7
g8
sg9
VWant a free t-shirt from @InVisionApp? Sure you do. Enter for your chance to win: https://t.co/bZ2h8YY9EJ https://t.co/6xsfahQdLS
p1159
sg11
g8
sba(iObject
Object
p1160
(dp1161
g5
S'680245050626842624'
p1162
sg7
S'5944'
p1163
sg9
VRT @LensDistortions: We\u2019re giving away a 5D Mark III or A7S II - Winner's choice! Follow and RT. Details here:  https://t.co/t1I5Zmtw03 htt\u2026
p1164
sg11
g8
sba(iObject
Object
p1165
(dp1166
g5
S'622748342208999424'
p1167
sg7
g26
sg9
VRT @EsyaIIITD: 10 Reasons Why You Should Attend Esya\u201915 http://t.co/KaONj2oRhY via @bluegape
p1168
sg11
g8
sba(iObject
Object
p1169
(dp1170
g5
S'614184500298280960'
p1171
sg7
g8
sg9
VOne should always keep on trying new things which is why https://t.co/vn2qXS6jSc
p1172
sg11
g8
sba(iObject
Object
p1173
(dp1174
g5
S'613717325351645184'
p1175
sg7
g8
sg9
V'Cause when you have a sister who bakes, you don't have to think of what is that tasty thing you want\u2026 https://t.co/yx5u0YEIQp
p1176
sg11
g8
sba(iObject
Object
p1177
(dp1178
g5
S'613225641610055680'
p1179
sg7
S'24'
p1180
sg9
VRT @VH1: When your friend plays your favorite song through snap...\u000a\u000aUsername: VH1 on @SnapChat http://t.co/r4eFwREcIO
p1181
sg11
g8
sba(iObject
Object
p1182
(dp1183
g5
S'613060775029010432'
p1184
sg7
g8
sg9
Vgossipgirlfeed's photo https://t.co/bogigmMxiX 'Cause Blair always nails it ! \U0001f60d
p1185
sg11
g8
sba(iObject
Object
p1186
(dp1187
g5
S'603218845378060288'
p1188
sg7
g295
sg9
VRT @EsyaIIITD: Hello everyone, @EsyaIIITD at @IIITDelhi is back again, bigger and better than last year. RT and let your friends know about\u2026
p1189
sg11
g8
sba(iObject
Object
p1190
(dp1191
g5
S'603218778227257344'
p1192
sg7
g26
sg9
VRT @IIITDelhi: In recognition of our excellence @Dataquest_India ranks us at no. 7 in a nation wide survey on the best gov T-Schools http:/\u2026
p1193
sg11
g8
sba(iObject
Object
p1194
(dp1195
g5
S'515521187279929344'
p1196
sg7
g8
sg9
VI joined #Firefox SA to promote openness and innovation! #FirefoxStudents http://t.co/cNa2yBu5ga\u000aBe a part of this wonderful community.
p1197
sg11
g15
sba(iObject
Object
p1198
(dp1199
g5
S'477290564811886593'
p1200
sg7
g8
sg9
VYou have less than *10 Seconds* to capture a readers attention online. http://t.co/L7OiXaPqIn from @Alli
p1201
sg11
g8
sba(iObject
Object
p1202
(dp1203
g5
S'436473422332166145'
p1204
sg7
g8
sg9
VSikh Woman Harnaam Kaur Embraces Facial Hair Despite Bullying That Left Her Suicidal (VIDEO, ... http://t.co/W7m9tFiRPy via @HuffPoLifestyle
p1205
sg11
g8
sba(iObject
Object
p1206
(dp1207
g5
S'401596353047842816'
p1208
sg7
g8
sg9
VWhen you mix "Tequila and A Broken Heart" https://t.co/HksWl3fhrC
p1209
sg11
g8
sba(iObject
Object
p1210
(dp1211
g5
S'400595483795546112'
p1212
sg7
g8
sg9
VShare your screen and make any application collaborative with Screenhero! http://t.co/ixmqd1YA1U
p1213
sg11
g8
sba(iObject
Object
p1214
(dp1215
g5
S'397041414762024960'
p1216
sg7
g8
sg9
VThe Vampire Diaries Season 5 Episode 4 For Whom The Bell Tolls: http://t.co/xCh61ngJmU
p1217
sg11
g8
sba(iObject
Object
p1218
(dp1219
g5
S'391455553727516672'
p1220
sg7
g8
sg9
VThe night of our lives             #hoobastank #rendezvous #IIT #intoxicating http://t.co/wm1ONQkX08
p1221
sg11
g8
sba(iObject
Object
p1222
(dp1223
g5
S'384613446441918464'
p1224
sg7
S'5760'
p1225
sg9
VRT @iansomerhalder: 4 days LEFT till #TVD http://t.co/rOKhZVTBSF
p1226
sg11
g8
sba(iObject
Object
p1227
(dp1228
g5
S'384158604112433152'
p1229
sg7
g8
sg9
VHome :') (@ Sector 29) http://t.co/MwBuLg3MxI
p1230
sg11
g8
sba(iObject
Object
p1231
(dp1232
g5
S'381840184511172609'
p1233
sg7
g8
sg9
VBHAVNA NAGPAL has voted for Shymak Lamba on Clean &amp; Clear Delhi Times Freshface 2013.-http://t.co/feWF8bEDoV
p1234
sg11
g8
sbasS'protichibasak'
p1235
(lp1236
(iObject
Object
p1237
(dp1238
g5
S'969066013458223104'
p1239
sg7
g8
sg9
V@agrawalamod Padh le @agrawalamod
p1240
sg11
g26
sba(iObject
Object
p1241
(dp1242
g5
S'967721371609411585'
p1243
sg7
g8
sg9
V@krngrvr09 @agrawalamod That's what she said @krngrvr09 xD
p1244
sg11
g26
sba(iObject
Object
p1245
(dp1246
g5
S'967496179679465474'
p1247
sg7
g8
sg9
VIt's that time of the year when we sleep with a quilt, one foot out and fan switched on at full blast. \u000a\u000a#SummerIsComing
p1248
sg11
S'12'
p1249
sba(iObject
Object
p1250
(dp1251
g5
S'966900963079462913'
p1252
sg7
S'2399'
p1253
sg9
VRT @schmmuck: Justin Trudeau is trying so hard to be Indian, the next thing you know he'll have a plastic bag filled with plastic bags in h\u2026
p1254
sg11
g8
sba(iObject
Object
p1255
(dp1256
g5
S'966597380962308096'
p1257
sg7
S'1240'
p1258
sg9
VRT @randal_olson: When the person who stocks the #RaspberryPi magazines at the local supermarket doesn't know what a Raspberry Pi is. #prog\u2026
p1259
sg11
g8
sba(iObject
Object
p1260
(dp1261
g5
S'964180187297472512'
p1262
sg7
g8
sg9
VThe best part of going to the pediatrician for common flu is, she'd prescribe 5 ml shots of tasty colorful syrups.\u2026 https://t.co/hinjEmIW5p
p1263
sg11
g8
sba(iObject
Object
p1264
(dp1265
g5
S'963992488867332096'
p1266
sg7
g8
sg9
V@agrawalamod "Whatever happens, happens for the good"
p1267
sg11
g8
sba(iObject
Object
p1268
(dp1269
g5
S'963386491287232512'
p1270
sg7
g8
sg9
V@agarwal_a49 Your camera beautiful captured the beauty
p1271
sg11
g26
sba(iObject
Object
p1272
(dp1273
g5
S'963385977661042694'
p1274
sg7
g8
sg9
V@agarwal_a49 Totally bought it man!
p1275
sg11
g8
sba(iObject
Object
p1276
(dp1277
g5
S'956013151664902145'
p1278
sg7
g8
sg9
V@SaloniKogta Abuse of the privilege of free Oregano packets. Tchk tchk
p1279
sg11
g8
sba(iObject
Object
p1280
(dp1281
g5
S'955688094417666048'
p1282
sg7
S'486'
p1283
sg9
VRT @Gizmodo: China has already gene-edited 86 people with CRISPR. https://t.co/9EFjAVrInG https://t.co/sstQfatCzl
p1284
sg11
g8
sba(iObject
Object
p1285
(dp1286
g5
S'955686910801854465'
p1287
sg7
g295
sg9
VRT @qz: Your primer on how to talk about the \u201cfourth industrial revolution\u201d https://t.co/wN6K0hneko
p1288
sg11
g8
sba(iObject
Object
p1289
(dp1290
g5
S'955370346198126592'
p1291
sg7
g8
sg9
V@agrawalamod Bade shabd. Uchein khayal. Waah waah
p1292
sg11
g28
sba(iObject
Object
p1293
(dp1294
g5
S'953855657727311872'
p1295
sg7
g8
sg9
V@SaloniKogta Hahaha no. She is not reading it at the moment. This is my precious.
p1296
sg11
g8
sba(iObject
Object
p1297
(dp1298
g5
S'953850731420766208'
p1299
sg7
g8
sg9
VI have been reading this book lately. However this is the first time that every single person who reads the title o\u2026 https://t.co/dsx6rNmG6B
p1300
sg11
g26
sba(iObject
Object
p1301
(dp1302
g5
S'952579700899098624'
p1303
sg7
g8
sg9
VThe dentist (going gaga): WOW! You have perfect teeth, as if they are handcrafted.\u000aMe (thinking)\u2026 https://t.co/jEQbq6o8Xk
p1304
sg11
g8
sba(iObject
Object
p1305
(dp1306
g5
S'951311586265677824'
p1307
sg7
g8
sg9
V@darkryder_s Jira? They blocked Google!!! Someone  precisely had the right amount of free time to mess up real bad yesterday.
p1308
sg11
g26
sba(iObject
Object
p1309
(dp1310
g5
S'950347732291543041'
p1311
sg7
g26
sg9
VRT @krngrvr09: Of the varied threads of connection that can stretch between two people \u2014 threads of innumerable\u2026 https://t.co/j91viEPkR9
p1312
sg11
g8
sba(iObject
Object
p1313
(dp1314
g5
S'948834196125974528'
p1315
sg7
g8
sg9
V@TheWeirdWorld Recursion.
p1316
sg11
g8
sba(iObject
Object
p1317
(dp1318
g5
S'948424336611753985'
p1319
sg7
g8
sg9
V@_atulj I mastered day dreaming. #WonderWoman  #inmydreams
p1320
sg11
g8
sba(iObject
Object
p1321
(dp1322
g5
S'948423740773228544'
p1323
sg7
g8
sg9
V@SaloniKogta Delhi aa tu. Talwar se maar denge. Woh bhi metro mein.
p1324
sg11
g28
sba(iObject
Object
p1325
(dp1326
g5
S'944448223875231744'
p1327
sg7
g8
sg9
V@SaloniKogta Kaha hai? Dikh kyun nahi rahi. Itna smog hai kya?
p1328
sg11
g8
sba(iObject
Object
p1329
(dp1330
g5
S'942421665006231553'
p1331
sg7
g8
sg9
VReasons I have trust issues with my sister https://t.co/IM8BVlm3wF
p1332
sg11
g74
sba(iObject
Object
p1333
(dp1334
g5
S'940439474034450432'
p1335
sg7
g8
sg9
V@dontsayvelcro @SaloniKogta My whole childhood has been a lie #dontsayvelcro
p1336
sg11
g8
sba(iObject
Object
p1337
(dp1338
g5
S'940265323311202304'
p1339
sg7
g8
sg9
V@SaloniKogta Gola shoes. Action ka school time. #schooldays #goodOldDays
p1340
sg11
g26
sba(iObject
Object
p1341
(dp1342
g5
S'940186690437529600'
p1343
sg7
g8
sg9
V@SaloniKogta Alas ka pedh
p1344
sg11
g8
sba(iObject
Object
p1345
(dp1346
g5
S'939938109940162562'
p1347
sg7
S'5500'
p1348
sg9
VRT @TheWeirdWorld: The word \u201cnemo\u201d is Latin for \u201cnobody.\u201d So perhaps the eponymous character from Finding Nemo never existed. Nemo\u2019s father\u2026
p1349
sg11
g8
sba(iObject
Object
p1350
(dp1351
g5
S'937530541494059008'
p1352
sg7
g8
sg9
V@iamishitak If your uber driver plays jab lagavelu tu lipishtik, he's probably cooler than you
p1353
sg11
g8
sba(iObject
Object
p1354
(dp1355
g5
S'936984081128026113'
p1356
sg7
g8
sg9
VWhen I asked @Cortana to sing a song for me, she started singing #VandeMataram. Unexpected but awesome!!!\u2026 https://t.co/PpaLy9x4ol
p1357
sg11
g15
sba(iObject
Object
p1358
(dp1359
g5
S'936661210958663680'
p1360
sg7
g8
sg9
V@SaloniKogta Me too #ncrIzzMahLyfe
p1361
sg11
g8
sba(iObject
Object
p1362
(dp1363
g5
S'936661110802997248'
p1364
sg7
g26
sg9
VCame back home from office only to receive SO MANY SWAGS!!! Elated!\u000aThanks @RailsGirlsSoC for a perfect ending to a\u2026 https://t.co/P99kXp5eXF
p1365
sg11
g74
sba(iObject
Object
p1366
(dp1367
g5
S'936565157689511936'
p1368
sg7
g8
sg9
VGreat answer to end a great week and start an awesome weekend\u000a\u000aWhat is it like studying at an elite university? by\u2026 https://t.co/lmmGRrPVSu
p1369
sg11
g8
sba(iObject
Object
p1370
(dp1371
g5
S'936539646082760705'
p1372
sg7
g8
sg9
V@SaloniKogta Bangalore is our Las Vegas
p1373
sg11
g8
sba(iObject
Object
p1374
(dp1375
g5
S'934456086064590849'
p1376
sg7
g8
sg9
V@TheWeirdWorld But it wouldn't matter much, if it sounded like a fart
p1377
sg11
g8
sba(iObject
Object
p1378
(dp1379
g5
S'934451525555961856'
p1380
sg7
g8
sg9
V@krngrvr09 @agrawalamod Which place you ordered from? I'll make sure I never order from there
p1381
sg11
g8
sba(iObject
Object
p1382
(dp1383
g5
S'934450848972734465'
p1384
sg7
g8
sg9
V@SaloniKogta Hahahahaa
p1385
sg11
g8
sba(iObject
Object
p1386
(dp1387
g5
S'934037069487149056'
p1388
sg7
g8
sg9
V@SaloniKogta Yeah :p
p1389
sg11
g8
sba(iObject
Object
p1390
(dp1391
g5
S'933661389289267200'
p1392
sg7
S'27'
p1393
sg9
VRT @VentureBeat: It's time to solve deep learning's productivity problem https://t.co/jkAnVMV0HA
p1394
sg11
g8
sba(iObject
Object
p1395
(dp1396
g5
S'933034772732952576'
p1397
sg7
g8
sg9
V@SaloniKogta If you had to read the name before knowing what this place serves then @DunkinDonuts has clearly failed at its marketing
p1398
sg11
g8
sba(iObject
Object
p1399
(dp1400
g5
S'931710093854470144'
p1401
sg7
g8
sg9
VEnroute Prague! Walking the streets @3.30 am. Being a Delhi woman, this is the most memorable thing I can do in Ber\u2026 https://t.co/sfpZpvKGHO
p1402
sg11
g74
sba(iObject
Object
p1403
(dp1404
g5
S'931531906532986881'
p1405
sg7
g15
sg9
VAwesome meeting you @DajanaGuenther. This has been, by far the best and well organized conference I've been a part\u2026 https://t.co/LtxTY6z0cc
p1406
sg11
g408
sba(iObject
Object
p1407
(dp1408
g5
S'931510858139815936'
p1409
sg7
g8
sg9
V@sahoo_anwesh @prodyogeeky So sweet of you @sahoo_anwesh :) Thanks!
p1410
sg11
g26
sba(iObject
Object
p1411
(dp1412
g5
S'931174558077521921'
p1413
sg7
g28
sg9
VFirst day at #gotober. Felt awesome introducing @prodyogeeky and @OpenLMIS on stage today! https://t.co/e8oLId4mty
p1414
sg11
S'11'
p1415
sba(iObject
Object
p1416
(dp1417
g5
S'930910204606197761'
p1418
sg7
g8
sg9
V@agrawalamod I'm dissapointed
p1419
sg11
g8
sba(iObject
Object
p1420
(dp1421
g5
S'930685612809736192'
p1422
sg7
g8
sg9
V@nickreid @prodyogeeky @RailsGirlsSoC @OpenLMIS @GOTOber @Ng_0511 Hahaha thanks @nickreid
p1423
sg11
g8
sba(iObject
Object
p1424
(dp1425
g5
S'930350614239940608'
p1426
sg7
g15
sg9
VTeam @prodyogeeky enroute #Berlin to represent @RailsGirlsSoC and @OpenLMIS at @GOTOber https://t.co/mwq9vXT1y1
p1427
sg11
S'14'
p1428
sba(iObject
Object
p1429
(dp1430
g5
S'930348671102799873'
p1431
sg7
g8
sg9
VMoscow painted white. Snow snow everywhere!\u000a\u000a#triptoberlin #inTransit https://t.co/5AH3Xn7KMw
p1432
sg11
g28
sba(iObject
Object
p1433
(dp1434
g5
S'930204602099695616'
p1435
sg7
g8
sg9
VVirgin passport stamped with #schengenvisa\u000aTrip with the Bae-niya\u000a\u000a#firstinternationaltrip\u2026 https://t.co/hwEqKqsH6q
p1436
sg11
g28
sba(iObject
Object
p1437
(dp1438
g5
S'929574367578558464'
p1439
sg7
g8
sg9
V@SaloniKogta @YouTube Sambhar daal de uspe
p1440
sg11
g26
sba(iObject
Object
p1441
(dp1442
g5
S'929572972108509185'
p1443
sg7
g8
sg9
V@SaloniKogta @YouTube Toh idli kha le
p1444
sg11
g8
sba(iObject
Object
p1445
(dp1446
g5
S'926304400372461568'
p1447
sg7
g8
sg9
V@SaloniKogta @Gizmodo @agrawalamod I can afford Nes-cafe
p1448
sg11
g15
sba(iObject
Object
p1449
(dp1450
g5
S'924497173395398657'
p1451
sg7
g8
sg9
V@sundarpichai Works for me the either way..
p1452
sg11
g8
sba(iObject
Object
p1453
(dp1454
g5
S'924497061671682048'
p1455
sg7
S'17063'
p1456
sg9
VRT @sundarpichai: Will drop everything else we are doing and address on Monday:) if folks can agree on the correct way to do this! https://\u2026
p1457
sg11
g8
sba(iObject
Object
p1458
(dp1459
g5
S'923921793563312128'
p1460
sg7
g8
sg9
V@AksharPathak @SaloniKogta
p1461
sg11
g8
sba(iObject
Object
p1462
(dp1463
g5
S'923160937900552193'
p1464
sg7
g8
sg9
V@SaloniKogta @agrawalamod Tell the story
p1465
sg11
g8
sba(iObject
Object
p1466
(dp1467
g5
S'923039697294696449'
p1468
sg7
g8
sg9
V@SaloniKogta Saloni ki Jung: One woman army
p1469
sg11
g26
sba(iObject
Object
p1470
(dp1471
g5
S'923039396764327936'
p1472
sg7
g8
sg9
VMany times the obvious is not obvious at all\u000a\u000aWhat are good examples of misleading statistics? by Ilija Andrevski https://t.co/W8oBPa1238
p1473
sg11
g8
sba(iObject
Object
p1474
(dp1475
g5
S'922546892508033025'
p1476
sg7
g8
sg9
V@TheWeirdWorld @TheWeirdWorld  Isn't this incentive mechanism already in place in the form of scholarships?
p1477
sg11
S'13'
p1478
sba(iObject
Object
p1479
(dp1480
g5
S'921036350203207680'
p1481
sg7
g8
sg9
VA customary picture of a solitary diya burning it's ass off cuz it's #HappyDiwali https://t.co/vrm2eZNXSD
p1482
sg11
g8
sba(iObject
Object
p1483
(dp1484
g5
S'920526774236262401'
p1485
sg7
g8
sg9
V@SaloniKogta I forgot my water bottle at home today
p1486
sg11
g15
sba(iObject
Object
p1487
(dp1488
g5
S'920504202861907968'
p1489
sg7
S'45'
p1490
sg9
VRT @kaneezsurka: Sexual harassment isn't a crime only committed by a man against a woman. I know men who have been abused and women who hav\u2026
p1491
sg11
g8
sba(iObject
Object
p1492
(dp1493
g5
S'920503195805388802'
p1494
sg7
g8
sg9
VMorning inspiration... https://t.co/BcUxofbaag
p1495
sg11
g28
sba(iObject
Object
p1496
(dp1497
g5
S'920147850289283072'
p1498
sg7
g8
sg9
V@agrawalamod Bade log
p1499
sg11
g8
sba(iObject
Object
p1500
(dp1501
g5
S'919590125989806081'
p1502
sg7
g8
sg9
V@SaloniKogta Yup totally. One plus 5 has disappointed me.
p1503
sg11
g8
sba(iObject
Object
p1504
(dp1505
g5
S'919051632704348161'
p1506
sg7
g8
sg9
V@SaloniKogta Congrats!
p1507
sg11
g26
sba(iObject
Object
p1508
(dp1509
g5
S'918336861184991233'
p1510
sg7
g8
sg9
V@SaloniKogta @krngrvr09 That's so Delhi....ewwwww
p1511
sg11
g26
sba(iObject
Object
p1512
(dp1513
g5
S'918137749676240902'
p1514
sg7
g8
sg9
V@SaloniKogta "Jira kabhi use kiya hai"\u000aKogta: Sorry main nhi khaati
p1515
sg11
g26
sba(iObject
Object
p1516
(dp1517
g5
S'918026742236815360'
p1518
sg7
S'57'
p1519
sg9
VRT @IBM: The difference between Bitcoin and blockchain for business: https://t.co/lNO4884yft https://t.co/xB5jaqpwh7
p1520
sg11
g8
sba(iObject
Object
p1521
(dp1522
g5
S'918014375658627073'
p1523
sg7
g8
sg9
V@agrawalamod Brownmance
p1524
sg11
g8
sba(iObject
Object
p1525
(dp1526
g5
S'916913370237980672'
p1527
sg7
g8
sg9
VAfter the dilusional transformation of Dr Bruce to #incrediblehulk, it's time to read some real experience https://t.co/9snNpHq2IL via @qz
p1528
sg11
g8
sba(iObject
Object
p1529
(dp1530
g5
S'915513746356703232'
p1531
sg7
g8
sg9
V@SaloniKogta @agrawalamod Not in dollars :p
p1532
sg11
g8
sba(iObject
Object
p1533
(dp1534
g5
S'915464138565894145'
p1535
sg7
g8
sg9
V@SaloniKogta @agrawalamod Talk about Bonus questions. I fucking did bonus credits for honors in BTech
p1536
sg11
g8
sba(iObject
Object
p1537
(dp1538
g5
S'915159093823782912'
p1539
sg7
g8
sg9
V#WhatLoversDo is so catchy. Can't come out of the loop
p1540
sg11
g8
sba(iObject
Object
p1541
(dp1542
g5
S'914749716369358848'
p1543
sg7
g8
sg9
V@hulkii61 Probably it's time to update your bio...
p1544
sg11
g8
sba(iObject
Object
p1545
(dp1546
g5
S'914715309239447552'
p1547
sg7
S'67'
p1548
sg9
VRT @GabbbarSingh: Ah a fine fine write-up deciphering the bipolarity of Sir Winston Churchill. Must read https://t.co/HrspgiGYAY
p1549
sg11
g8
sba(iObject
Object
p1550
(dp1551
g5
S'914465742409539584'
p1552
sg7
g8
sg9
V@SaloniKogta Chhee chheee
p1553
sg11
g8
sba(iObject
Object
p1554
(dp1555
g5
S'913343103720812544'
p1556
sg7
S'871'
p1557
sg9
VRT @TheWeirdWorld: Zero has no value but it gives value to other numbers.
p1558
sg11
g8
sba(iObject
Object
p1559
(dp1560
g5
S'913343004999434241'
p1561
sg7
g8
sg9
V@SaloniKogta Bade log
p1562
sg11
g8
sba(iObject
Object
p1563
(dp1564
g5
S'912929403666960384'
p1565
sg7
g8
sg9
VGoogle Birthday Spinner has incited the kid in me. Now I don't give a damn about work I have to show to my manager by EOD\u000a#GoogleDoodle
p1566
sg11
g8
sba(iObject
Object
p1567
(dp1568
g5
S'912175276473278464'
p1569
sg7
S'1120'
p1570
sg9
VRT @TheWeirdWorld: Spongebob\u2019s parents are sea sponges. Spongebob is a cleaning sponge. Spongebob is adopted.
p1571
sg11
g8
sba(iObject
Object
p1572
(dp1573
g5
S'911501129896169473'
p1574
sg7
S'14'
p1575
sg9
VRT @janl: Super impressed how @RailsGirlsSoC allows people with very little coding experience to contribute substantial features to large O\u2026
p1576
sg11
g8
sba(iObject
Object
p1577
(dp1578
g5
S'911500505104257025'
p1579
sg7
g8
sg9
VWhat is the creepiest thing any AI has done so far? by Sriraman Madhavan\u000ahttps://t.co/OrEL7BZYMb
p1580
sg11
g8
sba(iObject
Object
p1581
(dp1582
g5
S'910753692495659008'
p1583
sg7
S'60'
p1584
sg9
VRT @googlestudents: If you're passionate about something, go for it! It might not be easy to put yourself out there, but it will be worth i\u2026
p1585
sg11
g8
sba(iObject
Object
p1586
(dp1587
g5
S'910190761706127360'
p1588
sg7
g8
sg9
VYeh shaam mastani\u000aMadhosh kiye jaye\u000aMujhe dor koi kheeche\u000aTeri or liye jaye\u000a\u000a#oldbuddy\u2026 https://t.co/oxi5CbLwms
p1589
sg11
g26
sba(iObject
Object
p1590
(dp1591
g5
S'909055113200726017'
p1592
sg7
g8
sg9
V"Bol na aunty" is really painful when you hear few loafers playing the song and it sticks to your head for the entire evening.
p1593
sg11
g8
sba(iObject
Object
p1594
(dp1595
g5
S'907877210962370560'
p1596
sg7
g8
sg9
V@SaloniKogta \U0001f600\U0001f600\U0001f600\U0001f600\U0001f600\U0001f600\U0001f600
p1597
sg11
g8
sba(iObject
Object
p1598
(dp1599
g5
S'907858882797568000'
p1600
sg7
g8
sg9
V@agrawalamod Arya Stark??
p1601
sg11
g8
sba(iObject
Object
p1602
(dp1603
g5
S'907114400506511360'
p1604
sg7
S'89'
p1605
sg9
VRT @ipfconline1: #DeepLearning Applications in Medical Imaging\u000ahttps://t.co/1pUeM9QeFg   [by @abderhasan v/ @TechEmergence]\u000a#AI #DigitalHea\u2026
p1606
sg11
g8
sba(iObject
Object
p1607
(dp1608
g5
S'905732192147345409'
p1609
sg7
S'1287'
p1610
sg9
VRT @TheWeirdWorld: If you have 2 choices, and you take 1 away, you have 0 choices.
p1611
sg11
g8
sba(iObject
Object
p1612
(dp1613
g5
S'905537746982158336'
p1614
sg7
g8
sg9
V#NewProfilePic https://t.co/ibEbNqD4YI
p1615
sg11
g74
sba(iObject
Object
p1616
(dp1617
g5
S'905502888603959296'
p1618
sg7
g8
sg9
VNeed some recommendations for phone case. @oneplus 5. I'd prefer durability over design.
p1619
sg11
g8
sba(iObject
Object
p1620
(dp1621
g5
S'904584535945265152'
p1622
sg7
g8
sg9
V@agrawalamod Hi
p1623
sg11
g8
sba(iObject
Object
p1624
(dp1625
g5
S'904342294815318016'
p1626
sg7
g8
sg9
V@SaloniKogta Yes ami bhalu that's why
p1627
sg11
g15
sba(iObject
Object
p1628
(dp1629
g5
S'904277174097555457'
p1630
sg7
g8
sg9
V@SaloniKogta Hulululu ilish maach
p1631
sg11
g28
sba(iObject
Object
p1632
(dp1633
g5
S'904276988327747584'
p1634
sg7
g8
sg9
VAfter 5 yrs torture &amp; snail speed mobile exp, finally own a Smart phone @oneplus 5. Thanks Samsung Galaxy core for teaching perseverance
p1635
sg11
g15
sba(iObject
Object
p1636
(dp1637
g5
S'902170834948595712'
p1638
sg7
g8
sg9
V@iamishitak winter vacation at the age of 22?
p1639
sg11
g8
sba(iObject
Object
p1640
(dp1641
g5
S'900076705624186880'
p1642
sg7
S'60'
p1643
sg9
VRT @outreachy: Applications for the Dec 2017 to Mar 2018 @outreachy internships will open Sept 7. Sign up for our mailing list: https://t.c\u2026
p1644
sg11
g8
sba(iObject
Object
p1645
(dp1646
g5
S'900013206449528832'
p1647
sg7
g8
sg9
VSocietal pressure to quit the job after marriage, motherhood. #changetheratio to challenge the norms @instituteofcode
p1648
sg11
g26
sba(iObject
Object
p1649
(dp1650
g5
S'900013065306910720'
p1651
sg7
g8
sg9
VDiscrimination stems from home. Boys encouraged to take up technical subjects, thought to be more intelligent than girls. @instituteofcode
p1652
sg11
g26
sba(iObject
Object
p1653
(dp1654
g5
S'900012990258225152'
p1655
sg7
g8
sg9
VMinuscule %age of women in tech means fewer women leaders in the field globally. Lesser motivation for women to pursue CS @InstituteofCode
p1656
sg11
g8
sba(iObject
Object
p1657
(dp1658
g5
S'900000728743256065'
p1659
sg7
g15
sg9
VRT @prodyogeeky: Working with @OpenLMIS towards building healthier communities. Awesome mentors @nickreid @brandonbowersox. Thank you @Rail\u2026
p1660
sg11
g8
sba(iObject
Object
p1661
(dp1662
g5
S'898627816698241025'
p1663
sg7
g8
sg9
VAll set for coding through the night\u000aKaavish &amp; Quratulain Balouch, Faasle, Coke Studio Season 10 https://t.co/bekUsGiF3J via @YouTube
p1664
sg11
g8
sba(iObject
Object
p1665
(dp1666
g5
S'898624024607051776'
p1667
sg7
g8
sg9
VThank you for sharing our story. Together we shall work for community welfare\u000a@JSIhealth https://t.co/2XXVP0OZhf
p1668
sg11
g8
sba(iObject
Object
p1669
(dp1670
g5
S'896763222362947584'
p1671
sg7
g8
sg9
VWe are team prodyoGEEKY, one of the 20 teams selected from 190 teams across 21 countries. Read about RGSoC:\u2026 https://t.co/icRN6PgnkF
p1672
sg11
g28
sba(iObject
Object
p1673
(dp1674
g5
S'896762514720948226'
p1675
sg7
g8
sg9
V_/\u005c_ #myfirstTweet
p1676
sg11
g8
sbasS'priyanka1209199'
p1677
(lp1678
sS'BrihiJ'
p1679
(lp1680
(iObject
Object
p1681
(dp1682
g5
S'970869201576411137'
p1683
sg7
g15
sg9
VRT @mehak__gupta: I am going to #GoogleIO this May! Anyone from India, specifically Delhi going for it? \u000aTravel partner needed :P\u000a@GoogleIO\u2026
p1684
sg11
g8
sba(iObject
Object
p1685
(dp1686
g5
S'970288822448771074'
p1687
sg7
g408
sg9
VRT @RailsGirlsSoC: Can we just say how much we love to look at our notifications and see our previous participants and mentors - and everyo\u2026
p1688
sg11
g8
sba(iObject
Object
p1689
(dp1690
g5
S'969494481975193600'
p1691
sg7
g8
sg9
V@googlestudents @just_achetan
p1692
sg11
g26
sba(iObject
Object
p1693
(dp1694
g5
S'968925737708265472'
p1695
sg7
g26
sg9
VIndian Teams, it is 4:30AM IST today! Best of luck \u2764\ufe0f https://t.co/efw1JGFpIs
p1696
sg11
g295
sba(iObject
Object
p1697
(dp1698
g5
S'968907762456584193'
p1699
sg7
g28
sg9
VRT @Del_Squared_: @RailsGirlsSoC @arushi1803 @sharmistha2020 We weren't able to hit the submit button. We missed out on the completion of t\u2026
p1700
sg11
g8
sba(iObject
Object
p1701
(dp1702
g5
S'968515199559847936'
p1703
sg7
g26
sg9
VWorld is weird when it makes you shift from Python 2.7 to Python 3\u000a\u000a#longdue \u000a#whyisprintafunction?\u000a#numpy
p1704
sg11
S'12'
p1705
sba(iObject
Object
p1706
(dp1707
g5
S'968383990771208193'
p1708
sg7
S'128'
p1709
sg9
VRT @timnitGebru: Does someone have a list like the 10 or even 20 GAN related papers I should read this year or something like this? I can't\u2026
p1710
sg11
g8
sba(iObject
Object
p1711
(dp1712
g5
S'968200779629674496'
p1713
sg7
S'23'
p1714
sg9
VRT @zacharylipton: All that it takes to destroy a field is for it to become popular. If ML goes from 4k to 20k submissions per conference,\u2026
p1715
sg11
g8
sba(iObject
Object
p1716
(dp1717
g5
S'967995244112363520'
p1718
sg7
S'14'
p1719
sg9
VRT @WWCode_Delhi: Announcing Mega Meetup celebrating International Women's Week on March 10 at @AdobeIndia's Noida office!\u000aRegister here -\u2026
p1720
sg11
g8
sba(iObject
Object
p1721
(dp1722
g5
S'966038644661174272'
p1723
sg7
g8
sg9
VIt's strange how the weirdest and the most creative ideas come during exams! \U0001f644
p1724
sg11
g408
sba(iObject
Object
p1725
(dp1726
g5
S'964505902580514816'
p1727
sg7
g74
sg9
VRT @shagunuppls: @TanSA05 @VrindaM8 @RailsGirlsSoC \u000aMe and my teammate @navdha_ag  are planning to work on a project this summer which requ\u2026
p1728
sg11
g8
sba(iObject
Object
p1729
(dp1730
g5
S'964505873405001728'
p1731
sg7
g8
sg9
V@WWCode_Delhi @WTM_Delhi https://t.co/qtXVLJlXLV
p1732
sg11
g8
sba(iObject
Object
p1733
(dp1734
g5
S'964430436322570243'
p1735
sg7
g8
sg9
V@fchollet @just_achetan see!
p1736
sg11
g26
sba(iObject
Object
p1737
(dp1738
g5
S'964430236518572032'
p1739
sg7
g124
sg9
VHelp contribute to one of the best open source programs for women out there! \u2764\ufe0f\u000a#ThankfulForRGSoC https://t.co/HMAvZg0ByU
p1740
sg11
S'14'
p1741
sba(iObject
Object
p1742
(dp1743
g5
S'964167420452712448'
p1744
sg7
g15
sg9
V#linuxkernel is so intriguing! Tried it for an assignment and can't get enough \U0001f60d\u000aWould love it if somebody can sugg\u2026 https://t.co/WmAHYX1kqk
p1745
sg11
S'11'
p1746
sba(iObject
Object
p1747
(dp1748
g5
S'962353769651453952'
p1749
sg7
g8
sg9
V@geekSiddharth I wish I was participating again this year so as to have you as a coach \U0001f648
p1750
sg11
g15
sba(iObject
Object
p1751
(dp1752
g5
S'962315270617313285'
p1753
sg7
g254
sg9
VRT @just_achetan: I am interested in coaching and helping around with @RailsGirlsSoC.\u000aI am proficient in Python, Java and Machine Learning.\u2026
p1754
sg11
g8
sba(iObject
Object
p1755
(dp1756
g5
S'962246954934661120'
p1757
sg7
g26
sg9
V@mehak__gupta and @AnushkaB_  are looking for coaches who can help them in a Parallel Programming Open Source Proje\u2026 https://t.co/OvHBmjX2sZ
p1758
sg11
g74
sba(iObject
Object
p1759
(dp1760
g5
S'959651977633280000'
p1761
sg7
g8
sg9
V@desi_banjaran Hi Shrishti! Check your DM :)
p1762
sg11
g8
sba(iObject
Object
p1763
(dp1764
g5
S'959410490127470592'
p1765
sg7
g28
sg9
VThis is one of the best things that happened to me last year. For every girl out there, do apply! \u2764\ufe0f\u000a\u000a#RGSoC https://t.co/0EdOOSKZcS
p1766
sg11
S'20'
p1767
sba(iObject
Object
p1768
(dp1769
g5
S'956504226741436416'
p1770
sg7
g128
sg9
VRT @RailsGirlsSoC: Happy to see that our alumnae are still contributing to the wondeful Tessel project after the completion of #RGSoC2017.\u2026
p1771
sg11
g8
sba(iObject
Object
p1772
(dp1773
g5
S'955847607288348672'
p1774
sg7
g128
sg9
VRT @tesselproject: New blog post from team @276linesofCode, our wonderful 2017 @RailsGirlsSoC mentees, on their learning experiences  - wit\u2026
p1775
sg11
g8
sba(iObject
Object
p1776
(dp1777
g5
S'950793114255376384'
p1778
sg7
S'1028'
p1779
sg9
VRT @goodfellow_ian: I never heard back from MIT. I got rejected from CMU. I was accepted to U of T but not to work with the PI I wanted the\u2026
p1780
sg11
g8
sba(iObject
Object
p1781
(dp1782
g5
S'950221748087083008'
p1783
sg7
g15
sg9
VRT @Investopad: We have a full house at our #SDAStudios for @WWCode_Delhi 's workshop on Mathematics of Machine Learning! https://t.co/PXqJ\u2026
p1784
sg11
g8
sba(iObject
Object
p1785
(dp1786
g5
S'948213325334114304'
p1787
sg7
g124
sg9
VRT @WWCode_Delhi: Our next event titled "Mathematics of Machine Learning" is the first of it's series taken by @just_achetan and @BrihiJ at\u2026
p1788
sg11
g8
sba(iObject
Object
p1789
(dp1790
g5
S'942986583950598148'
p1791
sg7
g8
sg9
V10/10 recommend to apply y'all\u000a\u000a\u2764\ufe0f\u2764\ufe0f https://t.co/mc9MeEKlVP
p1792
sg11
g28
sba(iObject
Object
p1793
(dp1794
g5
S'942748781686095874'
p1795
sg7
g8
sg9
VYayyieee \u2764\ufe0f\u000aThank you @github and @digitalocean for these lovely goodies \u000a#Hacktoberfest #swag https://t.co/5lDCCQHBpq
p1796
sg11
S'13'
p1797
sba(iObject
Object
p1798
(dp1799
g5
S'942440696283217920'
p1800
sg7
g8
sg9
V@brunns @agrawalamod @just_achetan read the comments \U0001f602\U0001f602\U0001f602
p1801
sg11
g26
sba(iObject
Object
p1802
(dp1803
g5
S'939551562279534592'
p1804
sg7
g8
sg9
V@AlecRad @just_achetan read the comments \U0001f602
p1805
sg11
g8
sba(iObject
Object
p1806
(dp1807
g5
S'930355798819028992'
p1808
sg7
g15
sg9
VOMG ITS HERE!! \u000aAll my love to @RailsGirlsSoC and the lovely sponsors \u2764\ufe0f\u2764\ufe0f\u2764\ufe0f\u000a#rgsoc #swag https://t.co/5WktZ3fypz
p1809
sg11
S'15'
p1810
sba(iObject
Object
p1811
(dp1812
g5
S'923548059631476737'
p1813
sg7
g74
sg9
VRT @WWCode_Delhi: We are so excited for #CodeOFF Are you? https://t.co/AJU3r6vYum
p1814
sg11
g8
sba(iObject
Object
p1815
(dp1816
g5
S'917266621898432513'
p1817
sg7
g8
sg9
V@b0rk @just_achetan what I keep saying \U0001f604
p1818
sg11
g26
sba(iObject
Object
p1819
(dp1820
g5
S'916187185056854016'
p1821
sg7
g8
sg9
V@just_achetan HOLY \U0001f60d
p1822
sg11
g8
sba(iObject
Object
p1823
(dp1824
g5
S'913414787152855040'
p1825
sg7
S'338'
p1826
sg9
VRT @ThePracticalDev: git commit -m "\U0001f630"
p1827
sg11
g8
sba(iObject
Object
p1828
(dp1829
g5
S'913414626620071937'
p1830
sg7
g8
sg9
V@just_achetan Wokayyyyy \U0001f60d
p1831
sg11
g8
sba(iObject
Object
p1832
(dp1833
g5
S'913273711523897345'
p1834
sg7
S'31'
p1835
sg9
VRT @fbplatform: Facebook and Microsoft introduce new open ecosystem for interchangeable AI frameworks, ONNX https://t.co/DC6dleyTYF https:/\u2026
p1836
sg11
g8
sba(iObject
Object
p1837
(dp1838
g5
S'912606038003654656'
p1839
sg7
g124
sg9
VRT @langziehohr: Can\u2019t believe it! @RailsGirlsSoC 2017 is coming to an end. \U0001f62d Just had a last call with one group of our amazing supervisor\u2026
p1840
sg11
g8
sba(iObject
Object
p1841
(dp1842
g5
S'912605962057351168'
p1843
sg7
g8
sg9
V@langziehohr @RailsGirlsSoC This is so beautiful \u2764\ufe0f\u2764\ufe0f\u2764\ufe0f
p1844
sg11
g15
sba(iObject
Object
p1845
(dp1846
g5
S'910034922542264320'
p1847
sg7
g8
sg9
V@kdnuggets @just_achetan
p1848
sg11
g8
sba(iObject
Object
p1849
(dp1850
g5
S'910034631377879040'
p1851
sg7
g8
sg9
V@just_achetan Lets start this!!
p1852
sg11
g8
sba(iObject
Object
p1853
(dp1854
g5
S'910001963386859520'
p1855
sg7
g26
sg9
VRT @tesselproject: Proud of our @RailsGirlsSoC team @276linesofCode\u2013 read what they learned contributing to #OpenSouce this summer! https:/\u2026
p1856
sg11
g8
sba(iObject
Object
p1857
(dp1858
g5
S'910001906503651328'
p1859
sg7
g124
sg9
VRT @ifoundtheme: Absolutely loved mentoring my @RailsGirlsSoC team @276linesofCode for @tesselproject this summer. Read their post: https:/\u2026
p1860
sg11
g8
sba(iObject
Object
p1861
(dp1862
g5
S'909653668206489602'
p1863
sg7
g124
sg9
VOur experiences with @tesselproject with our super cool mentor @ifoundtheme \u2764\ufe0f\u2764\ufe0f https://t.co/T53HKVtOom
p1864
sg11
g254
sba(iObject
Object
p1865
(dp1866
g5
S'909297230019997698'
p1867
sg7
g8
sg9
V@zacharylipton By chance, I just wrote a philosophy exam right now which had Kantian Ethics. Wondering how the guy\u2026 https://t.co/F2igkIK8ga
p1868
sg11
g26
sba(iObject
Object
p1869
(dp1870
g5
S'907243412298063872'
p1871
sg7
S'10'
p1872
sg9
VRT @RailsGirlsSoC: These conferences support RGSoC this year: @jsfoo, @GOTOcph, @GOTOber, @dotConferences, @rubyconfindia, @rubyconf_au htt\u2026
p1873
sg11
g8
sba(iObject
Object
p1874
(dp1875
g5
S'906747529085149184'
p1876
sg7
g8
sg9
V@zacharylipton @just_achetan Pikachu Detection!!
p1877
sg11
g26
sba(iObject
Object
p1878
(dp1879
g5
S'903988467394199552'
p1880
sg7
g26
sg9
VWith @sirajraval at #PyDataDelhi17 \U0001f60d\U0001f60d\u000a\u000acc - @just_achetan https://t.co/J2KEAedHuE
p1881
sg11
S'11'
p1882
sba(iObject
Object
p1883
(dp1884
g5
S'903844541064658944'
p1885
sg7
g26
sg9
V#PyDataDelhi17 \u000aWhich #DL library to use? https://t.co/AaA3DMvM4k
p1886
sg11
g26
sba(iObject
Object
p1887
(dp1888
g5
S'899214876098281472'
p1889
sg7
g408
sg9
VRT @indichix0: . @BrihiJ &amp; @shravika_mittal talking about @tesselproject &amp; experiences at RGSoC at LinuxChix India &amp; 0p3ns0urc3 meetup \u000a#li\u2026
p1890
sg11
g8
sba(iObject
Object
p1891
(dp1892
g5
S'898632002902958080'
p1893
sg7
S'11'
p1894
sg9
VRT @_peggyli: One of the best things I've read in awhile. \U0001f61d\u000ahttps://t.co/CN4hcJHZjI https://t.co/1Kju480jIw
p1895
sg11
g8
sba(iObject
Object
p1896
(dp1897
g5
S'898606652168876036'
p1898
sg7
g28
sg9
VRT @WWCode_Delhi: We love it when we get reviews like these - A blog on our event on #CV by @shravika_mittal and @BrihiJ \u000a\u000a#WomenWhoCode ht\u2026
p1899
sg11
g8
sba(iObject
Object
p1900
(dp1901
g5
S'898549620996882432'
p1902
sg7
g128
sg9
VRT @indichix0: Come hear @BrihiJ and @shravika_mittal speak about @tesselproject in our meetup this Sunday! https://t.co/gUwIQMJ55J
p1903
sg11
g8
sba(iObject
Object
p1904
(dp1905
g5
S'896301652294066176'
p1906
sg7
g8
sg9
VWhen your @RailsGirlsSoC mentor is the coolest! \U0001f60d https://t.co/hL4kNLjCWi
p1907
sg11
g254
sba(iObject
Object
p1908
(dp1909
g5
S'896072919331201024'
p1910
sg7
g28
sg9
V@RailsGirlsSoC has given us so much exposure to #OpenSource this #1 month! \u2764\ufe0f\u000a\u000aOur blog for @tesselproject \u000a\u000ahttps://t.co/zHUiG9lRRZ
p1911
sg11
g254
sba(iObject
Object
p1912
(dp1913
g5
S'896071669420220417'
p1914
sg7
g28
sg9
VRT @shravika_mittal: Register for Darwin Games - @EsyaIIITD Tech Fest.\u000aEvent Registration: https://t.co/YTxcbfkBqj \u000aTo know more: https://t\u2026
p1915
sg11
g8
sba(iObject
Object
p1916
(dp1917
g5
S'894921600830554112'
p1918
sg7
g128
sg9
VRT @tesselproject: Proud of our @RailsGirlsSoC team @276linesofCode this summer: https://t.co/igdsC00dsu
p1919
sg11
g8
sba(iObject
Object
p1920
(dp1921
g5
S'892713056056168448'
p1922
sg7
S'18'
p1923
sg9
VRT @RailsGirlsSoC: Today marks one month of RGSoC 2017! We're so happy to have all these teams on board and to see their progress \u2728\U0001f4bb\U0001f4aa https\u2026
p1924
sg11
g8
sba(iObject
Object
p1925
(dp1926
g5
S'890287108904034305'
p1927
sg7
g74
sg9
VRT @276linesofCode: Using the pin.pull() method for toggling an LED with pushbutton for solving an issue @tesselproject under @RailsGirlsSo\u2026
p1928
sg11
g8
sba(iObject
Object
p1929
(dp1930
g5
S'888114100034707456'
p1931
sg7
g74
sg9
VRT @276linesofCode: Last module in @tesselproject - Servo Motors! \U0001f60d\U0001f60d \u000a\u000aAmazing stuff in @RailsGirlsSoC \u2764\ufe0f https://t.co/P2Kipw2I4S
p1932
sg11
g8
sba(iObject
Object
p1933
(dp1934
g5
S'887931087967502337'
p1935
sg7
g8
sg9
V@IIITDelhi @ #PyDataDelhi17 \U0001f60d https://t.co/9eg9FfMWSf
p1936
sg11
g8
sba(iObject
Object
p1937
(dp1938
g5
S'887234940475248640'
p1939
sg7
g8
sg9
VSo yeah, THIS IS HAPPENING \U0001f60d\U0001f60d\U0001f60d https://t.co/EmIChgY49Q
p1940
sg11
g15
sba(iObject
Object
p1941
(dp1942
g5
S'887226447743651841'
p1943
sg7
g8
sg9
VI'm in love with Reveal.js \u2764\ufe0f\u000aBrings back the enthu in presentations \U0001f60d\u000a\u000a#javascript #reveal
p1944
sg11
g28
sba(iObject
Object
p1945
(dp1946
g5
S'887001699617050624'
p1947
sg7
S'25'
p1948
sg9
VRT @PyDataDelhi: Ahoy! Announcing our first keynote speaker - Siraj Raval, Data Scientist &amp; Youtuber. @PyData @NumFOCUS @sirajraval https:/\u2026
p1949
sg11
g8
sba(iObject
Object
p1950
(dp1951
g5
S'885780928949309444'
p1952
sg7
g8
sg9
VMust read for all who want to start Android from scratch! \u000a\u000a#android #development https://t.co/X0MtEjEtwB
p1953
sg11
g124
sba(iObject
Object
p1954
(dp1955
g5
S'885575164481687553'
p1956
sg7
g74
sg9
VRT @ifoundtheme: Excited and proud to mentor @tesselproject's first @RailsGirlsSoC team, @BrihiJ and @shravika_mittal \U0001f483https://t.co/57NwhpP\u2026
p1957
sg11
g8
sba(iObject
Object
p1958
(dp1959
g5
S'885546782154825728'
p1960
sg7
g8
sg9
V@just_achetan Nah. It took equally long with college WiFi \U0001f644
p1961
sg11
g8
sba(iObject
Object
p1962
(dp1963
g5
S'885506956252766209'
p1964
sg7
S'11'
p1965
sg9
VRT @RailsGirlsSoC: Read the story of @276linesofCode and how they put together their team to work on @tesselproject during #RGSoC! \u2728 https:\u2026
p1966
sg11
g8
sba(iObject
Object
p1967
(dp1968
g5
S'885000050396606465'
p1969
sg7
g8
sg9
V@esteban_negri @kokkisajee Hahah Printer repair and coffee making for sure \U0001f602
p1970
sg11
g8
sba(iObject
Object
p1971
(dp1972
g5
S'884999476896837633'
p1973
sg7
g8
sg9
VWhen repositories are soooo large that I gotta wait for an hour for it to clone \U0001f61e #git #problems
p1974
sg11
g8
sba(iObject
Object
p1975
(dp1976
g5
S'884461820806934529'
p1977
sg7
S'71'
p1978
sg9
VRT @wattenberg: Delighted to announce PAIR: People + AI Research initiative. Let's add HCI and design to classic machine learning! https://\u2026
p1979
sg11
g8
sba(iObject
Object
p1980
(dp1981
g5
S'883546342022193154'
p1982
sg7
S'21'
p1983
sg9
VRT @jackclarkSF: Spoke to someone who had been in AI/ML for many decades and they said they wished they were a young AI researcher as it's\u2026
p1984
sg11
g8
sba(iObject
Object
p1985
(dp1986
g5
S'882454813165756416'
p1987
sg7
S'293'
p1988
sg9
VRT @fchollet: Baidu just open-sourced an autonomous vehicle platform. Looks like a very ambitious project https://t.co/Kd2ZdLDTAJ (via @oli\u2026
p1989
sg11
g8
sba(iObject
Object
p1990
(dp1991
g5
S'882083214805708801'
p1992
sg7
g15
sg9
VI decided to dedicate myself a one-night hackthon. Trying web-scraping. Any ideas? \U0001f648 #webdev #Python
p1993
sg11
g74
sba(iObject
Object
p1994
(dp1995
g5
S'881450547017957376'
p1996
sg7
g254
sg9
V@RailsGirlsSoC 2017 kick off event at Delhi, India. Loved meeting alumni and sharing experiences #rgsoc #meetup https://t.co/caPMDp4ieF
p1997
sg11
S'34'
p1998
sba(iObject
Object
p1999
(dp2000
g5
S'881415131242012672'
p2001
sg7
g8
sg9
VWe're starting with the Kickoff celebration for @RailsGirlsSoC 2017! Do join us in the CDX area in IIIT Delhi. More- https://t.co/jTfra5wAmF
p2002
sg11
g26
sba(iObject
Object
p2003
(dp2004
g5
S'880855080462831617'
p2005
sg7
g28
sg9
VAhoy people in #Delhi, love Open-Source? Come show up as we celebrate starting @RailsGirlsSoC \u2764\ufe0f\u000a\u000aMore details -  https://t.co/jTfra5wAmF
p2006
sg11
S'11'
p2007
sba(iObject
Object
p2008
(dp2009
g5
S'880854411765047296'
p2010
sg7
g8
sg9
V@RailsGirlsSoC to start tomorrow!! Am I excited or am I excited? \U0001f60d\U0001f60d\u000aKeep up with https://t.co/34lJsTXAl8 as I write more about it!!
p2011
sg11
g28
sba(iObject
Object
p2012
(dp2013
g5
S'880850733133778944'
p2014
sg7
g8
sg9
VWe need smth of this sort in India please? \U0001f62d\U0001f62d #TheAIConf #AI #OReillyAI https://t.co/fNHOx4aK1W
p2015
sg11
g8
sba(iObject
Object
p2016
(dp2017
g5
S'880745340952956929'
p2018
sg7
g8
sg9
VWaited for smth like this \U0001f60d\u2764\ufe0f #ML #AI #music https://t.co/d5zg0y3pMD
p2019
sg11
g26
sba(iObject
Object
p2020
(dp2021
g5
S'880744868116439042'
p2022
sg7
S'60'
p2023
sg9
VRT @fchollet: "Performance RNN" from the Magenta team at Google: Generating Music with Expressive Timing and Dynamics https://t.co/XlF7hoIs\u2026
p2024
sg11
g8
sba(iObject
Object
p2025
(dp2026
g5
S'878288381133729794'
p2027
sg7
S'16'
p2028
sg9
VRT @jimmycuadra: The highs and lows of Rust (2017) https://t.co/1t6tVl5Cjo #rustlang
p2029
sg11
g8
sba(iObject
Object
p2030
(dp2031
g5
S'878288174212038656'
p2032
sg7
g15
sg9
VThis month in #tech - Learning #rust. Check out - https://t.co/y7splqkqd4  as I start from the basics! @rustlang
p2033
sg11
g295
sba(iObject
Object
p2034
(dp2035
g5
S'878190375176818688'
p2036
sg7
g28
sg9
V@RailsGirlsSoC 2017 Celebration in #NewDelhi -- love to meet the past and present teams and share experiences -- https://t.co/vzmVCzglGS
p2037
sg11
g28
sba(iObject
Object
p2038
(dp2039
g5
S'873505579460853760'
p2040
sg7
g26
sg9
V@shravika_mittal and I are representing @WWCode_Delhi here at #CodeUp @upstartncodeup @payumoney_merch @ikevaindia
p2041
sg11
g124
sba(iObject
Object
p2042
(dp2043
g5
S'873505406374555648'
p2044
sg7
g8
sg9
VReady for the Workshop to begin! #CodeUp @upstartncodeup @payumoney_merch @ikevaindia https://t.co/zzRcd76sxm
p2045
sg11
g8
sba(iObject
Object
p2046
(dp2047
g5
S'872780274425364480'
p2048
sg7
g15
sg9
VRT @WWCode_Delhi: Join @GoAbiAryan in an introductory session on Neural Networks this Sunday!\u000a\u000a#neuralnetworks #AI #womenwhocode https://t.\u2026
p2049
sg11
g8
sba(iObject
Object
p2050
(dp2051
g5
S'872780255228030976'
p2052
sg7
g15
sg9
VRT @WWCode_Delhi: Know more about #IoT this time with @WWCode_Delhi's key member @DikshaDeo \u000a\u000aJune 24th, Save the date!\u000a\u000a#IoT #technology h\u2026
p2053
sg11
g8
sba(iObject
Object
p2054
(dp2055
g5
S'870276935573659650'
p2056
sg7
g28
sg9
VRT @WWCode_Delhi: #ApplaudHer Team 276linesofCode (@BrihiJ &amp; @shravika_mittal from @WWCode_Delhi KeyTeam) made it to @RailsGirlsSoC '17 for\u2026
p2057
sg11
g8
sba(iObject
Object
p2058
(dp2059
g5
S'869991880855048193'
p2060
sg7
g128
sg9
VRT @WWCode_Delhi: 2 buzzwords - Machine Learning and Python! Join us with @PyDelhi https://t.co/Ut5fcGW6nZ
p2061
sg11
g8
sba(iObject
Object
p2062
(dp2063
g5
S'869991847845740544'
p2064
sg7
g15
sg9
VRT @WWCode_Delhi: 4th June, 10AM! Get your hands dirty with Machine Learning in Python, with @PyDelhi \u000a\u000a#Python #MachineLearning
p2065
sg11
g8
sba(iObject
Object
p2066
(dp2067
g5
S'866698262756995072'
p2068
sg7
g8
sg9
V@shravika_mittal and I made it! #rgsoc https://t.co/u5oQZxzCTX
p2069
sg11
g74
sba(iObject
Object
p2070
(dp2071
g5
S'866697889099075584'
p2072
sg7
g8
sg9
VCheck this out! @devpost #Android https://t.co/adpvYEkSVE
p2073
sg11
g26
sba(iObject
Object
p2074
(dp2075
g5
S'864326282619666432'
p2076
sg7
S'181'
p2077
sg9
VRT @ponguru: Thank you @msisodia for visiting @IIITDelhi and interacting with the school students of the #SummerCamp We are highly obliged!\u2026
p2078
sg11
g8
sba(iObject
Object
p2079
(dp2080
g5
S'860775190183202816'
p2081
sg7
g8
sg9
VDad's glued to the TV since 10am. The man is back! #May6WithArnab
p2082
sg11
g26
sba(iObject
Object
p2083
(dp2084
g5
S'860460209277345798'
p2085
sg7
g8
sg9
V@WomenWhoCode @WWCode_Delhi @jigyasa_grover Congrats @jigyasa_grover \u2764\ufe0f
p2086
sg11
g26
sba(iObject
Object
p2087
(dp2088
g5
S'860004839941521408'
p2089
sg7
g8
sg9
V@WWCode_Delhi  presents a book writing session #WWCode https://t.co/ZjpRuoOKPD
p2090
sg11
g8
sba(iObject
Object
p2091
(dp2092
g5
S'852737476321923072'
p2093
sg7
S'34'
p2094
sg9
VRT @RailsGirlsSoC: OMG so close! You still have until tomorrow to donate and help us reach our goal. \U0001f4aa\U0001f3ff\U0001f680\U0001f646\U0001f3fe\u2728Thank you for everyone pitching\u2026
p2095
sg11
g8
sba(iObject
Object
p2096
(dp2097
g5
S'848835966542282752'
p2098
sg7
S'13'
p2099
sg9
VRT @RyanWCarroll1: Mannequin challenge hack! Hacking for healthcare delivery for the Urban Poor CAMTech-X @Jugaadathon #indiahealthhack @CA\u2026
p2100
sg11
g8
sba(iObject
Object
p2101
(dp2102
g5
S'848538598345367557'
p2103
sg7
g26
sg9
V@WWCode_Delhi team + few participants in today's session. #acingAI https://t.co/IqKQBmec8R
p2104
sg11
g8
sba(iObject
Object
p2105
(dp2106
g5
S'848508838168772610'
p2107
sg7
g26
sg9
VActive discussions on AI, who would have wondered! @GoAbiAryan @WWCode_Delhi #acingAI https://t.co/FsQjBXc7hL
p2108
sg11
g26
sba(iObject
Object
p2109
(dp2110
g5
S'848507847642038272'
p2111
sg7
g26
sg9
V@GoAbiAryan is keeping the participants engaged! @WWCode_Delhi  #acingAI https://t.co/sLxm7AKg4q
p2112
sg11
g28
sba(iObject
Object
p2113
(dp2114
g5
S'848507480460087296'
p2115
sg7
g26
sg9
VThe response is amazing! @WWCode_Delhi @GoAbiAryan #acingAI https://t.co/iccD7uZB8y
p2116
sg11
g26
sba(iObject
Object
p2117
(dp2118
g5
S'848385500968869888'
p2119
sg7
g124
sg9
VRT @rsIIITD: poster session at ground floor @rsIIITD @IIITD https://t.co/g3UYQ4xf8w
p2120
sg11
g8
sba(iObject
Object
p2121
(dp2122
g5
S'846065308741832705'
p2123
sg7
g74
sg9
VRT @WWCode_Delhi: "The world of technology is much better with women !"\u000aMeet @jigyasa_grover, our amazing Director as she presides over #Wo\u2026
p2124
sg11
g8
sba(iObject
Object
p2125
(dp2126
g5
S'846064922337460225'
p2127
sg7
g408
sg9
VRT @WWCode_Delhi: A group picture with the @WWCode_Delhi Team &amp; Panelists \U0001f60a A great evening CELEBRATING WOMEN ! today. Keep up the spirit !\u2026
p2128
sg11
g8
sba(iObject
Object
p2129
(dp2130
g5
S'846064756633030657'
p2131
sg7
g254
sg9
VRT @eMalaGupta: Inspiring session today at @innov8cowork by @WWCode_Delhi. Hats off to @SahibaSethi3, Shruti (@adhicutting), @Malika_Sadani\u2026
p2132
sg11
g8
sba(iObject
Object
p2133
(dp2134
g5
S'843345492339707904'
p2135
sg7
g15
sg9
VNeural networks using Theano #PyDelhiConf 2017! https://t.co/eQlSy071xZ
p2136
sg11
g124
sba(iObject
Object
p2137
(dp2138
g5
S'841616617553313792'
p2139
sg7
S'70'
p2140
sg9
VRT @langziehohr: For @RailsGirlsSoC 2017 we got 190 (!) applications - and only 6 teams funded. Let's change that, dear companies \U0001f4aa\U0001f3fe https:\u2026
p2141
sg11
g8
sba(iObject
Object
p2142
(dp2143
g5
S'840566949553696768'
p2144
sg7
g8
sg9
VWhen tech meets food \u2764\ufe0f https://t.co/53Q0gm7Mp3
p2145
sg11
g8
sba(iObject
Object
p2146
(dp2147
g5
S'840566380084641792'
p2148
sg7
g26
sg9
VHackathons be like #indiahealthhack #CamTechX @CamTechMGH @Jugaadathon @IIITDelhi @AnushkaB_ https://t.co/qHrxdhnqGM
p2149
sg11
g254
sba(iObject
Object
p2150
(dp2151
g5
S'840544677052866560'
p2152
sg7
g124
sg9
VRT @ashutoshpw: @PutulG shares her experience mentoring teams  at @CAMTechMGH #delhi @IIITDelhi #indiahealthhack \u000a\u000ahttps://t.co/XMqFlmguuL
p2153
sg11
g8
sba(iObject
Object
p2154
(dp2155
g5
S'840515973383839746'
p2156
sg7
g74
sg9
VAll you need is food, sleep and resistors!#indiahealthhack #CamTechX @CamTechMGH @Jugaadathon @IIITDelhi @TanSA05 https://t.co/OXlZEx0iM2
p2157
sg11
S'10'
p2158
sba(iObject
Object
p2159
(dp2160
g5
S'840495349747740672'
p2161
sg7
g26
sg9
VBubble wraps! Organizing team is fun!! #indiahealthhack #CamTechX @CamTechMGH @Jugaadathon @IIITDelhi https://t.co/rBT0D40bzP
p2162
sg11
g74
sba(iObject
Object
p2163
(dp2164
g5
S'840492279236182016'
p2165
sg7
g8
sg9
VSuch resistors. Peeyush loves being an organiser! #indiahealthhack #CamTechX @CamTechMGH @Jugaadathon @IIITDelhi https://t.co/UUJRM1zXMM
p2166
sg11
g28
sba(iObject
Object
p2167
(dp2168
g5
S'840467187500425216'
p2169
sg7
g8
sg9
VIdeas ideas and ideas!  #indiahealthhack #CamTechX @CamTechMGH @Jugaadathon @IIITDelhi https://t.co/exPeePEQrL
p2170
sg11
g124
sba(iObject
Object
p2171
(dp2172
g5
S'840458344351449089'
p2173
sg7
g128
sg9
VRT @mssanjanam: Off to a great start! Here's our #CAMTechX @Jugaadathon @IIITDelhi ambassador Ankur! #indiahealthhack https://t.co/KW4xx5lT\u2026
p2174
sg11
g8
sba(iObject
Object
p2175
(dp2176
g5
S'840452345284632576'
p2177
sg7
g26
sg9
VIdea discussions are on! #indiahealthhack #CamTechX @CamTechMGH @Jugaadathon @IIITDelhi https://t.co/uL7mNfemH3
p2178
sg11
g28
sba(iObject
Object
p2179
(dp2180
g5
S'840405836191027200'
p2181
sg7
g15
sg9
VRegistrations are live!  #indiahealthhack #CamTechX @CamTechMGH @Jugaadathon @IIITDelhi https://t.co/sSwOJCyNAT
p2182
sg11
g15
sba(iObject
Object
p2183
(dp2184
g5
S'839464575133077504'
p2185
sg7
g15
sg9
VJust received our own Tessel! @shravika_mittal and I can't wait to play around. @tesselproject https://t.co/ikXWjmNbmR
p2186
sg11
g28
sba(iObject
Object
p2187
(dp2188
g5
S'836435578585374720'
p2189
sg7
g295
sg9
VRT @bugZPDX: I was an @outreachy intern &amp; the experience was invaluable. If I can do it you can do it! DM me if you'd like some advice or h\u2026
p2190
sg11
g8
sba(iObject
Object
p2191
(dp2192
g5
S'836435491205492737'
p2193
sg7
S'110'
p2194
sg9
VRT @gsoc: We're excited to announce the #GSoC 2017 mentor orgs! Find all 201 open source projects, orgs and more on the blog: https://t.co/\u2026
p2195
sg11
g8
sba(iObject
Object
p2196
(dp2197
g5
S'836212208115712000'
p2198
sg7
g8
sg9
V@RailsGirlsSoC Yayy!!
p2199
sg11
g26
sba(iObject
Object
p2200
(dp2201
g5
S'831545120713560064'
p2202
sg7
g8
sg9
VReasons why I love #tech https://t.co/ZFTi8OnxzV
p2203
sg11
g15
sba(iObject
Object
p2204
(dp2205
g5
S'828658353790447616'
p2206
sg7
g26
sg9
VLooking for JavaScript coaches for RGSoC'17, based in New Delhi! @RailsGirlsSoC #javascript
p2207
sg11
g8
sba(iObject
Object
p2208
(dp2209
g5
S'828483820328325120'
p2210
sg7
S'13'
p2211
sg9
VRT @WomenTechSummit: 30+ Badass Women That Changed The World We Live In Today  https://t.co/thK0BEOF1O
p2212
sg11
g8
sba(iObject
Object
p2213
(dp2214
g5
S'827884233804877824'
p2215
sg7
g15
sg9
V@shravika_mittal and I are looking for Delhi Based Coaches with expertise in JS/Python, for RGSoC'17 @WWCode_Delhi @RailsGirlsSoC
p2216
sg11
g28
sba(iObject
Object
p2217
(dp2218
g5
S'827629458685206528'
p2219
sg7
g28
sg9
VRT @AbletonDev: We are proud to support this great program again. https://t.co/aVoav1Csq7 https://t.co/qZcKizdE4e
p2220
sg11
g8
sba(iObject
Object
p2221
(dp2222
g5
S'826888457314238464'
p2223
sg7
g26
sg9
VIts open finally! Ready, Set, GO!! @RailsGirlsSoC  #railsgirlsummerofcode #superexcited https://t.co/RIKw2avBbr
p2224
sg11
g26
sba(iObject
Object
p2225
(dp2226
g5
S'826832871222546433'
p2227
sg7
g26
sg9
V@shravika_mittal and I can't wait! #RGSoC https://t.co/EQDW42Td29
p2228
sg11
g8
sba(iObject
Object
p2229
(dp2230
g5
S'826816802923491328'
p2231
sg7
g28
sg9
VOur own @tesselproject is on the way! @shravika_mittal and I are too excited to work on it! #javascript #WWCode
p2232
sg11
g74
sba(iObject
Object
p2233
(dp2234
g5
S'826560355606360064'
p2235
sg7
g8
sg9
VI just applied for a @WomenTechmakers International Women's Day event and you can too! Sign up here: https://t.co/Zq4HXkiLZJ #IWD17
p2236
sg11
g26
sba(iObject
Object
p2237
(dp2238
g5
S'825708956811026434'
p2239
sg7
g15
sg9
VRT @WWCode_Delhi: It's raining #hackathons in Delhi. Participate in #CAMTech Jugaadathon on 11/03 &amp; win $500 ! Register by 30/01. More http\u2026
p2240
sg11
g8
sba(iObject
Object
p2241
(dp2242
g5
S'823281029280473088'
p2243
sg7
g124
sg9
VRT @WWCode_Delhi: Calling all women researchers to showcase their amazing work at @WomenWhoCode CONNECT India 2017 on 3rd March !\u000ahttps://t\u2026
p2244
sg11
g8
sba(iObject
Object
p2245
(dp2246
g5
S'823191762998947840'
p2247
sg7
S'14'
p2248
sg9
VRT @RailsGirlsSoC: Our applications for students are opening soon \u2014 it seemed time to update our application guidelines. Take a look \u2728 http\u2026
p2249
sg11
g8
sba(iObject
Object
p2250
(dp2251
g5
S'822547840610209792'
p2252
sg7
g8
sg9
VAmazing! Specially for people who are newbies in this domain https://t.co/0gA3ejaifJ
p2253
sg11
g8
sba(iObject
Object
p2254
(dp2255
g5
S'822531458627731457'
p2256
sg7
g28
sg9
VTeam from New Delhi, India looking for RGSoC coaches. Do let us know! @RailsGirlsSoC #coaches
p2257
sg11
g15
sba(iObject
Object
p2258
(dp2259
g5
S'822307480080265216'
p2260
sg7
S'64'
p2261
sg9
VRT @gsoc: #GSoC 2017 has officially begun! We're now accepting applications from open source projects: https://t.co/cacgy8ZIdy https://t.co\u2026
p2262
sg11
g8
sbasS'SoUmmYaah'
p2263
(lp2264
(iObject
Object
p2265
(dp2266
g5
S'963162108136275969'
p2267
sg7
S'709'
p2268
sg9
VRT @olafurw: So I have had my DM's open for about 4 months now. Accepting code reviews from people learning to program.\u000a\u000aHere are some comm\u2026
p2269
sg11
g8
sba(iObject
Object
p2270
(dp2271
g5
S'962568423237545984'
p2272
sg7
g8
sg9
V@shivammax @namanspace @YouTube And what about content? It's not just about the app but the content too.
p2273
sg11
g8
sba(iObject
Object
p2274
(dp2275
g5
S'962568101161136129'
p2276
sg7
g254
sg9
VRT @just_achetan: I am interested in coaching and helping around with @RailsGirlsSoC.\u000aI am proficient in Python, Java and Machine Learning.\u2026
p2277
sg11
g8
sba(iObject
Object
p2278
(dp2279
g5
S'961156367808524288'
p2280
sg7
S'107'
p2281
sg9
VRT @nayafia: I'm often asked for links to OSS maintainers who have publicly written about their experiences. So I made a list! https://t.co\u2026
p2282
sg11
g8
sba(iObject
Object
p2283
(dp2284
g5
S'956090642869833728'
p2285
sg7
S'10'
p2286
sg9
VRT @PyLadiesDelhi: Join us for Django Party at @Investopad https://t.co/CQbBeU1Ksa
p2287
sg11
g8
sba(iObject
Object
p2288
(dp2289
g5
S'941400652843851776'
p2290
sg7
S'1482'
p2291
sg9
VRT @Lochm1807: If #XRP  (#Ripple) hits $1 on tonight\u000aI will send 10 $xrp to EVERYONE that RETWEETS and LIKES this\u000a\u000a- @chrislarsensf -
p2292
sg11
g8
sba(iObject
Object
p2293
(dp2294
g5
S'939404762017030144'
p2295
sg7
S'1534'
p2296
sg9
VRT @TheWeirdWorld: If the definition of insanity is doing the same thing over and over and expecting different results, and yet practice ma\u2026
p2297
sg11
g8
sba(iObject
Object
p2298
(dp2299
g5
S'935134526195384321'
p2300
sg7
g8
sg9
V@Uber_Support Sent. Hope the issues get resolved now.
p2301
sg11
g8
sba(iObject
Object
p2302
(dp2303
g5
S'935133204016541699'
p2304
sg7
g8
sg9
V@Uber_Support Uber Support is unhelpful. Have 2 accounts. A backend technical issue for past 45 days on one. Only a\u2026 https://t.co/O3RdcaklJh
p2305
sg11
g8
sba(iObject
Object
p2306
(dp2307
g5
S'933049278116663296'
p2308
sg7
g8
sg9
V@theTunnelBear Spotify is so difficult to configure \U0001f62d
p2309
sg11
g8
sba(iObject
Object
p2310
(dp2311
g5
S'932993434150998016'
p2312
sg7
g8
sg9
VTrying out @theTunnelBear so I can browse privately from my ISP https://t.co/wwOUWneu8G https://t.co/QoqUwkuuOt
p2313
sg11
g26
sba(iObject
Object
p2314
(dp2315
g5
S'900065848311730176'
p2316
sg7
S'60'
p2317
sg9
VRT @outreachy: Applications for the Dec 2017 to Mar 2018 @outreachy internships will open Sept 7. Sign up for our mailing list: https://t.c\u2026
p2318
sg11
g8
sba(iObject
Object
p2319
(dp2320
g5
S'896973535167397888'
p2321
sg7
g15
sg9
VRT @iandouglas736: Free technical interview prep class for early-career web devs, Monday nights, 7:30pm Mountain (Denver), details: https:/\u2026
p2322
sg11
g8
sba(iObject
Object
p2323
(dp2324
g5
S'896612041007419392'
p2325
sg7
S'263167'
p2326
sg9
VRT @J4CKMULL: Who's cutting onions? https://t.co/PlnJ1CzGFr
p2327
sg11
g8
sba(iObject
Object
p2328
(dp2329
g5
S'896536317361700864'
p2330
sg7
g8
sg9
V@krngrvr09 @OpenAI @namanspace Oyuuhhh Do this please.
p2331
sg11
g26
sba(iObject
Object
p2332
(dp2333
g5
S'895551575099179008'
p2334
sg7
g8
sg9
V@krngrvr09 @namanspace There is always a dire need for people who will work enthusiastically for free. :P
p2335
sg11
g15
sba(iObject
Object
p2336
(dp2337
g5
S'895272108577521666'
p2338
sg7
S'494'
p2339
sg9
VRT @jesslynnrose: Tech Twitter: What piece of advice do you wish you had been given when you entered the industry?\u000a\u000aRT for a diverse sample\u2026
p2340
sg11
g8
sba(iObject
Object
p2341
(dp2342
g5
S'888306535138443265'
p2343
sg7
g8
sg9
V@SaloniKogta Where?! Where is this heaven? :'(
p2344
sg11
g26
sba(iObject
Object
p2345
(dp2346
g5
S'885157163491971072'
p2347
sg7
S'675'
p2348
sg9
VRT @TheFunnyTeens: me: *mocks parents for not understanding technology*\u000a\u000ame: *has to google how to cook an egg*
p2349
sg11
g8
sba(iObject
Object
p2350
(dp2351
g5
S'885154875788611584'
p2352
sg7
g15
sg9
VRT @DheerajSanghi: \u2018Parents\u2019 education could be an alternative quota criterion\u2019 \u2013 The Indian Express https://t.co/jhFL5dtEnU
p2353
sg11
g8
sba(iObject
Object
p2354
(dp2355
g5
S'885101757486907392'
p2356
sg7
g8
sg9
V@SaloniKogta @krngrvr09 In that case, you can do anything. Even sleep off or day dream :P
p2357
sg11
g15
sba(iObject
Object
p2358
(dp2359
g5
S'885075042027143168'
p2360
sg7
g8
sg9
V@SaloniKogta @krngrvr09 Technically even looking at your phone in professional environment isn't ethical.
p2361
sg11
g26
sba(iObject
Object
p2362
(dp2363
g5
S'865474052705501184'
p2364
sg7
g26
sg9
VApplications open till May 22nd. Apply! https://t.co/Z5YsBCGjMo
p2365
sg11
g15
sba(iObject
Object
p2366
(dp2367
g5
S'855621897635090432'
p2368
sg7
g8
sg9
V@arisaparty Oh my God! I just discovered your content on youtube and I absolutely LOVE it. Can't stop gushing about it!!
p2369
sg11
g8
sba(iObject
Object
p2370
(dp2371
g5
S'849543546214461440'
p2372
sg7
g8
sg9
V@PyBeeWare Oh wow! That's an amazing number.
p2373
sg11
g8
sba(iObject
Object
p2374
(dp2375
g5
S'849543305364992001'
p2376
sg7
g74
sg9
VRT @ponguru: Thanks for the interest. My online NPTEL course https://t.co/ReH7uKCcLR https://t.co/vecH8tc5HE
p2377
sg11
g8
sba(iObject
Object
p2378
(dp2379
g5
S'839445745417797632'
p2380
sg7
g26
sg9
VRT @freakboy3742: @Lord_DeathMatch Don\u2019t suppose you know anyone who might be interested in being a GSoC student with @PyBeeWare? https://t\u2026
p2381
sg11
g8
sba(iObject
Object
p2382
(dp2383
g5
S'828835568037474304'
p2384
sg7
g8
sg9
V@Shaan_Chopra97 Awesome! :D
p2385
sg11
g8
sba(iObject
Object
p2386
(dp2387
g5
S'828819824792858624'
p2388
sg7
g8
sg9
V@Shaan_Chopra97 Hey! You went :D
p2389
sg11
g8
sba(iObject
Object
p2390
(dp2391
g5
S'790782677263618048'
p2392
sg7
g8
sg9
VBoom! OnePlus Dash for Diwali Level 1 'Bloom'! #OnePlusDiwaliDash https://t.co/tpnFYIuCS8
p2393
sg11
g26
sba(iObject
Object
p2394
(dp2395
g5
S'783726589548781568'
p2396
sg7
g28
sg9
VRT @SenguptaSrishti: @RailsGirlsSoC @SoUmmYaah when your calendar reminds you to put up a status update even after #rgsoc \U0001f622 #bestsummerever\u2026
p2397
sg11
g8
sba(iObject
Object
p2398
(dp2399
g5
S'781967018241032192'
p2400
sg7
S'120'
p2401
sg9
VRT @qz: Microsoft CEO Satya Nadella on artificial intelligence, algorithmic accountability, and what he learned from Tay https://t.co/mcKBJ\u2026
p2402
sg11
g8
sba(iObject
Object
p2403
(dp2404
g5
S'781931160007905280'
p2405
sg7
g8
sg9
V@namanspace Oops! Messed up your username :P
p2406
sg11
g8
sba(iObject
Object
p2407
(dp2408
g5
S'781926052373200896'
p2409
sg7
g26
sg9
V@RailsGirlsSoC @SenguptaSrishti @darkryder_s @nabymanspace\u000aCelebrating last day of RGSoC by reminiscing.\u000a#rgsoc\u2026 https://t.co/f8z32E3pQA
p2410
sg11
g408
sba(iObject
Object
p2411
(dp2412
g5
S'781923954361380864'
p2413
sg7
S'27'
p2414
sg9
VRT @RailsGirlsSoC: Last day of #RGSoC 2016! \U0001f389 We hope all of you had an awesome time! Thank you for changing the world with us! \U0001f4aa \u2728\u000ahttps:/\u2026
p2415
sg11
g8
sba(iObject
Object
p2416
(dp2417
g5
S'781922848843501568'
p2418
sg7
g26
sg9
VRT @SenguptaSrishti: @RailsGirlsSoC @SoUmmYaah and I can't believe that it's going to end so soon.\u000a#twodaystogo #rgsoc #voc #l1ghtsab3r htt\u2026
p2419
sg11
g8
sba(iObject
Object
p2420
(dp2421
g5
S'781876631640023040'
p2422
sg7
g8
sg9
VOur first ever RGSoC picture! https://t.co/NNlLSayTFy
p2423
sg11
g28
sba(iObject
Object
p2424
(dp2425
g5
S'778635154638053377'
p2426
sg7
g8
sg9
V:D https://t.co/ILUiyRB5ei
p2427
sg11
g124
sba(iObject
Object
p2428
(dp2429
g5
S'743102411485499392'
p2430
sg7
g8
sg9
VYayayay :D :D\u000aRGSoC :')\u000a#rgsoc https://t.co/MinZ1mAbvn
p2431
sg11
g74
sba(iObject
Object
p2432
(dp2433
g5
S'722557802837843968'
p2434
sg7
g8
sg9
V@UshaShivanna Hey, any opportunities for Summer Internship at Adobe? https://t.co/fCgu3hxKox
p2435
sg11
g8
sba(iObject
Object
p2436
(dp2437
g5
S'722556805482721280'
p2438
sg7
g8
sg9
V@Sabrinaahoy Hey, any summer internships open at HackerEarth? https://t.co/fCgu3hxKox
p2439
sg11
g8
sba(iObject
Object
p2440
(dp2441
g5
S'722556367563788288'
p2442
sg7
g8
sg9
V@AishwaryaMural1 Hey, any summer internships open at HackerEarth? https://t.co/fCgu3hxKox
p2443
sg11
g8
sba(iObject
Object
p2444
(dp2445
g5
S'722199802843299840'
p2446
sg7
g124
sg9
VBurning the midnight oil!\u000aCourse Exchange!\u000a@ponguru @imtheViru @baddymaster \u000a#CSE501 #BBI2016 https://t.co/Txh92lRsbP
p2447
sg11
g8
sba(iObject
Object
p2448
(dp2449
g5
S'716745683953434624'
p2450
sg7
g8
sg9
V@akshay_vishnoi Hey, Could you send us your email ID so that we can tell you more about the RGSoC projects. CC: @SenguptaSrishti
p2451
sg11
g8
sba(iObject
Object
p2452
(dp2453
g5
S'716745088966197249'
p2454
sg7
g8
sg9
V@PyDelhi Hey,\u000aMe and my partner @SenguptaSrishti are looking for a coach for RGSoC. We will pick python based projects. Ping for more info!
p2455
sg11
g8
sba(iObject
Object
p2456
(dp2457
g5
S'716523522823032832'
p2458
sg7
g8
sg9
V@ManishEarth @SenguptaSrishti Sure! We can discuss about your involvement. I'll mail you the details and the projects we plan on pursuing.
p2459
sg11
g26
sba(iObject
Object
p2460
(dp2461
g5
S'716520914884567041'
p2462
sg7
g8
sg9
V@ManishEarth Hey, me and my partner @SenguptaSrishti are looking for a coach for RGSoC. We would love to have you as our coach, if possible.
p2463
sg11
g8
sba(iObject
Object
p2464
(dp2465
g5
S'714748775697358849'
p2466
sg7
g8
sg9
VReceive your free dev stickers! Any where in the world! @notifuse https://t.co/KCkxpX3Sja
p2467
sg11
g8
sba(iObject
Object
p2468
(dp2469
g5
S'712936069285691392'
p2470
sg7
g8
sg9
V@shivammax @SenguptaSrishti Hahahahaha! Chocolateeesssss &lt;3 &lt;3 &lt;3
p2471
sg11
g15
sba(iObject
Object
p2472
(dp2473
g5
S'712931725031112704'
p2474
sg7
g8
sg9
V@_waseem @Sinister_Light @SenguptaSrishti Hey Waseem, we've pinged you back on email :)
p2475
sg11
g8
sba(iObject
Object
p2476
(dp2477
g5
S'712915455661445120'
p2478
sg7
g8
sg9
V@shivammax @SenguptaSrishti Not yet. Applying :D
p2479
sg11
g8
sba(iObject
Object
p2480
(dp2481
g5
S'712389295416303616'
p2482
sg7
g8
sg9
V@iaktech Me and @SenguptaSrishti are looking for a RGSoC mentor. Ping if interested :)
p2483
sg11
g8
sba(iObject
Object
p2484
(dp2485
g5
S'712389110120325120'
p2486
sg7
g8
sg9
V@manojpandey96 Me and @SenguptaSrishti are looking for a RGSoC mentor. Ping if interested :)
p2487
sg11
g8
sba(iObject
Object
p2488
(dp2489
g5
S'712388584712511488'
p2490
sg7
g8
sg9
V@ManishEarth Me and @SenguptaSrishti are looking for a RGSoC mentor. Ping if interested :)
p2491
sg11
g8
sba(iObject
Object
p2492
(dp2493
g5
S'712388538570936320'
p2494
sg7
g8
sg9
V@sumith1896 Me and @SenguptaSrishti are looking for a RGSoC mentor. Ping if interested :)
p2495
sg11
g26
sba(iObject
Object
p2496
(dp2497
g5
S'712380543246016512'
p2498
sg7
g8
sg9
VHey @Sinister_Light It would be great if you could connect me and @SenguptaSrishti to a RGSoC coach based in Delhi. Thanks :)
p2499
sg11
g26
sba(iObject
Object
p2500
(dp2501
g5
S'646689841548103680'
p2502
sg7
g8
sg9
VI\u2019m participating in the 2015 Campus Cup! Join me for a chance to earn free space https://t.co/73Mtk0b1xx
p2503
sg11
g8
sba(iObject
Object
p2504
(dp2505
g5
S'640110070559195136'
p2506
sg7
S'2779'
p2507
sg9
VRT @google: Watch this: A quick look at Google's evolution from those 10 blue links \u2192 http://t.co/gjK5Csd0pP http://t.co/mDEm7Tn7kn
p2508
sg11
g8
sba(iObject
Object
p2509
(dp2510
g5
S'640110018084245504'
p2511
sg7
g8
sg9
V@google New New Logo :D
p2512
sg11
g8
sba(iObject
Object
p2513
(dp2514
g5
S'632523780754145280'
p2515
sg7
g26
sg9
VBringing Esya on your fingers :D\u000aDownload the app, scan the QR code or visit: http://t.co/9k7pxn4OMM\u000a#Esya15 http://t.co/2ZAOSoe26M
p2516
sg11
g26
sba(iObject
Object
p2517
(dp2518
g5
S'604346943846797313'
p2519
sg7
g295
sg9
VRT @EsyaIIITD: Hello everyone, @EsyaIIITD at @IIITDelhi is back again, bigger and better than last year. RT and let your friends know about\u2026
p2520
sg11
g8
sba(iObject
Object
p2521
(dp2522
g5
S'534347088054591488'
p2523
sg7
g8
sg9
VSo much fun!! Game completed! @IIITDOdyssey #curseoftheshadows #OdysseyIIITD
p2524
sg11
g8
sba(iObject
Object
p2525
(dp2526
g5
S'534346911415672833'
p2527
sg7
g8
sg9
VLast Level completed @IIITDOdyssey #OdysseyIIITD #curseoftheshadows
p2528
sg11
g8
sba(iObject
Object
p2529
(dp2530
g5
S'534342555995877377'
p2531
sg7
g8
sg9
VLevel 7 completed! @IIITDOdyssey #OdysseyIIITD #curseoftheshadows
p2532
sg11
g8
sba(iObject
Object
p2533
(dp2534
g5
S'534339741953433600'
p2535
sg7
g8
sg9
VSecond last Level 7 @IIITDOdyssey #OdysseyIIITD #curseoftheshadows
p2536
sg11
g8
sba(iObject
Object
p2537
(dp2538
g5
S'534336972441927680'
p2539
sg7
g8
sg9
VLevel 5 cracked. @IIITDOdyssey
p2540
sg11
g8
sba(iObject
Object
p2541
(dp2542
g5
S'534334051922870272'
p2543
sg7
g8
sg9
VLevel 3 ho gaya! #FTW @IIITDOdyssey #OdysseyIIITD #curseoftheshadows
p2544
sg11
g8
sba(iObject
Object
p2545
(dp2546
g5
S'534330506809065472'
p2547
sg7
g8
sg9
V@IIITDOdyssey Level 3 is a tough nut to crack. #curseoftheshadows #OdysseyIIITD
p2548
sg11
g8
sba(iObject
Object
p2549
(dp2550
g5
S'534330106299170816'
p2551
sg7
g8
sg9
VWoo-hoo! Level 2 completed! :D #iiitdodyssey #curseoftheshadows
p2552
sg11
g8
sba(iObject
Object
p2553
(dp2554
g5
S'534320321172500480'
p2555
sg7
g8
sg9
V1 down! #OdysseyIIITD #curseoftheshadows
p2556
sg11
g8
sba(iObject
Object
p2557
(dp2558
g5
S'534318251619020800'
p2559
sg7
g8
sg9
VSo excited!! #OdysseyIIITD #CurseOfTheShadows
p2560
sg11
g8
sba(iObject
Object
p2561
(dp2562
g5
S'505127957136814080'
p2563
sg7
g26
sg9
V@MadOverDonuts Very disappointed with your services. Donuts not delivered and lame excuses were made instead. #let_down #disheartened
p2564
sg11
g28
sba(iObject
Object
p2565
(dp2566
g5
S'486239063498698752'
p2567
sg7
g8
sg9
VLet's raise children who won't have to recover from their childhood. #forparents
p2568
sg11
g26
sba(iObject
Object
p2569
(dp2570
g5
S'485324954754633728'
p2571
sg7
g8
sg9
V@IIITD presents EsyaIIITD '14-The Internet of Things. Our annual technical festival is back. Visit: http://t.co/A55fL7bq27
p2572
sg11
g8
sba(iObject
Object
p2573
(dp2574
g5
S'485194652748750848'
p2575
sg7
g26
sg9
VRT @sid0_o: http://t.co/AgBPA4d98R
p2576
sg11
g8
sba(iObject
Object
p2577
(dp2578
g5
S'485110902081863681'
p2579
sg7
g8
sg9
V@shivammax Yes! My love for #esya14 brought me here
p2580
sg11
g8
sba(iObject
Object
p2581
(dp2582
g5
S'485108761757884417'
p2583
sg7
g8
sg9
V@shivammax Hahaha!! :P
p2584
sg11
g8
sba(iObject
Object
p2585
(dp2586
g5
S'485104477620289536'
p2587
sg7
g8
sg9
V@shivammax you wont believe it, but I opened twitter now!
p2588
sg11
g8
sba(iObject
Object
p2589
(dp2590
g5
S'484758697311096832'
p2591
sg7
g8
sg9
V@IIITD presents EsyaIIITD '14-The Internet of Things. Our annual technical festival is back. Visit: http://t.co/Cow4HMTg5J
p2592
sg11
g8
sba(iObject
Object
p2593
(dp2594
g5
S'411540756260605952'
p2595
sg7
S'850'
p2596
sg9
VRT @TheWorldImages: http://t.co/Zh2W1Jitox
p2597
sg11
g8
sba(iObject
Object
p2598
(dp2599
g5
S'410463662487261184'
p2600
sg7
g8
sg9
V@shivammax Thank You Thank You, boy! :D :P
p2601
sg11
g8
sbasS'krngrvr09'
p2602
(lp2603
(iObject
Object
p2604
(dp2605
g5
S'970550302167330817'
p2606
sg7
g8
sg9
V@namanspace Hahaha, I guess so! :P
p2607
sg11
g8
sba(iObject
Object
p2608
(dp2609
g5
S'970369869429407745'
p2610
sg7
g8
sg9
VOkay, both things are true. But I did it.
p2611
sg11
g15
sba(iObject
Object
p2612
(dp2613
g5
S'970365624428871680'
p2614
sg7
g8
sg9
VI have spent the last few hours trying to run Torch/iTorch on Mac/Ubuntu/Windows. Is it really so difficult or my skills have gotten rusty?
p2615
sg11
g8
sba(iObject
Object
p2616
(dp2617
g5
S'968920597282435072'
p2618
sg7
g8
sg9
VTIL: Ask for help early.
p2619
sg11
g74
sba(iObject
Object
p2620
(dp2621
g5
S'967687727696117761'
p2622
sg7
g8
sg9
V@agrawalamod Hahaha, it is nott! You have to know the right way!
p2623
sg11
g8
sba(iObject
Object
p2624
(dp2625
g5
S'965245730087690240'
p2626
sg7
g8
sg9
V@iamishitak IKR!
p2627
sg11
g8
sba(iObject
Object
p2628
(dp2629
g5
S'963790274022592517'
p2630
sg7
S'19'
p2631
sg9
VRT @paperfashion: Letter from F. Scott Fitzgerald to his daughter Scottie in 1924. https://t.co/o3dS6rI4gl
p2632
sg11
g8
sba(iObject
Object
p2633
(dp2634
g5
S'963308458631147520'
p2635
sg7
g15
sg9
VRT @Saumyakul: You might like to read this. I am pretty convinced with the logic and factual backing of this one. \u000a\u000ahttps://t.co/6hSMGwdu9V
p2636
sg11
g8
sba(iObject
Object
p2637
(dp2638
g5
S'962963352937992192'
p2639
sg7
g8
sg9
VWHAAATTT? https://t.co/ziEgdjBP5k
p2640
sg11
g8
sba(iObject
Object
p2641
(dp2642
g5
S'960983453859794944'
p2643
sg7
g8
sg9
VBhai! Respect! https://t.co/fRdvzEwxR8
p2644
sg11
g128
sba(iObject
Object
p2645
(dp2646
g5
S'960023189773602816'
p2647
sg7
S'109'
p2648
sg9
VRT @sehurlburt: I just want to tell all the interviewers who pride themselves on giving \u201cintense\u201d interviews\u2014 if a candidate, especially if\u2026
p2649
sg11
g8
sba(iObject
Object
p2650
(dp2651
g5
S'959872802152206336'
p2652
sg7
S'888'
p2653
sg9
VRT @TheWeirdWorld: Maturity is not constant seriousness, but knowing when not to be silly.
p2654
sg11
g8
sba(iObject
Object
p2655
(dp2656
g5
S'959743237329162242'
p2657
sg7
g8
sg9
V#pigeon #pigeonlove #pigeonlife #egg #eggporn #egghunt #bwchallenge #bwphotochallenge\u2026 https://t.co/rcKzYLK3Mx
p2658
sg11
g8
sba(iObject
Object
p2659
(dp2660
g5
S'959368448420859904'
p2661
sg7
g8
sg9
V#abstractart #abstractexpressionism #feathers #feathered #feather #feathering #feathery\u2026 https://t.co/SW4PFVQk9R
p2662
sg11
g8
sba(iObject
Object
p2663
(dp2664
g5
S'958722419467915265'
p2665
sg7
g8
sg9
VA hen is only an egg's way of making another egg.\u000a.\u000a.\u000a.\u000a#pigeon #pigeonlove #pigeonlife #egg\u2026 https://t.co/4Kd1winJ9T
p2666
sg11
g8
sba(iObject
Object
p2667
(dp2668
g5
S'958482336307466240'
p2669
sg7
S'711'
p2670
sg9
VRT @TheWeirdWorld: GoogleDocs should track the percentage of what each group member contributed to a project.
p2671
sg11
g8
sba(iObject
Object
p2672
(dp2673
g5
S'958007304762241025'
p2674
sg7
g8
sg9
VMuh se baat cheen li. https://t.co/1I8NscCKtQ
p2675
sg11
g26
sba(iObject
Object
p2676
(dp2677
g5
S'957578600386981888'
p2678
sg7
g8
sg9
V@agrawalamod Yeahh! &lt;3 I also liked the last scene where her father says "Everyone has a reason for how they behave\u2026 https://t.co/vYClRMGf6l
p2679
sg11
g28
sba(iObject
Object
p2680
(dp2681
g5
S'957558639958540289'
p2682
sg7
g26
sg9
V@agrawalamod "I will have a great big banana shit with extra fucking cherries all on top of it" - Best scene
p2683
sg11
g28
sba(iObject
Object
p2684
(dp2685
g5
S'954319898544517120'
p2686
sg7
g8
sg9
VJust posted a photo @ Singapore https://t.co/wLKmJp5b3r
p2687
sg11
g8
sba(iObject
Object
p2688
(dp2689
g5
S'951361772509806592'
p2690
sg7
g8
sg9
V@JeremyLoops "Udd Gaye" by Ritviz.
p2691
sg11
g8
sba(iObject
Object
p2692
(dp2693
g5
S'950718675459469312'
p2694
sg7
g8
sg9
VWhen you immerse yourself in the natural world, you wander a little through the landscape of\u2026 https://t.co/A4Wmra5f33
p2695
sg11
g8
sba(iObject
Object
p2696
(dp2697
g5
S'950434772379041792'
p2698
sg7
g8
sg9
V@agrawalamod @SaloniKogta @iamishitak Hahahaha
p2699
sg11
g8
sba(iObject
Object
p2700
(dp2701
g5
S'950432839857614848'
p2702
sg7
g8
sg9
V@SaloniKogta @agrawalamod @iamishitak omg omg omg omg *Tags Amod with sharmila monkey wala emoji*! XD
p2703
sg11
g74
sba(iObject
Object
p2704
(dp2705
g5
S'950401653689085952'
p2706
sg7
g8
sg9
V@SaloniKogta @agrawalamod @iamishitak Yepp, the events feature is the best.
p2707
sg11
g8
sba(iObject
Object
p2708
(dp2709
g5
S'950401404589424640'
p2710
sg7
g8
sg9
V@agrawalamod @SaloniKogta @iamishitak Lol, yeah snapchat is dead af. With facebook, I feel that the conversations h\u2026 https://t.co/sjLUzOcUKa
p2711
sg11
g28
sba(iObject
Object
p2712
(dp2713
g5
S'950400287805652992'
p2714
sg7
g8
sg9
V@SaloniKogta @agrawalamod @iamishitak Fair enough :D
p2715
sg11
g8
sba(iObject
Object
p2716
(dp2717
g5
S'950360594900660224'
p2718
sg7
g26
sg9
V@SaloniKogta @agrawalamod @iamishitak The deception is not inherent to the platform. I am pretty sure such people e\u2026 https://t.co/bIf80ir04o
p2719
sg11
g15
sba(iObject
Object
p2720
(dp2721
g5
S'950326446093950976'
p2722
sg7
g8
sg9
V@SaloniKogta @iamishitak K.
p2723
sg11
g8
sba(iObject
Object
p2724
(dp2725
g5
S'950326386316623872'
p2726
sg7
g8
sg9
V@SaloniKogta "Looking for a female roommate. Non-smoker, Non-ugly" - Joey. XD
p2727
sg11
g28
sba(iObject
Object
p2728
(dp2729
g5
S'950299059620790272'
p2730
sg7
g8
sg9
V@iamishitak @SaloniKogta @iamishitak She doesnt even have a reason to not join insta. Argument bhi kya put up karun main XD
p2731
sg11
g26
sba(iObject
Object
p2732
(dp2733
g5
S'950298582204035072'
p2734
sg7
g8
sg9
V@SaloniKogta @iamishitak I feel instagram is on average a happier social network than twitter. You should definitely give it a try.
p2735
sg11
g26
sba(iObject
Object
p2736
(dp2737
g5
S'950020185678741504'
p2738
sg7
g8
sg9
V@SaloniKogta Hahaha! @instagram, You know what to work on next.
p2739
sg11
g26
sba(iObject
Object
p2740
(dp2741
g5
S'950011290834976769'
p2742
sg7
g26
sg9
VOf the varied threads of connection that can stretch between two people \u2014 threads of innumerable\u2026 https://t.co/j91viEPkR9
p2743
sg11
g28
sba(iObject
Object
p2744
(dp2745
g5
S'949567340953460737'
p2746
sg7
g8
sg9
V@dbs_care Hey! I want to transfer my money from my DBS Singapore account to my Indian account. Could you tell me how to do it?
p2747
sg11
g8
sba(iObject
Object
p2748
(dp2749
g5
S'949329534628712448'
p2750
sg7
g8
sg9
V@dbsbank No, I only had one card.
p2751
sg11
g8
sba(iObject
Object
p2752
(dp2753
g5
S'949322351874777089'
p2754
sg7
g8
sg9
V@dbsbank Hello! I have lost my DBS Debit Card. I am not able to call your customer care number. How can I block it using internet banking?
p2755
sg11
g8
sba(iObject
Object
p2756
(dp2757
g5
S'945968061605060608'
p2758
sg7
g8
sg9
VTorn between self-acceptance and self-improvement.
p2759
sg11
g254
sba(iObject
Object
p2760
(dp2761
g5
S'945737377875505153'
p2762
sg7
S'13'
p2763
sg9
VRT @paperfashion: so great https://t.co/bg2EiqmeF8
p2764
sg11
g8
sba(iObject
Object
p2765
(dp2766
g5
S'945737177148801024'
p2767
sg7
g8
sg9
V@SaloniKogta @agrawalamod Yeah, that's why people are smart on texts and stupid in person.
p2768
sg11
g128
sba(iObject
Object
p2769
(dp2770
g5
S'945708104615735297'
p2771
sg7
g8
sg9
V@agrawalamod There are no awkward silences on text.
p2772
sg11
g74
sba(iObject
Object
p2773
(dp2774
g5
S'944100402865123328'
p2775
sg7
g15
sg9
VRT @Saumyakul: Remember, if Christmas isn't found in your heart, you won't find it under a tree.- Charlotte Carpenter
p2776
sg11
g8
sba(iObject
Object
p2777
(dp2778
g5
S'943914333674676225'
p2779
sg7
S'23'
p2780
sg9
VRT @mindfuleveryday: "The one who envies others does not obtain peace of mind." ~ Zen Proverb \u000a#mindfulness
p2781
sg11
g8
sba(iObject
Object
p2782
(dp2783
g5
S'943574396387471360'
p2784
sg7
S'1163'
p2785
sg9
VRT @TheWeirdWorld: There are 4 stages in life. First, you believe in Santa, then you don\u2019t believe in Santa, then you act like Santa, and t\u2026
p2786
sg11
g8
sba(iObject
Object
p2787
(dp2788
g5
S'943566510726848512'
p2789
sg7
g26
sg9
VSometimes some things are unpreventable. You can slow them down, but you can't stop them. I think part of growing u\u2026 https://t.co/t3sa0nU3Dj
p2790
sg11
S'10'
p2791
sba(iObject
Object
p2792
(dp2793
g5
S'943562758011760640'
p2794
sg7
g8
sg9
V@sehurlburt My last 4 retweets. XD https://t.co/x31dElceJD
p2795
sg11
g26
sba(iObject
Object
p2796
(dp2797
g5
S'943562269421551621'
p2798
sg7
S'23'
p2799
sg9
VRT @sehurlburt: If you spend years toiling away at something that provides little value, that customer won't take pity on you and give you\u2026
p2800
sg11
g8
sba(iObject
Object
p2801
(dp2802
g5
S'942837587789545472'
p2803
sg7
S'97'
p2804
sg9
VRT @sehurlburt: I've NEVER passed an interview that involved coding in person (whiteboarding, pair programming, typing code in an editor, f\u2026
p2805
sg11
g8
sba(iObject
Object
p2806
(dp2807
g5
S'942262689987825664'
p2808
sg7
S'8118'
p2809
sg9
VRT @Nicole_Cliffe: I have recently added \u201cI\u2019m sorry, I just don\u2019t know enough about that to have formed an opinion\u201d to my vocabulary and it\u2026
p2810
sg11
g8
sba(iObject
Object
p2811
(dp2812
g5
S'942135469357146112'
p2813
sg7
S'20'
p2814
sg9
VRT @sehurlburt: Hey, let's try something and see how it goes.\u000a\u000aOpen office hours! We can talk about anything.\u000a\u000aIf you see a blank spot in t\u2026
p2815
sg11
g8
sba(iObject
Object
p2816
(dp2817
g5
S'941630739350675457'
p2818
sg7
g8
sg9
V@_atulj I used to follow Umair Haque a lot. Then I stopped. Don't you think his articles are predominantly negative?
p2819
sg11
g8
sba(iObject
Object
p2820
(dp2821
g5
S'940528175242760193'
p2822
sg7
g8
sg9
V@kennethcole @ Delhi https://t.co/JP7H5xqqUR
p2823
sg11
g8
sba(iObject
Object
p2824
(dp2825
g5
S'940457112894705665'
p2826
sg7
g8
sg9
V@SaloniKogta Ship of Theseus toh sahi main \U0001f64f
p2827
sg11
g26
sba(iObject
Object
p2828
(dp2829
g5
S'940293242674802688'
p2830
sg7
g8
sg9
V@SaloniKogta Hahaha! True. It's funny that if we keep breaking things down to the basic level, we start questioning\u2026 https://t.co/TajdBTYO6h
p2831
sg11
g26
sba(iObject
Object
p2832
(dp2833
g5
S'940291892607979520'
p2834
sg7
g8
sg9
VI remain fascinated by poets. Don't you think they are a bit like treasure hunters? They are always on a quest to f\u2026 https://t.co/yVvhBlNGUw
p2835
sg11
g15
sba(iObject
Object
p2836
(dp2837
g5
S'940230567311826947'
p2838
sg7
g26
sg9
VHahaha! https://t.co/55uWHAQSv9
p2839
sg11
g28
sba(iObject
Object
p2840
(dp2841
g5
S'940188476330336256'
p2842
sg7
g8
sg9
V@agrawalamod Start exploring it.
p2843
sg11
g26
sba(iObject
Object
p2844
(dp2845
g5
S'940188388560314370'
p2846
sg7
S'175269'
p2847
sg9
VRT @punkmom_: Just a friendly reminder that anxiety attacks aren\u2019t always hyperventilating &amp; rocking back and forth. They are also\u000a\u2022random\u2026
p2848
sg11
g8
sba(iObject
Object
p2849
(dp2850
g5
S'940188308684005378'
p2851
sg7
g8
sg9
V@SaloniKogta But before that, we should learn how to enforce laws on AI. Unlike a human, whose consciousness is con\u2026 https://t.co/7h9SMkGDeQ
p2852
sg11
g8
sba(iObject
Object
p2853
(dp2854
g5
S'939372956035072000'
p2855
sg7
g8
sg9
V@namanspace Lol XD
p2856
sg11
g8
sba(iObject
Object
p2857
(dp2858
g5
S'939239251123638272'
p2859
sg7
g8
sg9
V@_atulj Good music! So important!
p2860
sg11
g26
sba(iObject
Object
p2861
(dp2862
g5
S'939236658662141952'
p2863
sg7
g26
sg9
VSometimes people make irrational/stupid decisions. It does not mean that their intentions were bad. Forgive them. A\u2026 https://t.co/3JcWk0Mvd0
p2864
sg11
S'13'
p2865
sba(iObject
Object
p2866
(dp2867
g5
S'938794323197308928'
p2868
sg7
S'110958'
p2869
sg9
VRT @ABC: Witnesses say this man pulled over to save a wild rabbit from flames along Highway 1 in Southern California as the massive #Thomas\u2026
p2870
sg11
g8
sba(iObject
Object
p2871
(dp2872
g5
S'938459367380099072'
p2873
sg7
g8
sg9
V@SaloniKogta Okay, done!
p2874
sg11
g8
sba(iObject
Object
p2875
(dp2876
g5
S'938458918392446977'
p2877
sg7
g8
sg9
V@SaloniKogta Woahh! Mereko bhi padhni hai.. Where should I start?
p2878
sg11
g8
sba(iObject
Object
p2879
(dp2880
g5
S'938456950190174208'
p2881
sg7
g8
sg9
V@SaloniKogta Have you read the previous 5?
p2882
sg11
g8
sba(iObject
Object
p2883
(dp2884
g5
S'938429848954945536'
p2885
sg7
g8
sg9
VWoah! https://t.co/hd5V7PWWKC
p2886
sg11
g26
sba(iObject
Object
p2887
(dp2888
g5
S'938125608042708993'
p2889
sg7
g8
sg9
VI like night time. When everyone goes to sleep, I feel freer. The air becomes more breathable. Sometimes I stay awa\u2026 https://t.co/NVNgynTgok
p2890
sg11
g124
sba(iObject
Object
p2891
(dp2892
g5
S'937297663162060805'
p2893
sg7
S'2423'
p2894
sg9
VRT @HoeZaay: Breaking : Exclusive : Paid media will not show you this. Ivanka Trump actually came to India to get her Aadhaar Card done. ht\u2026
p2895
sg11
g8
sba(iObject
Object
p2896
(dp2897
g5
S'935963375670046721'
p2898
sg7
S'220'
p2899
sg9
VRT @sehurlburt: Conflict resolution tip:\u000a\u000aWhen you mess up a work commitment (i.e. late on a deadline), serious &amp; to the point beats upset\u2026
p2900
sg11
g8
sba(iObject
Object
p2901
(dp2902
g5
S'935731790630871040'
p2903
sg7
g15
sg9
VRT @cfiesler: This joke is very eight years ago, but eight-years-ago-me just made me laugh. :)  #PrideAndPrejudiceAndSparklyVampires https:\u2026
p2904
sg11
g8
sba(iObject
Object
p2905
(dp2906
g5
S'934479616453906432'
p2907
sg7
g8
sg9
V@agrawalamod Hahahaha! This will pass as some good relationship advice too! XD
p2908
sg11
g28
sba(iObject
Object
p2909
(dp2910
g5
S'934479150814937088'
p2911
sg7
g8
sg9
V@protichibasak @agrawalamod College Canteen. Where else? :/
p2912
sg11
g8
sba(iObject
Object
p2913
(dp2914
g5
S'934397340252639241'
p2915
sg7
S'183'
p2916
sg9
VRT @sehurlburt: A lesson I've been learning lately:\u000a\u000aIf you find yourself trying to prove yourself to someone a lot, it's better to walk aw\u2026
p2917
sg11
g8
sba(iObject
Object
p2918
(dp2919
g5
S'934393870049091587'
p2920
sg7
g8
sg9
V@agrawalamod Got my stomach upset last night from eating aloo parantha dipped in butter and daal makhani. Not eatin\u2026 https://t.co/Sl7AdwqeVU
p2921
sg11
g8
sba(iObject
Object
p2922
(dp2923
g5
S'934151204552163333'
p2924
sg7
g8
sg9
VHate Butter.
p2925
sg11
g8
sba(iObject
Object
p2926
(dp2927
g5
S'932954225209831424'
p2928
sg7
g8
sg9
V:'( https://t.co/6vh2I1LQGq
p2929
sg11
g8
sba(iObject
Object
p2930
(dp2931
g5
S'932375444397150208'
p2932
sg7
g8
sg9
VInteresting. https://t.co/xDzk2HpTmF
p2933
sg11
g26
sba(iObject
Object
p2934
(dp2935
g5
S'932360898588454912'
p2936
sg7
g8
sg9
V"Yeh jo jitne bhi log protest kar rhe hai na, inko Discrete Mathematics karwa do! Sab solve ho jayega!"\u2026 https://t.co/0zcsEX70MM
p2937
sg11
g74
sba(iObject
Object
p2938
(dp2939
g5
S'932335011092508672'
p2940
sg7
g8
sg9
V\U0001f64f https://t.co/phJ0pv75vx
p2941
sg11
g26
sba(iObject
Object
p2942
(dp2943
g5
S'932189019538055168'
p2944
sg7
S'174'
p2945
sg9
VRT @olafurw: Doing an experiment. I have opened my DM.\u000a\u000aIf you are learning to program and you have a snippet of code you want to get code\u2026
p2946
sg11
g8
sba(iObject
Object
p2947
(dp2948
g5
S'931526489945792512'
p2949
sg7
S'226599'
p2950
sg9
VRT @mrmedina: we dead https://t.co/lUys7DptdZ
p2951
sg11
g8
sba(iObject
Object
p2952
(dp2953
g5
S'931487778361061378'
p2954
sg7
g8
sg9
V@iamishitak @Medium You're welcome! :D
p2955
sg11
g26
sba(iObject
Object
p2956
(dp2957
g5
S'931483121882513408'
p2958
sg7
g8
sg9
V@iamishitak Since this. Probably taken a bit too far. https://t.co/YnCEWEhccB
p2959
sg11
g15
sba(iObject
Object
p2960
(dp2961
g5
S'931424934873636864'
p2962
sg7
g8
sg9
V@AbhirathMahipal Thanks, I'll check these out next. Awesome-Python seems to be a treasure! :D
p2963
sg11
g8
sba(iObject
Object
p2964
(dp2965
g5
S'931424679339757569'
p2966
sg7
g8
sg9
V@AbhirathMahipal @prakharsriv9 Oh, this is great. I have used the 'requests' library before. I'll check both these repos out. Thanks! :D
p2967
sg11
g8
sba(iObject
Object
p2968
(dp2969
g5
S'931251007048245248'
p2970
sg7
g8
sg9
V@AbhirathMahipal Hi @AbhirathMahipal, could you suggest some good python codebase to read. I'd like to start at a b\u2026 https://t.co/wqR3bbPquI
p2971
sg11
g8
sba(iObject
Object
p2972
(dp2973
g5
S'931249952172384256'
p2974
sg7
S'127'
p2975
sg9
VRT @sehurlburt: Those who see success as helping others &amp; good relationships are happier &amp; better humans than those who see success as tech\u2026
p2976
sg11
g8
sba(iObject
Object
p2977
(dp2978
g5
S'930892827667476480'
p2979
sg7
g8
sg9
V@Saumyakul Akkad Bakkad Bambe Bo, Assi Nabbe Pure So.
p2980
sg11
g26
sba(iObject
Object
p2981
(dp2982
g5
S'930359940715126784'
p2983
sg7
g8
sg9
V@agrawalamod https://t.co/VNKCvDke44
p2984
sg11
g15
sba(iObject
Object
p2985
(dp2986
g5
S'930141139662811136'
p2987
sg7
S'1032'
p2988
sg9
VRT @TheWeirdWorld: Life is just a series of obstacles preventing you from taking a nap.
p2989
sg11
g8
sba(iObject
Object
p2990
(dp2991
g5
S'929038455283134464'
p2992
sg7
g8
sg9
V@paperfashion Yesterday I saw a spider, but it was a plug with wires.
p2993
sg11
g26
sba(iObject
Object
p2994
(dp2995
g5
S'928800492460785665'
p2996
sg7
S'367'
p2997
sg9
VRT @TheWeirdWorld: I wonder if the earth has a smell to it that we\u2019ve all gotten used to.
p2998
sg11
g8
sba(iObject
Object
p2999
(dp3000
g5
S'928742737985249280'
p3001
sg7
g8
sg9
V@kunalnayyar @agrawalamod It was a fart joke, Amod! XD
p3002
sg11
g15
sba(iObject
Object
p3003
(dp3004
g5
S'926812574762418177'
p3005
sg7
S'34034'
p3006
sg9
VRT @iamdevloper: 1969:\u000a-what're you doing with that 2KB of RAM?\u000a-sending people to the moon\u000a\u000a2017:\u000a-what're you doing with that 1.5GB of RA\u2026
p3007
sg11
g8
sba(iObject
Object
p3008
(dp3009
g5
S'925111010104565760'
p3010
sg7
g8
sg9
VThere is something very cute about naming the SpaceX rocket recovery drone ship - Ofcourse I Still Love You. https://t.co/SEt7cLvBEI
p3011
sg11
g15
sba(iObject
Object
p3012
(dp3013
g5
S'921723396303421441'
p3014
sg7
g8
sg9
V@agrawalamod Ship of Theseus has part which says exactly this. Boyhood is similar too.
p3015
sg11
g26
sba(iObject
Object
p3016
(dp3017
g5
S'920272486293323776'
p3018
sg7
g8
sg9
V@SaloniKogta In 4 words: "I dont like FRIENDS"
p3019
sg11
g15
sba(iObject
Object
p3020
(dp3021
g5
S'920260763758993408'
p3022
sg7
g8
sg9
V@agrawalamod Hahaha! I can relate to this! XD
p3023
sg11
g8
sba(iObject
Object
p3024
(dp3025
g5
S'919641288030457856'
p3026
sg7
S'2745'
p3027
sg9
VRT @naval: Following your genuine intellectual curiosity is a better foundation for a career than following whatever is making money right\u2026
p3028
sg11
g8
sba(iObject
Object
p3029
(dp3030
g5
S'918199017925853184'
p3031
sg7
g8
sg9
V@SaloniKogta Kogta: *Saying that tweet out loud during the rain*\u000aKids around: "Run run! Crazy umbrella lady is here!"
p3032
sg11
g26
sba(iObject
Object
p3033
(dp3034
g5
S'918038764009787392'
p3035
sg7
g8
sg9
V"So how can we evaluate what experiences we want for ourselves, when it is experiences\u2026 https://t.co/oOzj7dAuUA
p3036
sg11
g8
sba(iObject
Object
p3037
(dp3038
g5
S'917663190623780864'
p3039
sg7
g8
sg9
V@agrawalamod For me, studying means procrastinating studying while eating all the junk food I can
p3040
sg11
g74
sba(iObject
Object
p3041
(dp3042
g5
S'917331693194797062'
p3043
sg7
g8
sg9
VTHIS IS ME. https://t.co/i9vgbqymeJ
p3044
sg11
g124
sba(iObject
Object
p3045
(dp3046
g5
S'916764853586427905'
p3047
sg7
g8
sg9
V@MrBenBrown Yes Ben! Go Ben! \U0001f64c
p3048
sg11
g8
sba(iObject
Object
p3049
(dp3050
g5
S'916575616551419905'
p3051
sg7
S'9744'
p3052
sg9
VRT @ProductHunt: https://t.co/sLc63BzRO1
p3053
sg11
g8
sba(iObject
Object
p3054
(dp3055
g5
S'915614832870567936'
p3056
sg7
g8
sg9
V@agrawalamod True!
p3057
sg11
g8
sba(iObject
Object
p3058
(dp3059
g5
S'914824259049897984'
p3060
sg7
g8
sg9
V@agrawalamod Living in a different country reminds this very often, doesn't it?
p3061
sg11
g8
sba(iObject
Object
p3062
(dp3063
g5
S'914823949476880384'
p3064
sg7
g8
sg9
V@SaloniKogta Awesommee! :D
p3065
sg11
g8
sba(iObject
Object
p3066
(dp3067
g5
S'914181148762292224'
p3068
sg7
S'113'
p3069
sg9
VRT @mindfuleveryday: "Love yourself so much that when someone treats you wrong, you recognize it." ~ Rena Rose \u000a#mindfulness
p3070
sg11
g8
sba(iObject
Object
p3071
(dp3072
g5
S'914080208960897025'
p3073
sg7
S'430'
p3074
sg9
VRT @alicegoldfuss: Quick thread about career goals, progression, and timelines, because I don't see that discussed often here:
p3075
sg11
g8
sba(iObject
Object
p3076
(dp3077
g5
S'913437380824068097'
p3078
sg7
g8
sg9
VHate calls. Messages are so convenient.
p3079
sg11
g8
sba(iObject
Object
p3080
(dp3081
g5
S'913072736225734656'
p3082
sg7
g8
sg9
V@SaloniKogta Naaiiiceee! Fisherman's Cove - Must visit.
p3083
sg11
g26
sba(iObject
Object
p3084
(dp3085
g5
S'913072474639630336'
p3086
sg7
g8
sg9
V@SaloniKogta Oye wow! Kiske saath?
p3087
sg11
g8
sba(iObject
Object
p3088
(dp3089
g5
S'913071482174980096'
p3090
sg7
g8
sg9
V@SaloniKogta Itna purana joke! I expected better! :P
p3091
sg11
g8
sba(iObject
Object
p3092
(dp3093
g5
S'913071109959905280'
p3094
sg7
g8
sg9
VBut character limit badhane se baat thodhna badh jaati hai karne ko! #140Characters https://t.co/HcC7nk5hVy
p3095
sg11
g28
sba(iObject
Object
p3096
(dp3097
g5
S'911581142058274816'
p3098
sg7
g8
sg9
V@iamishitak Or if you turned off the gas after n whistles
p3099
sg11
g8
sba(iObject
Object
p3100
(dp3101
g5
S'910226638608195585'
p3102
sg7
g8
sg9
V&lt;3 https://t.co/1ogHJyD4hQ
p3103
sg11
g26
sba(iObject
Object
p3104
(dp3105
g5
S'910216314786115586'
p3106
sg7
g8
sg9
VMind=Blown https://t.co/hUn8YQObMi
p3107
sg11
g28
sba(iObject
Object
p3108
(dp3109
g5
S'910216108522835969'
p3110
sg7
g8
sg9
V@agrawalamod @SaloniKogta @ParisHilton \U0001f602\U0001f602
p3111
sg11
g8
sba(iObject
Object
p3112
(dp3113
g5
S'910195480948301825'
p3114
sg7
g8
sg9
V@SaloniKogta @ParisHilton Wireless Networks! Midsem Tomorrow -.-'
p3115
sg11
g15
sba(iObject
Object
p3116
(dp3117
g5
S'910164755087753216'
p3118
sg7
g8
sg9
V@ParisHilton Wondering how TCP works in Multi-hop wireless networks. What about you?
p3119
sg11
g408
sba(iObject
Object
p3120
(dp3121
g5
S'907602227170344961'
p3122
sg7
S'11820'
p3123
sg9
VRT @_Plombo: What an apt description of translation this is. https://t.co/vwZCvHsRW3
p3124
sg11
g8
sba(iObject
Object
p3125
(dp3126
g5
S'903589870831931393'
p3127
sg7
S'25'
p3128
sg9
VRT @jeffweiner: Having something to prove can be extremely effective motivator, but will yield success without happiness if hole that can't\u2026
p3129
sg11
g8
sba(iObject
Object
p3130
(dp3131
g5
S'903001167805898752'
p3132
sg7
g8
sg9
VXD https://t.co/dxaZvabx1D
p3133
sg11
g26
sba(iObject
Object
p3134
(dp3135
g5
S'902960653605920769'
p3136
sg7
g8
sg9
V@iamishitak I like it. Click on your name on top-right and turn on the dark theme. You're welcome.
p3137
sg11
g74
sba(iObject
Object
p3138
(dp3139
g5
S'902162054076743680'
p3140
sg7
S'51'
p3141
sg9
VRT @mindfuleveryday: Hate harms the hater, not the hated. \u000a#mindfulness
p3142
sg11
g8
sba(iObject
Object
p3143
(dp3144
g5
S'900394872053448704'
p3145
sg7
g8
sg9
V@SaloniKogta Noooo!
p3146
sg11
g26
sba(iObject
Object
p3147
(dp3148
g5
S'900316891847180288'
p3149
sg7
g8
sg9
V"The idea that we are self-reliant is a core American myth."\u000ahttps://t.co/l0ERAJ88eE
p3150
sg11
g8
sba(iObject
Object
p3151
(dp3152
g5
S'900094160442544128'
p3153
sg7
g8
sg9
VI know, right? https://t.co/jjdo5Qu6Ui
p3154
sg11
g26
sba(iObject
Object
p3155
(dp3156
g5
S'899686348705079300'
p3157
sg7
S'56'
p3158
sg9
VRT @vanschneider: \u201cTry not to become a person of success, but rather try to become a person of value.\u201d \u000a\u000a-Albert Einstein
p3159
sg11
g8
sba(iObject
Object
p3160
(dp3161
g5
S'899384388751769600'
p3162
sg7
g8
sg9
V@SaloniKogta @YouTube On it's birthday every year, the Mars Rover plays a happy birthday tune to celebrate all by i\u2026 https://t.co/sELG3SLiuo
p3163
sg11
g15
sba(iObject
Object
p3164
(dp3165
g5
S'899382635788550144'
p3166
sg7
g8
sg9
VWow! True! https://t.co/B7DV5c6ELG
p3167
sg11
g15
sba(iObject
Object
p3168
(dp3169
g5
S'898870296114896897'
p3170
sg7
g8
sg9
V@SaloniKogta https://t.co/cCtHKXvEOY\u000a\u000aGreat piece of writing. Give it a read, whenever free..
p3171
sg11
g26
sba(iObject
Object
p3172
(dp3173
g5
S'898869873857634304'
p3174
sg7
g8
sg9
V@SaloniKogta @agrawalamod
p3175
sg11
g8
sba(iObject
Object
p3176
(dp3177
g5
S'898790134136557568'
p3178
sg7
S'672'
p3179
sg9
VRT @TheWeirdWorld: I wonder how many times I\u2019ve seen the same bird without realizing it.
p3180
sg11
g8
sba(iObject
Object
p3181
(dp3182
g5
S'898099641006161920'
p3183
sg7
g8
sg9
V@namanspace Hahaha! I'm doomed!
p3184
sg11
g8
sba(iObject
Object
p3185
(dp3186
g5
S'897926439785316353'
p3187
sg7
g8
sg9
VYup. https://t.co/ZnlztePlPk
p3188
sg11
g8
sba(iObject
Object
p3189
(dp3190
g5
S'897909092617863168'
p3191
sg7
g8
sg9
VAbout to set regular reminders on my phone with the text: "Don't think too much"
p3192
sg11
g8
sba(iObject
Object
p3193
(dp3194
g5
S'897883266153201664'
p3195
sg7
g8
sg9
VWhen it hits you. https://t.co/0uQIVLkMS6
p3196
sg11
g15
sba(iObject
Object
p3197
(dp3198
g5
S'897545341469212673'
p3199
sg7
S'681'
p3200
sg9
VRT @TheWeirdWorld: I wonder if that person who I haven't talked to in years ever wonders the same thing about me.
p3201
sg11
g8
sba(iObject
Object
p3202
(dp3203
g5
S'897539136302854144'
p3204
sg7
g8
sg9
VFollow this guy. I love him. https://t.co/8nnlwLf0LA
p3205
sg11
g26
sba(iObject
Object
p3206
(dp3207
g5
S'897403814189293568'
p3208
sg7
g8
sg9
V@iamishitak Yes. Think of it as analogous to a tree that spends a lot of time growing the roots, and once the found\u2026 https://t.co/oIW9F26jIb
p3209
sg11
g26
sba(iObject
Object
p3210
(dp3211
g5
S'897025499347664896'
p3212
sg7
g8
sg9
VLol, I guess I will... https://t.co/VKFI15cbMP
p3213
sg11
g8
sba(iObject
Object
p3214
(dp3215
g5
S'896778532172517376'
p3216
sg7
g8
sg9
V@iamishitak Reflection of how we are so concerned by others' opinions about ourselves
p3217
sg11
g26
sba(iObject
Object
p3218
(dp3219
g5
S'896755678018236417'
p3220
sg7
g8
sg9
V"Ancient tragedy tends to be about internal destruction &amp; succumbing to an essential fault that cant be overcome. "\u000a\u000ahttps://t.co/ffzcNYvSKP
p3221
sg11
g8
sba(iObject
Object
p3222
(dp3223
g5
S'896477375516483584'
p3224
sg7
g8
sg9
V@OpenAI @namanspace For fun?
p3225
sg11
g8
sba(iObject
Object
p3226
(dp3227
g5
S'896256597776715776'
p3228
sg7
g8
sg9
VLOL! https://t.co/DSey0zbqBr
p3229
sg11
g28
sba(iObject
Object
p3230
(dp3231
g5
S'896123454075711488'
p3232
sg7
g8
sg9
V@iamishitak If the skies are clear, then I think they should be visible..\u000aP.S - College ke lawn se accha view hoga :P
p3233
sg11
g8
sba(iObject
Object
p3234
(dp3235
g5
S'896063985371369472'
p3236
sg7
g8
sg9
V@iamishitak Me tooo! :(
p3237
sg11
g8
sba(iObject
Object
p3238
(dp3239
g5
S'895570315362816000'
p3240
sg7
g8
sg9
V@SoUmmYaah @namanspace Hahaha! Yeah! :P
p3241
sg11
g8
sba(iObject
Object
p3242
(dp3243
g5
S'895532284517994496'
p3244
sg7
g8
sg9
V@namanspace There must be interns who are there to watch and learn from the director, actors, makeup artists, etc. No? :P
p3245
sg11
g8
sba(iObject
Object
p3246
(dp3247
g5
S'895520007693709312'
p3248
sg7
g8
sg9
VExactlyy! Stick around peoplee! :) https://t.co/9C9vSKfcL3
p3249
sg11
g28
sba(iObject
Object
p3250
(dp3251
g5
S'895315071760351232'
p3252
sg7
g8
sg9
VSometimes we confuse 'unfamiliar' with 'bad'.
p3253
sg11
g28
sba(iObject
Object
p3254
(dp3255
g5
S'895262352001519618'
p3256
sg7
g8
sg9
V... at a convention for stutterers. https://t.co/zQE7eaaHTr
p3257
sg11
g8
sba(iObject
Object
p3258
(dp3259
g5
S'895262115451109380'
p3260
sg7
g8
sg9
VNew favourite literary genre: Memoirs.This one's by Rachel Hoge who, for the first time finds herself among many just like her...
p3261
sg11
g26
sba(iObject
Object
p3262
(dp3263
g5
S'895244981522137088'
p3264
sg7
g8
sg9
V@SaloniKogta hahaha! Yeah :P
p3265
sg11
g8
sba(iObject
Object
p3266
(dp3267
g5
S'895204310081982464'
p3268
sg7
g8
sg9
V@SaloniKogta Lol, look what wikipedia has to say :P https://t.co/F8OJSTLAZA
p3269
sg11
g26
sba(iObject
Object
p3270
(dp3271
g5
S'895186846883487745'
p3272
sg7
g8
sg9
V@SaloniKogta It's interesting to categorize AI as a living being. One of the first living creatures without shape or form.
p3273
sg11
g8
sba(iObject
Object
p3274
(dp3275
g5
S'895034630197268480'
p3276
sg7
g8
sg9
VMust be the intern \U0001f602\U0001f602 https://t.co/YsgLQEGMCS
p3277
sg11
g26
sba(iObject
Object
p3278
(dp3279
g5
S'895020543904071680'
p3280
sg7
g8
sg9
V@SaloniKogta What will be the dominant life form then?
p3281
sg11
g8
sba(iObject
Object
p3282
(dp3283
g5
S'894849113484738560'
p3284
sg7
g26
sg9
VTrue. Also, the content you consume passively is as important as what you consume actively. https://t.co/gwnoXCiEFM
p3285
sg11
g28
sba(iObject
Object
p3286
(dp3287
g5
S'894606881703903232'
p3288
sg7
g8
sg9
V@SaloniKogta Oh, lol! Keep going, yeh season best hai! &lt;3
p3289
sg11
g26
sba(iObject
Object
p3290
(dp3291
g5
S'894605455514664960'
p3292
sg7
g8
sg9
V@SaloniKogta Konse episode ka spoiler? 4 or 5?
p3293
sg11
g8
sba(iObject
Object
p3294
(dp3295
g5
S'894605274840838144'
p3296
sg7
g28
sg9
VRT @vanschneider: Every time in August I send my weekly email and I get a auto-reply back from every Swedish subscriber saying "I'm off all\u2026
p3297
sg11
g8
sba(iObject
Object
p3298
(dp3299
g5
S'893717148736016384'
p3300
sg7
S'702'
p3301
sg9
VRT @TheWeirdWorld: It\u2019s a good thing farts aren\u2019t \u201ccontagious\u201d like yawns.
p3302
sg11
g8
sba(iObject
Object
p3303
(dp3304
g5
S'893501150695047172'
p3305
sg7
g8
sg9
VLife is one big resource allocation problem :P
p3306
sg11
g74
sba(iObject
Object
p3307
(dp3308
g5
S'893407532554657792'
p3309
sg7
S'1666'
p3310
sg9
VRT @TheWeirdWorld: Maybe Voldemort\u2019s face is flat because he ran into the wrong wall at the train station.
p3311
sg11
g8
sba(iObject
Object
p3312
(dp3313
g5
S'893178415720800256'
p3314
sg7
g8
sg9
VIf only I could be paid to ruminate.
p3315
sg11
g26
sba(iObject
Object
p3316
(dp3317
g5
S'893178098006413312'
p3318
sg7
g8
sg9
V@iamishitak  https://t.co/lIxZDYxhkX
p3319
sg11
g26
sba(iObject
Object
p3320
(dp3321
g5
S'893177953764245504'
p3322
sg7
g8
sg9
V@SaloniKogta  https://t.co/rhFR25Ry5x
p3323
sg11
g74
sba(iObject
Object
p3324
(dp3325
g5
S'893147612831821824'
p3326
sg7
g8
sg9
VCan someone please explain this to my mom and sister? XD https://t.co/9Ph10FJMYM
p3327
sg11
g128
sba(iObject
Object
p3328
(dp3329
g5
S'892820088939626496'
p3330
sg7
S'786'
p3331
sg9
VRT @TheWeirdWorld: Someone is going to say \u201cI have to go to the moon\u201d in a bored, defeated tone one day
p3332
sg11
g8
sba(iObject
Object
p3333
(dp3334
g5
S'892673986974240770'
p3335
sg7
g8
sg9
V@BombayTrooper Hey, I ordered my bag on 26th June. I haven't received any update regarding it. Can you help me out?
p3336
sg11
g8
sba(iObject
Object
p3337
(dp3338
g5
S'892438912219533312'
p3339
sg7
S'81'
p3340
sg9
VRT @Southern_Sass__: "No" does not mean "convince me".
p3341
sg11
g8
sba(iObject
Object
p3342
(dp3343
g5
S'891015668086198272'
p3344
sg7
g8
sg9
V@iamishitak Hahaha, ab toh bas dekhti ja! :P
p3345
sg11
g26
sba(iObject
Object
p3346
(dp3347
g5
S'891015346739527680'
p3348
sg7
g26
sg9
VRT @pertorstensson: @CharlesDerekMay @ThomasWagenaar @OpenAI Procrastinate? Anyhow, survival - as opposed to rewards - tends to be life\u2019s b\u2026
p3349
sg11
g8
sba(iObject
Object
p3350
(dp3351
g5
S'891009849923821568'
p3352
sg7
g8
sg9
V@iamishitak From season 1?
p3353
sg11
g8
sba(iObject
Object
p3354
(dp3355
g5
S'890872536623325185'
p3356
sg7
g8
sg9
V@agrawalamod hahaha
p3357
sg11
g8
sba(iObject
Object
p3358
(dp3359
g5
S'890712723721289729'
p3360
sg7
g8
sg9
V@agrawalamod Were you drunk 3 times this week? :P
p3361
sg11
g8
sba(iObject
Object
p3362
(dp3363
g5
S'890712584835301376'
p3364
sg7
g8
sg9
V@agrawalamod Great song! :D
p3365
sg11
g8
sba(iObject
Object
p3366
(dp3367
g5
S'889895234150084609'
p3368
sg7
g8
sg9
VWhy am I so tired all the time?
p3369
sg11
g8
sba(iObject
Object
p3370
(dp3371
g5
S'889825840589979652'
p3372
sg7
S'9637'
p3373
sg9
VRT @elonmusk: @dcunni @SVbizjournal I've talked to Mark about this. His understanding of the subject is limited.
p3374
sg11
g8
sba(iObject
Object
p3375
(dp3376
g5
S'889083928325144577'
p3377
sg7
g8
sg9
V@BombayTrooper Hey, I want to order the Trooper Bag. I cannot see the buy button here: https://t.co/Y6Tm72gkBl. Can you help me out?
p3378
sg11
g8
sba(iObject
Object
p3379
(dp3380
g5
S'888505420586770433'
p3381
sg7
S'61'
p3382
sg9
VRT @jasonfried: This toaster has an \u201ca bit more\u201d button. Great design. (via @zachwaugh) https://t.co/Zi1tmPL3ss
p3383
sg11
g8
sba(iObject
Object
p3384
(dp3385
g5
S'888391873689141249'
p3386
sg7
g8
sg9
V@agrawalamod I feel many times people use social media to compensate for what is missing. Like when you take selfie\u2026 https://t.co/UFFce0SEQm
p3387
sg11
g26
sba(iObject
Object
p3388
(dp3389
g5
S'888310769208541184'
p3390
sg7
g8
sg9
V@iamishitak :( This is a reminder that fame/success doesn't lead to emotional well being.
p3391
sg11
g26
sba(iObject
Object
p3392
(dp3393
g5
S'888308360767954944'
p3394
sg7
g8
sg9
V@TheWeirdWorld  https://t.co/qFXpHc1Wae
p3395
sg11
S'18'
p3396
sba(iObject
Object
p3397
(dp3398
g5
S'888116670056718336'
p3399
sg7
S'56'
p3400
sg9
VRT @JeremyLoops: If you have mental health struggles, please know that you\u2019re loved, and help is out there. RIP Chester Bennington.\u000ahttps:/\u2026
p3401
sg11
g8
sba(iObject
Object
p3402
(dp3403
g5
S'888034411345616897'
p3404
sg7
S'110854'
p3405
sg9
VRT @SouthBeachSheed: I laugh at anything man https://t.co/OWUrASmT97
p3406
sg11
g8
sba(iObject
Object
p3407
(dp3408
g5
S'887236973059952641'
p3409
sg7
S'1465'
p3410
sg9
VRT @TheWeirdWorld: I like to stay up at night because the world feels like it stops for a few hours and you don\u2019t have any responsibilities
p3411
sg11
g8
sba(iObject
Object
p3412
(dp3413
g5
S'886291393823387648'
p3414
sg7
S'44'
p3415
sg9
VRT @jasonfried: Within the next few weeks, @garyvee @dhh and I will be recording a podcast together. Got Q\u2019s for us? Reply and tag \u2018em #GVD\u2026
p3416
sg11
g8
sba(iObject
Object
p3417
(dp3418
g5
S'885816475637825536'
p3419
sg7
g8
sg9
V@agrawalamod I had a similar thought once. We should be able to save our current feeling and feel it again in the future. :P
p3420
sg11
g8
sba(iObject
Object
p3421
(dp3422
g5
S'885790497108656128'
p3423
sg7
g8
sg9
V@SaloniKogta Pretend that you're understanding it and then pitch in in English. Humour has it's own way of getting tough things across :P
p3424
sg11
g26
sba(iObject
Object
p3425
(dp3426
g5
S'885202438038224897'
p3427
sg7
g8
sg9
VAlways living for this. https://t.co/xdOYKK7DYj
p3428
sg11
g254
sba(iObject
Object
p3429
(dp3430
g5
S'885198522848395264'
p3431
sg7
g8
sg9
V@SaloniKogta You can do whatever you want. Just be badass about it. https://t.co/ZK2GLnV75m
p3432
sg11
g26
sba(iObject
Object
p3433
(dp3434
g5
S'885035819421061120'
p3435
sg7
g8
sg9
V@SaloniKogta Passing paper chits to chat. Doodling on the last page of notebooks. Making tattoos on hand with pen.\u2026 https://t.co/j27Y7oNIi1
p3436
sg11
g28
sba(iObject
Object
p3437
(dp3438
g5
S'885023448417923072'
p3439
sg7
S'894'
p3440
sg9
VRT @TheWeirdWorld: Genetically engineered mosquitoes that vaccinate everyone.
p3441
sg11
g8
sba(iObject
Object
p3442
(dp3443
g5
S'884797577958481920'
p3444
sg7
g26
sg9
VOkay, I think it's official. If you want to cheer me up, good food is the answer.
p3445
sg11
S'10'
p3446
sba(iObject
Object
p3447
(dp3448
g5
S'884413658012372993'
p3449
sg7
S'1198'
p3450
sg9
VRT @TheWeirdWorld: No matter how old I get, I always feel like everyone older than myself is a \u201creal\u201d adult and I\u2019m just faking it somehow.
p3451
sg11
g8
sbasS'sbagroy986'
p3452
(lp3453
(iObject
Object
p3454
(dp3455
g5
S'538731555435208704'
p3456
sg7
g8
sg9
VGot selected by @StarMoviesIndia  for #StarMoviesSecretScreening ! Was this a lucky day or what?
p3457
sg11
g8
sbasS'iamgroot42'
p3458
(lp3459
(iObject
Object
p3460
(dp3461
g5
S'971251833414053889'
p3462
sg7
S'96'
p3463
sg9
VRT @fchollet: The building blocks of interpretability: https://t.co/ZrZf4UVCs3
p3464
sg11
g8
sba(iObject
Object
p3465
(dp3466
g5
S'969716944260694018'
p3467
sg7
g8
sg9
V\U0001f937\u200d\u2642\ufe0f\U0001f33b https://t.co/fxEalz9ljU
p3468
sg11
g26
sba(iObject
Object
p3469
(dp3470
g5
S'969091952628072448'
p3471
sg7
g8
sg9
VAwesome! \U0001f604 https://t.co/lDmTPLSyt5
p3472
sg11
g8
sba(iObject
Object
p3473
(dp3474
g5
S'969091792212758528'
p3475
sg7
g8
sg9
V@TensorFlow Added to my to-do list! \U0001f62c\U0001f62c
p3476
sg11
g8
sba(iObject
Object
p3477
(dp3478
g5
S'968969635608645633'
p3479
sg7
g8
sg9
VData science for good \u2665\ufe0f\u2665\ufe0f https://t.co/lw0AoCZ8Ih
p3480
sg11
g8
sba(iObject
Object
p3481
(dp3482
g5
S'968968933637283841'
p3483
sg7
g8
sg9
V@RailsGirlsSoC Yeah, finally \U0001f605
p3484
sg11
g26
sba(iObject
Object
p3485
(dp3486
g5
S'968899550797844481'
p3487
sg7
g8
sg9
V@RailsGirlsSoC Just sent one. :/
p3488
sg11
g8
sba(iObject
Object
p3489
(dp3490
g5
S'968896708385103873'
p3491
sg7
g8
sg9
V@RailsGirlsSoC Status quo :(
p3492
sg11
g8
sba(iObject
Object
p3493
(dp3494
g5
S'968895273924726784'
p3495
sg7
g8
sg9
V@RailsGirlsSoC Same error :((
p3496
sg11
g8
sba(iObject
Object
p3497
(dp3498
g5
S'968893901863112704'
p3499
sg7
g8
sg9
V@RailsGirlsSoC The deadline's gone, and it's still not opening. We missed it :(\u000aPlease look into this issue and may\u2026 https://t.co/jls9Js5PvI
p3500
sg11
g8
sba(iObject
Object
p3501
(dp3502
g5
S'968892002204078080'
p3503
sg7
g8
sg9
V@RailsGirlsSoC The website's not even opening. Been in it for 15 minutes now. Can it be extended for a couple of mi\u2026 https://t.co/uQlwqh6jiR
p3504
sg11
g8
sba(iObject
Object
p3505
(dp3506
g5
S'968890726502273024'
p3507
sg7
g8
sg9
V@RailsGirlsSoC website's down! :(
p3508
sg11
g8
sba(iObject
Object
p3509
(dp3510
g5
S'968358679002206208'
p3511
sg7
S'32'
p3512
sg9
VRT @NicolasPapernot: Find out why privacy and accuracy are not necessarily enemies! The new PATE is more accurate, more private and more co\u2026
p3513
sg11
g8
sba(iObject
Object
p3514
(dp3515
g5
S'967879964916944896'
p3516
sg7
S'313'
p3517
sg9
VRT @fchollet: DeepPavlov: open-source library for building chatbots, built on top of TensorFlow &amp; Keras https://t.co/xhAffW2KgQ
p3518
sg11
g8
sba(iObject
Object
p3519
(dp3520
g5
S'966933919785476096'
p3521
sg7
g8
sg9
VLack of time can allow adversarial examples to fool us as well! Interesting read.. https://t.co/zOREiSX7AN
p3522
sg11
g8
sba(iObject
Object
p3523
(dp3524
g5
S'966933638779736064'
p3525
sg7
g8
sg9
V@goodfellow_ian Time-limited humans end up incorrectly classifying...I wonder if what goes on inside our heads is s\u2026 https://t.co/MDiqIHqpXO
p3526
sg11
g26
sba(iObject
Object
p3527
(dp3528
g5
S'966204288862126080'
p3529
sg7
g15
sg9
VRT @Tanmoy_Chak: Looking for one Research Associate on a @serbonlinb, @IndiaDST  project (#RamanujanFellowship). Broad areas: #DataScience\u2026
p3530
sg11
g8
sba(iObject
Object
p3531
(dp3532
g5
S'965594520132947968'
p3533
sg7
g8
sg9
VAn awesome lecture by @goodfellow_ian on Adversarial Examples and Training https://t.co/5nbKUFvJ1O
p3534
sg11
g8
sba(iObject
Object
p3535
(dp3536
g5
S'961885682229829632'
p3537
sg7
g8
sg9
VNever trust any developer whose code has both \U0001f606 https://t.co/WDg8ibRT8E
p3538
sg11
g8
sba(iObject
Object
p3539
(dp3540
g5
S'961597625354121217'
p3541
sg7
g8
sg9
VAn interesting read on neuroevolution https://t.co/ysYuJKqpnp TL; DR: Letting machines build models with sufficient\u2026 https://t.co/SpZEbidS4O
p3542
sg11
g8
sba(iObject
Object
p3543
(dp3544
g5
S'961263733208215552'
p3545
sg7
S'35'
p3546
sg9
VRT @NicolasPapernot: The code for Adversarial Patch by Brown et al. is now available on #CleverHans https://t.co/1JsRuugNZ7 https://t.co/Np\u2026
p3547
sg11
g8
sba(iObject
Object
p3548
(dp3549
g5
S'961183896871120896'
p3550
sg7
S'299'
p3551
sg9
VRT @goodfellow_ian: To gain some idea of the far future of ML security, we studied a simple toy problem called "adversarial spheres," simul\u2026
p3552
sg11
g8
sba(iObject
Object
p3553
(dp3554
g5
S'961114666788417536'
p3555
sg7
g8
sg9
V@kanikasaini911 @RailsGirlsSoC I can help with a Python project as a coach.
p3556
sg11
g26
sba(iObject
Object
p3557
(dp3558
g5
S'959089345172004864'
p3559
sg7
S'26203'
p3560
sg9
VRT @MKBHD: For every tweet/RT today with #BellLetsTalk, 5 will be donated toward mental health initiatives. Genuine good cause. Happy to b\u2026
p3561
sg11
g8
sba(iObject
Object
p3562
(dp3563
g5
S'958222356022927361'
p3564
sg7
S'79'
p3565
sg9
VRT @goodfellow_ian: Our paper on Ensemble Adversarial Training has been accepted to ICLR. This approach increases robustness of models in t\u2026
p3566
sg11
g8
sba(iObject
Object
p3567
(dp3568
g5
S'958006714028113920'
p3569
sg7
g15
sg9
VHave relevant experience in AI/Python/WebDev. Profile: https://t.co/oejerQOknh   Looking for a motivated team to co\u2026 https://t.co/zhVHDjZndF
p3570
sg11
g15
sba(iObject
Object
p3571
(dp3572
g5
S'954388878210752512'
p3573
sg7
g8
sg9
VAwesome work! :O https://t.co/hoBaFA6YJT
p3574
sg11
g26
sba(iObject
Object
p3575
(dp3576
g5
S'951895182647021569'
p3577
sg7
S'62'
p3578
sg9
VRT @goodfellow_ian: Same goes for adversarial ML https://t.co/A8GoVkSjkG
p3579
sg11
g8
sba(iObject
Object
p3580
(dp3581
g5
S'950571199859343360'
p3582
sg7
g8
sg9
VSometimes I feel the hours of sleep our body requires is inversely proportional to the temperature outside ;_; Even\u2026 https://t.co/hERkfVkDvi
p3583
sg11
g26
sba(iObject
Object
p3584
(dp3585
g5
S'949863022452924416'
p3586
sg7
S'671'
p3587
sg9
VRT @ylecun: This is to AI as prestidigitation is to real magic. \u000aPerhaps we should call this "Cargo Cult AI" or "Potemkin AI" or "Wizard-of\u2026
p3588
sg11
g8
sba(iObject
Object
p3589
(dp3590
g5
S'904592269432553472'
p3591
sg7
g8
sg9
VNew sota for language understanding : https://t.co/FaY1RqGWHV. One step closer to Skynet :P @googleresearch
p3592
sg11
g8
sba(iObject
Object
p3593
(dp3594
g5
S'894874382299942913'
p3595
sg7
g8
sg9
V:O https://t.co/XfbsRIHrOG
p3596
sg11
g8
sba(iObject
Object
p3597
(dp3598
g5
S'892423865913155584'
p3599
sg7
g8
sg9
VFirst publication \U0001f60d\U0001f60d https://t.co/HwTKf89ECF
p3600
sg11
g28
sba(iObject
Object
p3601
(dp3602
g5
S'891555416055861249'
p3603
sg7
g8
sg9
Vdamn :O https://t.co/Xt3vx4aEwB
p3604
sg11
g8
sba(iObject
Object
p3605
(dp3606
g5
S'890628401542774784'
p3607
sg7
g8
sg9
V\U0001f436 https://t.co/wMkJ1CtjVl
p3608
sg11
g8
sba(iObject
Object
p3609
(dp3610
g5
S'890197986235473924'
p3611
sg7
g8
sg9
VTransfer learning for machine reading comprehension - Microsoft Research https://t.co/ELqwS0Z6B0 via @MSFTResearch
p3612
sg11
g26
sba(iObject
Object
p3613
(dp3614
g5
S'889489950407667712'
p3615
sg7
g8
sg9
Vwoah :O https://t.co/Upw05tqvo8
p3616
sg11
g8
sba(iObject
Object
p3617
(dp3618
g5
S'888284327041130496'
p3619
sg7
g295
sg9
VRT @PyDataDelhi: Last 10 days to submit proposals for #PyDataDelhi17\u000aSubmit here: https://t.co/jZq1cGQ7HX\u000aTickets: https://t.co/mpGBH0OX6l\u2026
p3620
sg11
g8
sba(iObject
Object
p3621
(dp3622
g5
S'888055356990955521'
p3623
sg7
S'84'
p3624
sg9
VRT @googleresearch: We're happy to announce that #motionstills is now available for devices running Android 5.1 and later. Learn more at ht\u2026
p3625
sg11
g8
sba(iObject
Object
p3626
(dp3627
g5
S'887730084865490944'
p3628
sg7
g8
sg9
V@Apple's blog on Machine Learning &amp; AI : An interesting read about GANs and their use in synthesizing data https://t.co/xR6z9KaG2s
p3629
sg11
g8
sba(iObject
Object
p3630
(dp3631
g5
S'887257048789929985'
p3632
sg7
g26
sg9
V@PyDataDelhi  at @IIITDelhi \u2764\ufe0f https://t.co/6GY5zlcJ6r
p3633
sg11
g124
sba(iObject
Object
p3634
(dp3635
g5
S'881105883001913344'
p3636
sg7
g15
sg9
VIntro to @tensorflow at @Google,Hyderabad by @WomenTechmakers \u000aAn awesome initiative!\u000aGreat to see people being initiated into ML\u000a#WTMIndia
p3637
sg11
g15
sbasS'lifecodemohit'
p3638
(lp3639
sS'protoshit'
p3640
(lp3641
(iObject
Object
p3642
(dp3643
g5
S'711541043318095874'
p3644
sg7
g8
sg9
V@Es_Py16 k
p3645
sg11
g8
sba(iObject
Object
p3646
(dp3647
g5
S'711540989765230597'
p3648
sg7
g26
sg9
VRT @Es_Py16: @protoshit my brother follows me on Twitter.\u000a*sits down* *tries not to cry* *cries a lot*
p3649
sg11
g8
sba(iObject
Object
p3650
(dp3651
g5
S'682682897212424192'
p3652
sg7
g8
sg9
V@TheFarahKhan Aren't you feeling proud your movie title is trending?
p3653
sg11
g8
sba(iObject
Object
p3654
(dp3655
g5
S'682681670839877632'
p3656
sg7
g8
sg9
V@mojorojo stop showing off your super fuck sized TV
p3657
sg11
g26
sba(iObject
Object
p3658
(dp3659
g5
S'680278614286462978'
p3660
sg7
g295
sg9
VRT @mojorojo: And JJ Abrams, take a bow. They gave him the biggest, toughest job in all fandom, and he brought it home in under 12 parsecs
p3661
sg11
g8
sba(iObject
Object
p3662
(dp3663
g5
S'680278598402633728'
p3664
sg7
S'11'
p3665
sg9
VRT @mojorojo: #TheForceAwakens hits a ton of great beats from the original trilogy, but never in a way where it feels like fan service for \u2026
p3666
sg11
g8
sba(iObject
Object
p3667
(dp3668
g5
S'680278588097228800'
p3669
sg7
g295
sg9
VRT @mojorojo: Also, everyone is terrific in #TheForceAwakens. The old cast feels like a warm hug and the new cast like a cool breeze.
p3670
sg11
g8
sba(iObject
Object
p3671
(dp3672
g5
S'680278560611921920'
p3673
sg7
S'12'
p3674
sg9
VRT @mojorojo: I LOVED The Force Awakens. It has its flaws, but it's Star Wars in a way that the prequels never were. Left with a HUGE grin \u2026
p3675
sg11
g8
sba(iObject
Object
p3676
(dp3677
g5
S'679322015057117185'
p3678
sg7
S'72'
p3679
sg9
VRT @kalyanrath: If a couple is in a live-in relationship, are they still going out?
p3680
sg11
g8
sba(iObject
Object
p3681
(dp3682
g5
S'676495016743735296'
p3683
sg7
S'188'
p3684
sg9
VRT @TheViralFever: SRK's Breaking Bad be like... https://t.co/yZdLeE0LNN
p3685
sg11
g8
sbasS'deepak201500'
p3686
(lp3687
(iObject
Object
p3688
(dp3689
g5
S'971261902004346880'
p3690
sg7
g8
sg9
V\U0001f600\U0001f605\U0001f60e\U0001f61c
p3691
sg11
g8
sba(iObject
Object
p3692
(dp3693
g5
S'970226730228105216'
p3694
sg7
g8
sg9
V\U0001f600\U0001f605\U0001f60e\U0001f61c
p3695
sg11
g8
sba(iObject
Object
p3696
(dp3697
g5
S'969857455923527681'
p3698
sg7
g8
sg9
VNice! https://t.co/ylT1M2nFzx
p3699
sg11
g8
sba(iObject
Object
p3700
(dp3701
g5
S'967485483126161408'
p3702
sg7
g8
sg9
Vhttps://t.co/KSbWhNXEE5 via @sportskeeda
p3703
sg11
g8
sba(iObject
Object
p3704
(dp3705
g5
S'952101249133903872'
p3706
sg7
g8
sg9
VHarsha Bhogle: Staggered by the exclusion of Bhuvaneswar. Staggered. One player gave yo... https://t.co/u9uxi8Q8Fq #RSAvIND via @cricbuzz
p3707
sg11
g8
sba(iObject
Object
p3708
(dp3709
g5
S'950368646538252289'
p3710
sg7
g8
sg9
VHello 2018 https://t.co/B0gUxb37CV #codeforces
p3711
sg11
g8
sba(iObject
Object
p3712
(dp3713
g5
S'940942214800162819'
p3714
sg7
g8
sg9
VHarsha Bhogle: A third double for Rohit. When the conditions are in his favour, he is r... https://t.co/2xc1B2jS3Z #INDvSL via @cricbuzz
p3715
sg11
g8
sba(iObject
Object
p3716
(dp3717
g5
S'937712749798350848'
p3718
sg7
g8
sg9
VICWSM-18 - Home - Welcome https://t.co/WLzpMg5a5m #icwsm via @icwsm
p3719
sg11
g8
sba(iObject
Object
p3720
(dp3721
g5
S'935179684857331714'
p3722
sg7
g8
sg9
VJoin me and sign up to compete in World CodeSprint 12 on @hackerrank https://t.co/5io98mHuuC
p3723
sg11
g8
sba(iObject
Object
p3724
(dp3725
g5
S'932814654211891200'
p3726
sg7
g8
sg9
Vhttps://t.co/3VjVsH6fDE
p3727
sg11
g8
sba(iObject
Object
p3728
(dp3729
g5
S'928303478832644096'
p3730
sg7
g8
sg9
VPrime Minister Modi: Clean Air In Delhi City - Sign the Petition! https://t.co/OS5e3tM41K via @ChangeOrg_India
p3731
sg11
g8
sba(iObject
Object
p3732
(dp3733
g5
S'926750030114971650'
p3734
sg7
g8
sg9
VSymbolic Execution with Mixed Concrete-Symbolic Solving - ppt download https://t.co/hQoaWUlDqc
p3735
sg11
g8
sba(iObject
Object
p3736
(dp3737
g5
S'917467793867468800'
p3738
sg7
g8
sg9
V@republic Shit reporting, how can u have majority voting 4 wrong cause, seriously doubt the results? \u000aSurely BJP governed channel.
p3739
sg11
g26
sba(iObject
Object
p3740
(dp3741
g5
S'916355118521397249'
p3742
sg7
g8
sg9
V@WhoSunilGrover yo
p3743
sg11
g8
sba(iObject
Object
p3744
(dp3745
g5
S'916354923062636544'
p3746
sg7
g8
sg9
V@KapilSharmaK9 yo
p3747
sg11
g8
sba(iObject
Object
p3748
(dp3749
g5
S'878557295906390016'
p3750
sg7
g26
sg9
VCrickHIT for Six in today's #Cricket #GoogleDoodle! \U0001f3cf Score: 128\u000ahttps://t.co/MwLEd74jQK
p3751
sg11
g8
sba(iObject
Object
p3752
(dp3753
g5
S'870369945749643264'
p3754
sg7
g8
sg9
VCrickHIT for Six in today's #Cricket #GoogleDoodle! \U0001f3cf Score: 102\u000ahttps://t.co/1Q1cUs5ttg
p3755
sg11
g8
sba(iObject
Object
p3756
(dp3757
g5
S'866582573715083264'
p3758
sg7
S'1098'
p3759
sg9
VRT @sagarcasm: This week, we learnt the importance of 1:\u000a\u000a#IPLFinal can be won by MI by 1 run\u000a\u000aPakistan can be humiliated by Harish Salve i\u2026
p3760
sg11
g8
sba(iObject
Object
p3761
(dp3762
g5
S'866582015004491777'
p3763
sg7
S'226'
p3764
sg9
VRT @Atheist_Krishna: FIXED hai ye IPL.\u000aModi aur Ambani mile hue hain ji.\u000a\u000a#IPLfinal https://t.co/fLvkZHbSvN
p3765
sg11
g8
sba(iObject
Object
p3766
(dp3767
g5
S'865130046087757825'
p3768
sg7
S'360'
p3769
sg9
VRT @Madan_Chikna: My phone is ready for #WannaCry #Ransomware Attack. https://t.co/MRLw0o4X90
p3770
sg11
g8
sba(iObject
Object
p3771
(dp3772
g5
S'864102768180510721'
p3773
sg7
g8
sg9
VEducational Codeforces Round 21 https://t.co/FwRLJfcSPW #codeforces
p3774
sg11
g8
sba(iObject
Object
p3775
(dp3776
g5
S'859105372879155204'
p3777
sg7
g8
sg9
VHarsha Bhogle: 102 out of 158 coming in at 10-3. Will go down as one of the innings of the... https://t.co/8KONswqaKS #RPSvGL via @cricbuzz
p3778
sg11
g8
sba(iObject
Object
p3779
(dp3780
g5
S'852181254824919040'
p3781
sg7
g8
sg9
VHarsha Bhogle: Two good bowling sides pitted against each other today. MI greater depth... https://t.co/dAcbwMi8HY #MIvSRH via @cricbuzz
p3782
sg11
g8
sba(iObject
Object
p3783
(dp3784
g5
S'851870262966468608'
p3785
sg7
g8
sg9
VI made these six doodles. A neural network guessed three of them correctly. #aiexperiments #quickdraw https://t.co/DFI741ac9o
p3786
sg11
g8
sba(iObject
Object
p3787
(dp3788
g5
S'851832138919890945'
p3789
sg7
g8
sg9
VHarsha Bhogle: So the Daredevils tag sits well on the Delhi team tonight! https://t.co/TksJAAKPiv #RPSvDD via @cricbuzz
p3790
sg11
g8
sba(iObject
Object
p3791
(dp3792
g5
S'850390777012264960'
p3793
sg7
g8
sg9
VHarsha Bhogle: KKR burning the turf in Rajkot. And good to see Gautam Gambhir in fine touc... https://t.co/JwXLI5Ud8H #GLvKKR via @cricbuzz
p3794
sg11
g8
sba(iObject
Object
p3795
(dp3796
g5
S'838086470116204551'
p3797
sg7
g254
sg9
VRT @codechef: The harsh reality #CodeChef\u000aVia - https://t.co/ACFKtxzNnu https://t.co/1YbfKyKzed
p3798
sg11
g8
sba(iObject
Object
p3799
(dp3800
g5
S'757843975264804864'
p3801
sg7
g8
sg9
VJust setting up my Twitter. #myfirstTweet
p3802
sg11
g8
sbasS'vasu14114'
p3803
(lp3804
(iObject
Object
p3805
(dp3806
g5
S'858254537722920960'
p3807
sg7
g8
sg9
V#NewProfilePic https://t.co/RQJuewTpsI
p3808
sg11
g8
sba(iObject
Object
p3809
(dp3810
g5
S'817335824756850688'
p3811
sg7
S'72'
p3812
sg9
VRT @aartic02: \u091a\u0941\u0928\u093e\u0935 \u0938\u0930 \u092a\u0947 \u0939\u0948\u0902, \u0915\u0941\u091b \u0928 \u0915\u0941\u091b \u0938\u094d\u092f\u093e\u092a\u093e \u0924\u094b \u0921\u093e\u0932\u0928\u093e \u0939\u0940 \u0939\u0948 \u000aNo List of Star Campaigner filed yet by AAP Punjab \u000a\u092b\u093e\u0932\u0924\u0942 \u0916\u092a\u094d\u092a \u092e\u091a\u093e\u0908 \u0939\u0941\u0908 \u0939\u0948
p3813
sg11
g8
sba(iObject
Object
p3814
(dp3815
g5
S'701745367704952832'
p3816
sg7
g8
sg9
VI love @Uber! Sign up with my promo code and get \u20b9150 off your first ride! https://t.co/gycYdcaDSN
p3817
sg11
g15
sba(iObject
Object
p3818
(dp3819
g5
S'678495417907077120'
p3820
sg7
g8
sg9
VIts Amazing to see @deepikapadukone and @RanveerOfficial  love story,the way it depict seems much sexy then past love story #BajiraoMastani
p3821
sg11
g28
sba(iObject
Object
p3822
(dp3823
g5
S'572132285891264512'
p3824
sg7
g8
sg9
V@toi_tech @timesofindia waiting for new idea !!.. New features..!!
p3825
sg11
g8
sba(iObject
Object
p3826
(dp3827
g5
S'568789681447415809'
p3828
sg7
g8
sg9
VI just participated to gift the #SexiestGift this season@GioneeIndia. More here: http://t.co/HkDwOn0SGf https://t.co/sZiWe6uDol
p3829
sg11
g8
sbasS'MithalAditi'
p3830
(lp3831
(iObject
Object
p3832
(dp3833
g5
S'534343117747417089'
p3834
sg7
g8
sg9
VLevel 7 done @IIITDOdyssey #odysseyIIITD
p3835
sg11
g8
sba(iObject
Object
p3836
(dp3837
g5
S'534341525556043777'
p3838
sg7
g8
sg9
VLevel 6 done @IIITDOdyssey #odysseyIIITD
p3839
sg11
g8
sba(iObject
Object
p3840
(dp3841
g5
S'534340511956336640'
p3842
sg7
g8
sg9
VLevel 5 done @IIITDOdyssey #odysseyIIITD
p3843
sg11
g8
sba(iObject
Object
p3844
(dp3845
g5
S'534340244246507520'
p3846
sg7
g8
sg9
VLevel 4 done @IIITDOdyssey #odysseyIIITD
p3847
sg11
g8
sba(iObject
Object
p3848
(dp3849
g5
S'534331275390111744'
p3850
sg7
g8
sg9
VLeVel 3 done @IIITDOdyssey #odysseyIIITD
p3851
sg11
g8
sba(iObject
Object
p3852
(dp3853
g5
S'534329507432255488'
p3854
sg7
g8
sg9
VLevel 2 complete @IIITDOdyssey #odysseyIIITD
p3855
sg11
g8
sba(iObject
Object
p3856
(dp3857
g5
S'534320567336177665'
p3858
sg7
g8
sg9
VLevel 1 complete @IIITDOdyssey #odysseyIIITD
p3859
sg11
g8
sbasS'simran_s21'
p3860
(lp3861
(iObject
Object
p3862
(dp3863
g5
S'965859124377300992'
p3864
sg7
g15
sg9
VRT @Chanch_95: Accurate af XD https://t.co/2Ac1wA4tRt
p3865
sg11
g8
sba(iObject
Object
p3866
(dp3867
g5
S'955781776860835841'
p3868
sg7
g8
sg9
V@agrawalamod Deeir ki spelling galat hai \U0001f612 \U0001f9d0\U0001f9d0
p3869
sg11
g8
sba(iObject
Object
p3870
(dp3871
g5
S'946700603769495552'
p3872
sg7
g8
sg9
V@SaloniKogta @agrawalamod @iamishitak Hahhaha. Let's do that \U0001f923
p3873
sg11
g26
sba(iObject
Object
p3874
(dp3875
g5
S'944656792595808256'
p3876
sg7
g124
sg9
VRT @ponguru: Entire graduating batch. Wonderful to see them all together! #IIITDConvocation #SixthConvocation #classof2017 @IIITDelhi \u005cc @A\u2026
p3877
sg11
g8
sba(iObject
Object
p3878
(dp3879
g5
S'934656550127276032'
p3880
sg7
g8
sg9
V@agrawalamod \U0001f914
p3881
sg11
g8
sba(iObject
Object
p3882
(dp3883
g5
S'934640875384160257'
p3884
sg7
g8
sg9
V@agrawalamod No expectations, no woes :P
p3885
sg11
g8
sba(iObject
Object
p3886
(dp3887
g5
S'931012200709234689'
p3888
sg7
g26
sg9
VAll set for the poster session. \u000a#psosm #cse648 @krngrvr09 @ponguru https://t.co/ogYR2zpFTi
p3889
sg11
g28
sba(iObject
Object
p3890
(dp3891
g5
S'928643262457397248'
p3892
sg7
g295
sg9
VRT @sagarikaghose: very impressed with the work you guys are doing at @IIITDelhi ! kudos to the lively students and impressive teaching sta\u2026
p3893
sg11
g8
sba(iObject
Object
p3894
(dp3895
g5
S'928643041698516997'
p3896
sg7
g74
sg9
VRT @ponguru: .@sagarikaghose with students @IIITDelhi #iiitdstudentsrock https://t.co/SKFcUQ5dfu
p3897
sg11
g8
sba(iObject
Object
p3898
(dp3899
g5
S'923961520517627904'
p3900
sg7
g8
sg9
V@agrawalamod Try this :P https://t.co/z6QrWqev28
p3901
sg11
g8
sba(iObject
Object
p3902
(dp3903
g5
S'915270166082052096'
p3904
sg7
g8
sg9
V@agrawalamod Ahan \U0001f914
p3905
sg11
g8
sba(iObject
Object
p3906
(dp3907
g5
S'908367932157181952'
p3908
sg7
g8
sg9
V@agrawalamod Mine unlocks with Sampada's face :P
p3909
sg11
g8
sba(iObject
Object
p3910
(dp3911
g5
S'880129959225835520'
p3912
sg7
g8
sg9
V@agrawalamod Yeah :/
p3913
sg11
g8
sba(iObject
Object
p3914
(dp3915
g5
S'880129217849049088'
p3916
sg7
g8
sg9
V@agrawalamod \U0001f914
p3917
sg11
g8
sba(iObject
Object
p3918
(dp3919
g5
S'861229568522420224'
p3920
sg7
g295
sg9
VRT @ponguru: High Tea with https://t.co/pG7iOlRp5o. &amp; https://t.co/Bwwc5zmJlx. 2017 batch! #IIITDStudentsRock #ProfGiri Pics: https://t.co/\u2026
p3921
sg11
g8
sba(iObject
Object
p3922
(dp3923
g5
S'853661777040691200'
p3924
sg7
g8
sg9
VIt was a great experience evaluating BBI'17 https://t.co/iiPovK5pIT
p3925
sg11
g8
sba(iObject
Object
p3926
(dp3927
g5
S'757224429583671296'
p3928
sg7
g8
sg9
VNo words to express what I feel for Google and it's seamless Backup services :') Otherwise I would have been crying my heart out right now.
p3929
sg11
g15
sba(iObject
Object
p3930
(dp3931
g5
S'722395222596984832'
p3932
sg7
g8
sg9
VThank you everyone for sparing time for #Hestia at #BBI2016. We got a lot of valuable feedback! #AmazingDay https://t.co/98HDxEwpuu
p3933
sg11
g26
sba(iObject
Object
p3934
(dp3935
g5
S'722386414990729216'
p3936
sg7
g74
sg9
VRT @agrawalamod: Pulling all nighters! #CSE501 #BBI2016 Here comes Hestia! https://t.co/NJUsLXjWZr
p3937
sg11
g8
sba(iObject
Object
p3938
(dp3939
g5
S'722378904242028544'
p3940
sg7
g15
sg9
VRT @agrawalamod: With prof. @ponguru #BBI2016 #CSE501. Introducing Hestia! https://t.co/ndXk8OSWoh
p3941
sg11
g8
sba(iObject
Object
p3942
(dp3943
g5
S'722378564423712768'
p3944
sg7
g28
sg9
VRT @Chanch_95: Hestia. HCI presentation. Proff PK @ponguru and Sheetu ma'am reviewing! #BBI2016 #CSE501 https://t.co/T7rEfg000S
p3945
sg11
g8
sba(iObject
Object
p3946
(dp3947
g5
S'722378372878176257'
p3948
sg7
g8
sg9
VAmazing day at #BBI2016! #CSE501 https://t.co/NbNoxip0xv
p3949
sg11
g8
sba(iObject
Object
p3950
(dp3951
g5
S'722377403935232000'
p3952
sg7
g15
sg9
VRT @agrawalamod: Hestia team is happy to service. Come see us here and get some free food while you're at it.  #BBI2016 #CSE501 https://t.c\u2026
p3953
sg11
g8
sba(iObject
Object
p3954
(dp3955
g5
S'722377381395050496'
p3956
sg7
g15
sg9
VRT @agrawalamod: Live feed at IIIT-Delhi.  #BBI2016 #CSE501 https://t.co/sTYNaZl3a9
p3957
sg11
g8
sba(iObject
Object
p3958
(dp3959
g5
S'722162937364942850'
p3960
sg7
g8
sg9
V@singla_surbhi https://t.co/K4StByTbr6
p3961
sg11
g8
sba(iObject
Object
p3962
(dp3963
g5
S'722162935502651392'
p3964
sg7
g8
sg9
V@agrawalamod https://t.co/FFvVPDQtfN
p3965
sg11
g8
sba(iObject
Object
p3966
(dp3967
g5
S'722162932218511360'
p3968
sg7
g8
sg9
V@charu_priya_s https://t.co/Qe9w1HQPhx
p3969
sg11
g8
sba(iObject
Object
p3970
(dp3971
g5
S'722162930150678528'
p3972
sg7
g8
sg9
V@bulletinmoney https://t.co/YEYILXXr3G
p3973
sg11
g8
sba(iObject
Object
p3974
(dp3975
g5
S'722162925654450176'
p3976
sg7
g8
sg9
V@bajaj_meena https://t.co/PJZYrbhdpd
p3977
sg11
g8
sba(iObject
Object
p3978
(dp3979
g5
S'722162923599212544'
p3980
sg7
g8
sg9
V@danishagoyal https://t.co/SquV3gQGHF
p3981
sg11
g8
sba(iObject
Object
p3982
(dp3983
g5
S'721975124421963776'
p3984
sg7
g15
sg9
VAmazing home made food is here, where are you?\u000a#BBI2016 #CSE501 #Hestia #ForTheLoveOfHomemadeFood https://t.co/DygeXtCucq
p3985
sg11
g8
sba(iObject
Object
p3986
(dp3987
g5
S'721766253560344576'
p3988
sg7
g8
sg9
VLovely sunset at Taroba National Park, Maharashtra. #sunset https://t.co/q2cZHsvk0y
p3989
sg11
g8
sba(iObject
Object
p3990
(dp3991
g5
S'721765395384762368'
p3992
sg7
g15
sg9
VPreparations in full swing for #BBI2016 \u000a \u000a#CSE501 #DHCS #Hestia @agrawalamod @gupta_saloniii @Chanch_95 https://t.co/paGPIbgPx0
p3993
sg11
g15
sba(iObject
Object
p3994
(dp3995
g5
S'721764931108864001'
p3996
sg7
g74
sg9
VRT @Chanch_95: Tired of eating junk food everyday?\u000aCheck out your options at #BBI2016 #CSE501 \u000a19th April 2016. @ponguru https://t.co/wqnWj\u2026
p3997
sg11
g8
sba(iObject
Object
p3998
(dp3999
g5
S'721762830131703808'
p4000
sg7
g28
sg9
VRT @gupta_saloniii: Checkout 'HESTIA' at Building Better Interfaces Spring 2016!!!\u000a#BBI2016 #CSE501\u000a https://t.co/PqhfwIGbvP
p4001
sg11
g8
sba(iObject
Object
p4002
(dp4003
g5
S'687995931791233024'
p4004
sg7
g8
sg9
VLovely winter flowers! https://t.co/Z0Yi3PcVId
p4005
sg11
g26
sba(iObject
Object
p4006
(dp4007
g5
S'193612124919054336'
p4008
sg7
g8
sg9
VExplorations!!!
p4009
sg11
g8
sbas.