(dp0
S'mesmerizingkhan'
p1
(lp2
(iObject
Object
p3
(dp4
S'tweet_id'
p5
S'976444647995334661'
p6
sS'retweet_count'
p7
S'2'
p8
sS'tweet_text'
p9
S'RT @MirrorNow: It appears that you really cannot escape Aadhaar  even after you are dead. \nhttps://t.co/74MTZBKU0l'
p10
sS'favorite_count'
p11
S'0'
p12
sba(iObject
Object
p13
(dp14
g5
S'976404663326167040'
p15
sg7
g12
sg9
S'@JohnLusher Your welcome !!'
p16
sg11
S'1'
p17
sba(iObject
Object
p18
(dp19
g5
S'976401646765867009'
p20
sg7
g12
sg9
S'@JohnLusher Nice beard @JohnLusher'
p21
sg11
g17
sba(iObject
Object
p22
(dp23
g5
S'976331978076250112'
p24
sg7
g12
sg9
S'@snehasharma90 @RedFMIndia @mymalishka @943RadioOne @HrishiKay Great !!'
p25
sg11
g17
sba(iObject
Object
p26
(dp27
g5
S'976329078138576896'
p28
sg7
g12
sg9
S'@snehasharma90 @RedFMIndia @mymalishka Hey, @mymalishka, heard ur show today morning and as you were asking about t... https://t.co/InYbSNaby4'
p29
sg11
g12
sba(iObject
Object
p30
(dp31
g5
S'975428524885635074'
p32
sg7
g12
sg9
S'@NitinBargali Lol..'
p33
sg11
g12
sba(iObject
Object
p34
(dp35
g5
S'975390741559152641'
p36
sg7
g17
sg9
S'RT @JohnLusher: 43 best websites to learn something new about #marketing via @Buffer https://t.co/7TImvopbhL'
p37
sg11
g12
sba(iObject
Object
p38
(dp39
g5
S'975371175646941184'
p40
sg7
S'18'
p41
sg9
S'RT @PeopleNChoices: #PnC_SMsurvey FINAL\n.\nWhen R U MOST active on Twitter?\n.\n       ?\n.\n  ...'
p42
sg11
g12
sba(iObject
Object
p43
(dp44
g5
S'975370965604483072'
p45
sg7
S'72'
p46
sg9
S'RT @TimesNow: Tell me one leader in BJP who can come out and say yes, we are humans, we can make mistakes and we have made mistakes. This m...'
p47
sg11
g12
sba(iObject
Object
p48
(dp49
g5
S'975364668951851008'
p50
sg7
S'13'
p51
sg9
S'RT @PeopleNChoices: How do you spend #Weekends 1\n.\n -   ?\n.\n\n.'
p52
sg11
g12
sba(iObject
Object
p53
(dp54
g5
S'974248763748478976'
p55
sg7
g12
sg9
S'@JohnLusher Please check your inbox @JohnLusher'
p56
sg11
g17
sba(iObject
Object
p57
(dp58
g5
S'974232325042196481'
p59
sg7
S'16'
p60
sg9
S'RT @mesmerizingkhan: On 21st Oct 2012 at 4:15 PM, I fell in luv with an angel who is aka "Alia Bhatt" . @aliaa08, wishing you a veryyy ha...'
p61
sg11
g12
sba(iObject
Object
p62
(dp63
g5
S'974232211141644288'
p64
sg7
S'8'
p65
sg9
S"RT @MumbaiMirror: Hello Mumbai! Wondering why the sky is all gloomy today? Here's why: https://t.co/Gqq4pN4BtC https://t.co/Vokl1IWy7R"
p66
sg11
g12
sba(iObject
Object
p67
(dp68
g5
S'974180750470893574'
p69
sg7
S'16'
p70
sg9
S'On 21st Oct 2012 at 4:15 PM, I fell in luv with an angel who is aka "Alia Bhatt" . @aliaa08, wishing you a veryyy... https://t.co/pa9MiNWQOg'
p71
sg11
S'48'
p72
sba(iObject
Object
p73
(dp74
g5
S'973809341424914432'
p75
sg7
g12
sg9
S'Many many happy returns of the day to the Mr. Perfectionist. Happy Birthday Aamir Sir !!\n#HappyBirthdayAamirKhan https://t.co/jI7kmfvvMU'
p76
sg11
g12
sba(iObject
Object
p77
(dp78
g5
S'972654870460354560'
p79
sg7
S'6'
p80
sg9
S'RT @RedFMIndia: #TheStruggleIsReal  #RealLife #MyLife #LifeGoals https://t.co/jSCdnOzV3s'
p81
sg11
g12
sba(iObject
Object
p82
(dp83
g5
S'972504676519350272'
p84
sg7
S'18'
p85
sg9
S'RT @hootsuite: How to build your social media strategy from start to finish: https://t.co/Gkwxoj71ZJ https://t.co/ynLoyhOBmy'
p86
sg11
g12
sba(iObject
Object
p87
(dp88
g5
S'971948185588412416'
p89
sg7
g8
sg9
S'RT @JohnLusher: Quote of the Day: "What is called genius is the abundance of life and health." - Henry David Thoreau'
p90
sg11
g12
sba(iObject
Object
p91
(dp92
g5
S'971948146375839745'
p93
sg7
g8
sg9
S'RT @mymalishka: Now on my show! @fayedsouza the fabulous. Tune in @RedFM_Mumbai #aurtonkitarah'
p94
sg11
g12
sba(iObject
Object
p95
(dp96
g5
S'971738053579624449'
p97
sg7
g12
sg9
S'@snehasharma90 @RedFMIndia @mymalishka Great !! Best of luck !! '
p98
sg11
g17
sba(iObject
Object
p99
(dp100
g5
S'971735041796657152'
p101
sg7
g12
sg9
S"@snehasharma90 @RedFMIndia @mymalishka Hey @snehasharma90, aren't you that sneha sharma, whom malishka had invited... https://t.co/FZjqQw7p14"
p102
sg11
g17
sba(iObject
Object
p103
(dp104
g5
S'971731038706823168'
p105
sg7
g12
sg9
S"@RedFMIndia @snehasharma90 @mymalishka I am trying to ask you since the last one month about this year's #BFAC @mymalishka"
p106
sg11
g8
sba(iObject
Object
p107
(dp108
g5
S'971729174481264640'
p109
sg7
g12
sg9
S"@RedFMIndia @snehasharma90 @mymalishka This time do this year's bajao for a cause related to women's @mymalishka "
p110
sg11
g17
sba(iObject
Object
p111
(dp112
g5
S'971594622114902016'
p113
sg7
S'202'
p114
sg9
S'RT @RedFMIndia: Every girl deserves the right to live on her own terms. @rjraunac has an eye opening message for us this #WomensDay. Check...'
p115
sg11
g12
sba(iObject
Object
p116
(dp117
g5
S'971444142080487434'
p118
sg7
g12
sg9
S'@mymalishka Malishka, when are you starting this years bajao for a cause ? @mymalishka'
p119
sg11
g12
sba(iObject
Object
p120
(dp121
g5
S'971433224160366594'
p122
sg7
g12
sg9
S"@MumbaiMirror @CPMumbaiPolice @MumbaiPolice Happy International Women's Day "
p123
sg11
g12
sba(iObject
Object
p124
(dp125
g5
S'971374350652801024'
p126
sg7
g65
sg9
S'RT @mymalishka: I want a copy to see what Ive said in your mag ;) Happy #WomensDay https://t.co/Ra8c8b78dh'
p127
sg11
g12
sba(iObject
Object
p128
(dp129
g5
S'971296189353250816'
p130
sg7
S'19'
p131
sg9
S'RT @TheNextWeb: This phone keeps you focused on the stuff that really matters https://t.co/VpdIz8oUN6'
p132
sg11
g12
sba(iObject
Object
p133
(dp134
g5
S'971295201754001408'
p135
sg7
g12
sg9
S"@swatcat86 @MinistryWCD @swatcat86 Happy International Women's Day #InternationalWomensday"
p136
sg11
g12
sba(iObject
Object
p137
(dp138
g5
S'971286226790690817'
p139
sg7
g12
sg9
S'Hey guys, I just built my #Android #iPhone #app Miscellaneous  with #AppyPie for FREE. Check them out at https://t.co/U48LLDyjyj'
p140
sg11
g12
sba(iObject
Object
p141
(dp142
g5
S'971279187595137024'
p143
sg7
S'43'
p144
sg9
S'RT @ZeeNewsHindi: VIDEO:   #BJP      ,     \n\nhttps://t.co/6hkjCF6TOx'
p145
sg11
g12
sba(iObject
Object
p146
(dp147
g5
S'971211304303284225'
p148
sg7
S'413'
p149
sg9
S"RT @DurexIndia: Finally, here's our solution for all condom haters out there. Presenting to you, Durex AiR, a condom so thin like it's not..."
p150
sg11
g12
sba(iObject
Object
p151
(dp152
g5
S'971077553174786048'
p153
sg7
g12
sg9
S'this is damn true !!! https://t.co/MVWJiHgkLH'
p154
sg11
g12
sba(iObject
Object
p155
(dp156
g5
S'970932495012245506'
p157
sg7
g12
sg9
S'Of course !! @rjginnie  https://t.co/xYQ0pHJ54l'
p158
sg11
g12
sba(iObject
Object
p159
(dp160
g5
S'970712621451304960'
p161
sg7
S'6082'
p162
sg9
S'RT @iamsrk: As we stand poised for a new season of KKR we welcome @DineshKarthik as our Captain. Like our Captains over the yrs we know u w...'
p163
sg11
g12
sba(iObject
Object
p164
(dp165
g5
S'970639683154661376'
p166
sg7
S'430'
p167
sg9
S'RT @DurexIndia: Why does India #HateCondoms? We want to know :)'
p168
sg11
g12
sba(iObject
Object
p169
(dp170
g5
S'970487553668284416'
p171
sg7
g12
sg9
S'@ETCBollywood YJHD'
p172
sg11
g12
sba(iObject
Object
p173
(dp174
g5
S'970481686755627008'
p175
sg7
S'3'
p176
sg9
S'RT @CNNnews18: The #Oscars are here and how can we miss the glamour and style! | @Mugdha_Kapoor https://t.co/R4Q4qF7vgA'
p177
sg11
g12
sba(iObject
Object
p178
(dp179
g5
S'970358912913412098'
p180
sg7
S'35'
p181
sg9
S'RT @mymalishka: Be extra nice to Our Captain Tonight , Ms.Sharma:) You sure scared the hell out of me  . You are a brave one. Good one th...'
p182
sg11
g12
sba(iObject
Object
p183
(dp184
g5
S'970345639296061441'
p185
sg7
g17
sg9
S'RT @zubair_khan_air: https://t.co/PQ8Qn5Jwi5'
p186
sg11
g12
sba(iObject
Object
p187
(dp188
g5
S'970341652584951808'
p189
sg7
S'55'
p190
sg9
S'RT @ayushmannk: Thats my favourite pet boom mic. Its furry. Its cute. Very cuddly. I just rescued it from the sound department of #Badha...'
p191
sg11
g12
sba(iObject
Object
p192
(dp193
g5
S'970340465819181056'
p194
sg7
S'73'
p195
sg9
S'RT @PeopleNChoices: #PnC_SexSurvey \n.\nHave YOU ever had #SEX with\nany colleague/coworker?\n.\n.\nPlease RT  after Votinghere'
p196
sg11
g12
sba(iObject
Object
p197
(dp198
g5
S'970339948988690434'
p199
sg7
g12
sg9
S'@watchnancytweet @RottenTomatoes Ohh !! Okay, will definitely watch it !! '
p200
sg11
g17
sba(iObject
Object
p201
(dp202
g5
S'970339347965906956'
p203
sg7
g12
sg9
S'@watchnancytweet @RottenTomatoes I wanna watch American Hustle. I am a fan of her from India '
p204
sg11
g12
sba(iObject
Object
p205
(dp206
g5
S'970338676680126465'
p207
sg7
g12
sg9
S'@RottenTomatoes Passengers !!'
p208
sg11
g12
sba(iObject
Object
p209
(dp210
g5
S'970337039454560258'
p211
sg7
g12
sg9
S'@rjraunac Aapke itne saare confidence ka source kya hai @rjraunac '
p212
sg11
g12
sba(iObject
Object
p213
(dp214
g5
S'970174240698830849'
p215
sg7
g8
sg9
S'RT @rjginnie: Aaj Sunday hai yayyyyyy on the list binge watching Netflix eating lots of food and making sure Ye paaao zameeen pe na pade ...'
p216
sg11
g12
sba(iObject
Object
p217
(dp218
g5
S'970156033866895367'
p219
sg7
g12
sg9
S'@rjvellarocky Main bhi aaj ke din aapke jaisa vella hoon '
p220
sg11
g12
sba(iObject
Object
p221
(dp222
g5
S'970001353031503872'
p223
sg7
S'30'
p224
sg9
S"RT @OMGFacts: 'Frozen' is the first animated Disney film directed by a woman."
p225
sg11
g12
sba(iObject
Object
p226
(dp227
g5
S'970001329530724352'
p228
sg7
g80
sg9
S'RT @JohnLusher: Dont Give Up on #ContentMarketing Until You Read This: @nelsonvauxhall https://t.co/4JzIHIh699 https://t.co/kKX7g2LNJf'
p229
sg11
g12
sba(iObject
Object
p230
(dp231
g5
S'969987984715116544'
p232
sg7
g12
sg9
S'@ShraddhaKapoor Many many happy returns of the day @ShraddhaKapoor'
p233
sg11
g8
sba(iObject
Object
p234
(dp235
g5
S'969974681469153280'
p236
sg7
S'17'
p237
sg9
S'RT @mymalishka: This is a Kangdi that some Sheheri peoples daadima still uses if she is in Kashmir:)The 1st time I saw it on a house boat...'
p238
sg11
g12
sba(iObject
Object
p239
(dp240
g5
S'969498097188470785'
p241
sg7
g80
sg9
S"RT @TheNextWeb: Microsoft's Soundscape app helps blind people get around town with 3D audio cues https://t.co/ZcMdg28kS2"
p242
sg11
g12
sba(iObject
Object
p243
(dp244
g5
S'969498027097513984'
p245
sg7
S'13'
p246
sg9
S'RT @IndiaToday: Moments of togetherness! #HappyHoli \nMore videos: https://t.co/Nounxo6IKQ \n@mayuganapatye https://t.co/05ynuSuhcv'
p247
sg11
g12
sba(iObject
Object
p248
(dp249
g5
S'969469881732288512'
p250
sg7
g12
sg9
S'@TandonRaveena  https://t.co/RjUhl2tTP2'
p251
sg11
g12
sba(iObject
Object
p252
(dp253
g5
S'969469417707982850'
p254
sg7
g12
sg9
S'#FridayFeeling  https://t.co/IGmGDrjPun'
p255
sg11
g12
sba(iObject
Object
p256
(dp257
g5
S'969463193637675009'
p258
sg7
g12
sg9
S'@aliaa08 '
p259
sg11
g176
sba(iObject
Object
p260
(dp261
g5
S'969463130064605185'
p262
sg7
S'1899'
p263
sg9
S'RT @aliaa08: Happy holi everyone. Have a day full of colour and love. Please be safe and considerate to our animals.. make merry and beauti...'
p264
sg11
g12
sba(iObject
Object
p265
(dp266
g5
S'969462723548344320'
p267
sg7
S'401'
p268
sg9
S'RT @myvotetoday: Is @INCIndia #SocialMedia team doing a better job than the @BJP4India SM team?\n.\n #     ...'
p269
sg11
g12
sba(iObject
Object
p270
(dp271
g5
S'969462384741019648'
p272
sg7
S'21'
p273
sg9
S'RT @RjDhrumil: Review : #Pari \nIt will scare the S**** out of you. Very unpredictable, chilling background score and the brave @AnushkaShar...'
p274
sg11
g12
sba(iObject
Object
p275
(dp276
g5
S'969462060949098501'
p277
sg7
S'7'
p278
sg9
S'RT @OYERJALOK: My Besttttttttt Wishes to the incredible team of #VeereyKiWedding @pulkitsamrat @kriti_official @jimmysheirgill and Captain...'
p279
sg11
g12
sba(iObject
Object
p280
(dp281
g5
S'969461386190475264'
p282
sg7
g17
sg9
S'RT @trendinaliaIN:  "Baaghi 2 Songs" is trending today on Google India (10000+ searches) https://t.co/OEMA2sRry6'
p283
sg11
g12
sba(iObject
Object
p284
(dp285
g5
S'969451998058774529'
p286
sg7
g80
sg9
S'RT @KarbonnSmart: Enjoying your #Holi celebrations? How about a colourful selfie with #Karbonn #Titanium #Jumbo2? With its 8MP Selfie Camer...'
p287
sg11
g12
sba(iObject
Object
p288
(dp289
g5
S'969451948687659009'
p290
sg7
g176
sg9
S'RT @gadgetsnow: Smartphones with 6GB RAM you can buy in India\nhttps://t.co/XHpbedxmWP'
p291
sg11
g12
sba(iObject
Object
p292
(dp293
g5
S'969448827483717632'
p294
sg7
g12
sg9
S'Happy Holi to everyone https://t.co/ZrrC48fZZX'
p295
sg11
g12
sba(iObject
Object
p296
(dp297
g5
S'968875965739872256'
p298
sg7
S'5'
p299
sg9
S'RT @mymalishka: #NewProfilePic https://t.co/CyJa0G2JzB'
p300
sg11
g12
sba(iObject
Object
p301
(dp302
g5
S'968875700907380737'
p303
sg7
g12
sg9
S'@mymalishka Nice hairstyle @mymalishka '
p304
sg11
g12
sba(iObject
Object
p305
(dp306
g5
S'968736672648179712'
p307
sg7
g12
sg9
S'#NationalScienceDay The science of today is the technology of tomorrow... :)'
p308
sg11
g12
sba(iObject
Object
p309
(dp310
g5
S'968676047402172424'
p311
sg7
S'4387'
p312
sg9
S'RT @rjraunac: Wake up #IndianMedia\n\n  #IndianMedia \n\n #Sridevi #Sridevifuneral https://t.co/0aFjNOI8zD'
p313
sg11
g12
sba(iObject
Object
p314
(dp315
g5
S'968674514740678656'
p316
sg7
g17
sg9
S'RT @JohnLusher: An Intersection of Land, Ice, Sea and Clouds via NASA https://t.co/iCk3CSVk7j https://t.co/miS6otKmBq'
p317
sg11
g12
sba(iObject
Object
p318
(dp319
g5
S'968674252139491328'
p320
sg7
S'1062'
p321
sg9
S'RT @Factsionary: Sarcasm was created to confuse the stupid.'
p322
sg11
g12
sba(iObject
Object
p323
(dp324
g5
S'968674045066608640'
p325
sg7
g17
sg9
S'RT @JohnLusher: Digital Marketing Revitalises Heritage Brands | Traackr https://t.co/V1zklH19Lh https://t.co/z3PMRtVfpW'
p326
sg11
g12
sba(iObject
Object
p327
(dp328
g5
S'967803211435429889'
p329
sg7
S'10'
p330
sg9
S'RT @Gadgets360: Less than 15 minutes to go for the Samsung event. Galaxy S9 and S9+ expected to be launched. Live updates: https://t.co/zA7...'
p331
sg11
g12
sba(iObject
Object
p332
(dp333
g5
S'965843418365747201'
p334
sg7
S'13032'
p335
sg9
S'RT @imVkohli: So proud of the whole unit.  What a series win. Jai Hind!  https://t.co/C2lgzmak7k'
p336
sg11
g12
sba(iObject
Object
p337
(dp338
g5
S'965843269509959681'
p339
sg7
S'4116'
p340
sg9
S"RT @virendersehwag: All Clear Signal for Kambala is great news.Rural sport needs to be preserved.Great that #Kambala bill got President's a..."
p341
sg11
g12
sba(iObject
Object
p342
(dp343
g5
S'964553144440061952'
p344
sg7
g12
sg9
S'@JohnLusher I like your useful tweets very much.. @JohnLusher '
p345
sg11
g17
sba(iObject
Object
p346
(dp347
g5
S'959257228921290752'
p348
sg7
g12
sg9
S'Yuckk !! What the hell !! https://t.co/oXRdiOZr9m'
p349
sg11
g12
sba(iObject
Object
p350
(dp351
g5
S'959254452581687298'
p352
sg7
g17
sg9
S'RT @radioandmusic: I am addicted to social media and this video is a wake-up call for me: Shibani Kashyap\n@shibanikashyap\n#ShibaniKashyap #...'
p353
sg11
g12
sba(iObject
Object
p354
(dp355
g5
S'959254243059396608'
p356
sg7
g299
sg9
S'RT @dna: Amazon reports profit of $2 billion, largest in its history \nhttps://t.co/IUdLkkDcRb https://t.co/NYimEerFtg'
p357
sg11
g12
sba(iObject
Object
p358
(dp359
g5
S'959245775158042625'
p360
sg7
g12
sg9
S'superb !! https://t.co/d89wookwEu'
p361
sg11
g12
sba(iObject
Object
p362
(dp363
g5
S'959245525273972737'
p364
sg7
g8
sg9
S'RT @JohnLusher: How to Use Instagram for Business: A Complete Guide for Marketers https://t.co/iywNt0OJLL https://t.co/aqMSYYQhkM'
p365
sg11
g12
sba(iObject
Object
p366
(dp367
g5
S'959245457527623680'
p368
sg7
g8
sg9
S'RT @JohnLusher: You know who you are!  #Cheers    \n#Quote #Quotes #QOTD #Inspiration #Motivation #crazy #ThoughtForTheDay #weirdo #perv...'
p369
sg11
g12
sba(iObject
Object
p370
(dp371
g5
S'959245419111899136'
p372
sg7
S'3742'
p373
sg9
S'RT @virendersehwag: Congratulations India. Very well done. A great start to the series. Very happy for Rahane. #INDvSA'
p374
sg11
g12
sba(iObject
Object
p375
(dp376
g5
S'959244486470709248'
p377
sg7
g176
sg9
S'RT @CNNnews18: #SAvIND -- Skipper @imVkohli Guides Team India to Comfortable Win Over Proteas\n\nhttps://t.co/Uh1pertRwV'
p378
sg11
g12
sba(iObject
Object
p379
(dp380
g5
S'958663117717852160'
p381
sg7
S'12'
p382
sg9
S'RT @AkashvaniAIR: FIRST #BlueMoon to coincide with a total lunar eclipse today in India between 5:15pm and 7:37 pm.\nRead here to know more...'
p383
sg11
g12
sba(iObject
Object
p384
(dp385
g5
S'958590980126633984'
p386
sg7
g12
sg9
S'Many many happy returns for your 43rd birthday @iamAmyJackson may you get lots of happiness, success &amp; prosperity t... https://t.co/3efLV1jma0'
p387
sg11
g17
sba(iObject
Object
p388
(dp389
g5
S'958590698118438913'
p390
sg7
g8
sg9
S'Many many happy returns for your 43rd birthday @realpreityzinta may you get lots of happiness, success &amp; prosperity... https://t.co/XdJbbUXFmi'
p391
sg11
g8
sba(iObject
Object
p392
(dp393
g5
S'957146545257725952'
p394
sg7
S'20'
p395
sg9
S'RT @KKRiders: Karun Nair is sold to KXIP for INR 560 lacs.'
p396
sg11
g12
sba(iObject
Object
p397
(dp398
g5
S'957146423971102720'
p399
sg7
S'327'
p400
sg9
S'RT @IPL: .@YUVSTRONG12 is sold @lionsdenkxip for INR 200 lacs VIVO #IPLAuction'
p401
sg11
g12
sba(iObject
Object
p402
(dp403
g5
S'957146347341201408'
p404
sg7
S'648'
p405
sg9
S'RT @IPL: VIVO #IPLAuction - @lionsdenkxip gets #TeamIndia legend @YUVSTRONG12 for INR 2 Cr #KXIP https://t.co/xWA2SG7ypv'
p406
sg11
g12
sba(iObject
Object
p407
(dp408
g5
S'957146293888892928'
p409
sg7
S'30'
p410
sg9
S'RT @KKRiders: Royal Challengers Bangalore have their first buy in VIVO #IPLAuction as Brendon McCullum goes for INR 360 lacs. \n\n#KnightsOf2...'
p411
sg11
g12
sba(iObject
Object
p412
(dp413
g5
S'957117175914885120'
p414
sg7
g12
sg9
S'Many many happy returns of the day to both the poster boys @thedeol &amp; @shreyastalpade1 ... Enjoy the day to the ful... https://t.co/liqdlTeRJC'
p415
sg11
g12
sba(iObject
Object
p416
(dp417
g5
S'957111536681562113'
p418
sg7
g12
sg9
S'#NewProfilePic https://t.co/7CSpcd5HF3'
p419
sg11
g12
sba(iObject
Object
p420
(dp421
g5
S'956387882544975872'
p422
sg7
g12
sg9
S'As I have also said before, remember that #KarniSena will end up promoting #Padmaavat instead of banning the movie.... https://t.co/k5TYb2rLJe'
p423
sg11
g176
sba(iObject
Object
p424
(dp425
g5
S'956068142719160324'
p426
sg7
g12
sg9
S'Many many happy returns of the day to the gorgeours @Ri_flect may this year you get lots of success, prosperity and... https://t.co/QbnHJ8Bmdm'
p427
sg11
g17
sba(iObject
Object
p428
(dp429
g5
S'955298928567582720'
p430
sg7
S'259'
p431
sg9
S'RT @WhatTheFFacts: In 2007 a couple divorced after discovering they had an online affair with each other under fake names.'
p432
sg11
g12
sba(iObject
Object
p433
(dp434
g5
S'950983122027364352'
p435
sg7
g12
sg9
S'#HappyBirthdayHrithikRoshan Many many happy returns of the day @iHrithik Enjoy the day hard and party well with... https://t.co/bHu5619LVY'
p436
sg11
g12
sba(iObject
Object
p437
(dp438
g5
S'950695590337290240'
p439
sg7
g12
sg9
S'Many many happy returns of the day @FarOutAkhtar #HappyBirthdayFarhanAkhtar'
p440
sg11
g12
sba(iObject
Object
p441
(dp442
g5
S'949524923088687104'
p443
sg7
g17
sg9
S'Many many happy returns of the day @diljitdosanjh paaji.... Tussi khoob enjoy karna... :)'
p444
sg11
g12
sba(iObject
Object
p445
(dp446
g5
S'948751544563855370'
p447
sg7
g12
sg9
S'I am at action stage  !! #Thursdaythoughts https://t.co/XFjmXo27QK'
p448
sg11
g8
sba(iObject
Object
p449
(dp450
g5
S'948415960918114304'
p451
sg7
g12
sg9
S'@OnlyBabaSehgal 2018 2017 se bhi behtar banayenge...'
p452
sg11
g12
sba(iObject
Object
p453
(dp454
g5
S'948243841403850752'
p455
sg7
g17
sg9
S'RT @radioandmusic: Listen to this soothing track and wish you a goodnight.\n\n@arijitsinghofc\n@arjitsingh2454\n\n#arijitsingh #goodnight\n#Chinm...'
p456
sg11
g12
sba(iObject
Object
p457
(dp458
g5
S'948209984222896129'
p459
sg7
S'1734'
p460
sg9
S'RT @aanandlrai: Ek ke peechhe intne ZERO dekh kar achhaa laga Khan Saab @iamsrk https://t.co/tkzlPc2ryg'
p461
sg11
g12
sba(iObject
Object
p462
(dp463
g5
S'948209928061071360'
p464
sg7
g17
sg9
S'RT @radioandmusic: Being on listeners mind is my plan: RJ Malishka \n\n@rjmalishkaa \n\n#RJMalishka #MumbaiKiRaani #RedFM #MalishkaKoMattSunn #...'
p465
sg11
g12
sba(iObject
Object
p466
(dp467
g5
S'948201531840503808'
p468
sg7
g12
sg9
S'@myvotetoday @myvotetoday You should also add an option of "none of the above/can\'t say" in all ur cases (if possib... https://t.co/QM2DXRmlY0'
p469
sg11
g12
sba(iObject
Object
p470
(dp471
g5
S'945702760833368064'
p472
sg7
S'81'
p473
sg9
S"RT @SRKCHENNAIFC: 'Raees' most talked about Bollywood film of 2017 on Twitter.\n@iamsrk @RedChilliesEnt @RaeesTheFilm @rahuldholakia\n\nhttps:..."
p474
sg11
g12
sba(iObject
Object
p475
(dp476
g5
S'945701056750673921'
p477
sg7
S'57'
p478
sg9
S'RT @mesmerizingkhan: Shahrukh Khan talks about the achievements of #Chakdeindia #10yearsofchakdeindia\n\nhttps://t.co/qoK2PxRKMs'
p479
sg11
g12
sba(iObject
Object
p480
(dp481
g5
S'945146194174418944'
p482
sg7
g12
sg9
S'Merry Christmas to all my followers and friends and also a warm welcome to A Happy New year...\n#HappyChristmas \n#HappyNewYear'
p483
sg11
g12
sba(iObject
Object
p484
(dp485
g5
S'944275617456971776'
p486
sg7
g12
sg9
S'@radioandmusic @rjmalishkaa If my result from #AllIndiaRadio is positive, I will surely meet you.... '
p487
sg11
g12
sba(iObject
Object
p488
(dp489
g5
S'943883293946036224'
p490
sg7
g12
sg9
S'I absolutely had an amazing night  https://t.co/QW9yi0VweX'
p491
sg11
g12
sba(iObject
Object
p492
(dp493
g5
S'943865465532661760'
p494
sg7
S'2756'
p495
sg9
S'RT @mesmerizingkhan: Hey, all you beautiful people out there !! Subscribe to my YouTube Channel to stay connected with me !!\n\nhttps://t.co/...'
p496
sg11
g12
sba(iObject
Object
p497
(dp498
g5
S'943752812139225089'
p499
sg7
S'2756'
p500
sg9
S'Hey, all you beautiful people out there !! Subscribe to my YouTube Channel to stay connected with me !!\n\nhttps://t.co/dmh95dVcCQ'
p501
sg11
S'115'
p502
sba(iObject
Object
p503
(dp504
g5
S'943718685050417158'
p505
sg7
g12
sg9
S'Many many happy returns of your 54th birthday @govindaahuja21 sir !! Dua karta hu is saal aapko kaamyaabi aur khush... https://t.co/2WjXibt3r5'
p506
sg11
g12
sba(iObject
Object
p507
(dp508
g5
S'943665335336558593'
p509
sg7
g8
sg9
S'RT @RJMeenakshi1: We are here only briefly ...and we should allow ourselves nothing but joy ! #ThursdayMotivation #ThursdayThoughts https:/...'
p510
sg11
g12
sba(iObject
Object
p511
(dp512
g5
S'943390660404461569'
p513
sg7
g12
sg9
S'Many many happy returns of the day @SohailKhan bhai.... Enjoy the day hard .... '
p514
sg11
g17
sba(iObject
Object
p515
(dp516
g5
S'943112489239175169'
p517
sg7
S'1672'
p518
sg9
S'RT @RihannaDaily: #OCEANS8 trailer is finally here! Coming June 2018. https://t.co/gQkTyfmyCB'
p519
sg11
g12
sba(iObject
Object
p520
(dp521
g5
S'943066025859280896'
p522
sg7
g8
sg9
S'RT @RJDixita: Before i go On-air...... this is wat we do.... @IamDipen https://t.co/sc7QRRBLaB'
p523
sg11
g12
sba(iObject
Object
p524
(dp525
g5
S'943061119895142400'
p526
sg7
S'257'
p527
sg9
S'RT @pawankumar86kg: Won SilverMedal in Commonwealth Championship  https://t.co/UneK0RjYJC'
p528
sg11
g12
sba(iObject
Object
p529
(dp530
g5
S'942652935162482688'
p531
sg7
g12
sg9
S'Many many returns of the day @RichaChadha. May you get numerous accolades of success, joy and happiness this year..... https://t.co/4TQ19sAkMm'
p532
sg11
g17
sba(iObject
Object
p533
(dp534
g5
S'941208310627233792'
p535
sg7
g12
sg9
S'Many many happy returns of the day... May you get numerous achievements and accolades in the terms of success and h... https://t.co/w4eYSgy1oP'
p536
sg11
g12
sba(iObject
Object
p537
(dp538
g5
S'940464749019463680'
p539
sg7
g12
sg9
S'Happy bday 2 1 of the most respected actors of all time @superstarrajini sir :) &amp; also 2 1 of the most successful c... https://t.co/DrPQzrlzoj'
p540
sg11
g8
sba(iObject
Object
p541
(dp542
g5
S'940462210412773376'
p543
sg7
g12
sg9
S'Hey, @kritisanon did you know that you have completed your 10,000 wonderful days in this wonderful world today. So,... https://t.co/pNFplM4rSQ'
p544
sg11
g12
sba(iObject
Object
p545
(dp546
g5
S'940121259513323521'
p547
sg7
g12
sg9
S'Many many happy returns to one of the greatest legends of the #Bollywood Film Industry #DilipKumar Ji... May this y... https://t.co/LBVZFcRlqc'
p548
sg11
g17
sba(iObject
Object
p549
(dp550
g5
S'939801764336885761'
p551
sg7
g12
sg9
S'@rjnoelk Surely Yes !!!'
p552
sg11
g12
sba(iObject
Object
p553
(dp554
g5
S'939722035193790464'
p555
sg7
S'72'
p556
sg9
S'RT @nikifyinglife: Carpe diem  #LiveInTheNow https://t.co/mP170uU43o'
p557
sg11
g12
sba(iObject
Object
p558
(dp559
g5
S'938633700337598465'
p560
sg7
S'786'
p561
sg9
S'RT @ShraddhaKapoor:  @FeminaIndia @shraddhastyles @AmitThakur26 #AkshitaSingh https://t.co/L44X92iXuN'
p562
sg11
g12
sba(iObject
Object
p563
(dp564
g5
S'937660236847988736'
p565
sg7
g12
sg9
S'@JohnLusher Yes, I apparently need consultancy on #Youtube. I am not aware of some of its features and there will b... https://t.co/0FRNEJnxNZ'
p566
sg11
g17
sba(iObject
Object
p567
(dp568
g5
S'937557842193629184'
p569
sg7
g12
sg9
S'#indiannavyday #IndianNavy https://t.co/K32QznYngF'
p570
sg11
g12
sba(iObject
Object
p571
(dp572
g5
S'937329007632060416'
p573
sg7
g12
sg9
S'@JohnLusher Hey @JohnLusher do you also provide consultancy on social media too ? '
p574
sg11
g8
sba(iObject
Object
p575
(dp576
g5
S'936843811405283329'
p577
sg7
g12
sg9
S'Thank you so much Sir !!  https://t.co/alf81zCYAs'
p578
sg11
g12
sba(iObject
Object
p579
(dp580
g5
S'936836664948703232'
p581
sg7
g12
sg9
S'Many many happy returns of the day to the one &amp; only... Viru Sahastra Buddhe !! ... May you have a more peaceful,... https://t.co/racw2RigFP'
p582
sg11
g12
sba(iObject
Object
p583
(dp584
g5
S'936790487536504832'
p585
sg7
g12
sg9
S'Where is the nearest centre of body sculptor from Sakinaka ? @prashantsixpack sir ? https://t.co/YnRfFmspAB'
p586
sg11
g12
sba(iObject
Object
p587
(dp588
g5
S'936775507290480640'
p589
sg7
S'312'
p590
sg9
S'RT @BW: .@IISuperwomanII\'s "witty and woke" comedy is being recognized in the #Bloomberg50 https://t.co/Zg44ALq4Nt https://t.co/ZUH6XSeACg'
p591
sg11
g12
sba(iObject
Object
p592
(dp593
g5
S'936773897977937920'
p594
sg7
S'16'
p595
sg9
S'RT @TimesNow: Madame Tussauds opens in Delhi\nhttps://t.co/Q1PetEfRzw'
p596
sg11
g12
sba(iObject
Object
p597
(dp598
g5
S'936535000505245702'
p599
sg7
g12
sg9
S'One Life, One Wife #WorldAIDSDay'
p600
sg11
g12
sba(iObject
Object
p601
(dp602
g5
S'935453566684184576'
p603
sg7
g12
sg9
S'@melissa90161799 Insta ? Snapchat ? Whatsapp ? Anything... please ?'
p604
sg11
g12
sba(iObject
Object
p605
(dp606
g5
S'935446534170206208'
p607
sg7
g12
sg9
S'@melissa90161799 Can you connect with me on facebook Melissa ? :) I wanna ask something about her ?'
p608
sg11
g12
sba(iObject
Object
p609
(dp610
g5
S'935444060885499904'
p611
sg7
g12
sg9
S'Are you too a fan of #MaryElizabethWinstead ? @melissa90161799'
p612
sg11
g17
sba(iObject
Object
p613
(dp614
g5
S'935404799880609793'
p615
sg7
g12
sg9
S'@yamigautam Many many happy returns of your 29th Birthday... I wish you will receive lots of success, happiness and... https://t.co/LoUYw69tbI'
p616
sg11
g12
sba(iObject
Object
p617
(dp618
g5
S'935403580793667585'
p619
sg7
S'4'
p620
sg9
S'#MaryElizabethWinstead Happy Birthday Mary Elizabeth Winstead... Fan from #India.. Love you... Mmmuuuaaahhh https://t.co/E20yz3u3vM'
p621
sg11
S'13'
p622
sba(iObject
Object
p623
(dp624
g5
S'935120654285672448'
p625
sg7
S'4643'
p626
sg9
S"RT @HorrorPlaces: rt and you might save someone's life, especially with all our girls going missing https://t.co/UAVYtcgHbd"
p627
sg11
g12
sba(iObject
Object
p628
(dp629
g5
S'934631921979555840'
p630
sg7
S'11'
p631
sg9
S'RT @Fact: Memory loss: 10 tips to improve your memory... https://t.co/z4rLiiQcol'
p632
sg11
g12
sba(iObject
Object
p633
(dp634
g5
S'934629940795805696'
p635
sg7
S'2863'
p636
sg9
S'RT @EarnKnowledge: Stray dog saves innocent woman from robber https://t.co/XPXvBujoHM'
p637
sg11
g12
sba(iObject
Object
p638
(dp639
g5
S'934103405903069185'
p640
sg7
g12
sg9
S'Thank you @JohnLusher https://t.co/NFXHhdJ0Xp'
p641
sg11
g17
sba(iObject
Object
p642
(dp643
g5
S'934060792428634112'
p644
sg7
g8
sg9
S'RT @JohnLusher: 32 Books Anyone Who Wants to Succeed Should Read https://t.co/5ylkhRIl2l https://t.co/ydHwF7vfrD'
p645
sg11
g12
sba(iObject
Object
p646
(dp647
g5
S'933737040083947520'
p648
sg7
g12
sg9
S'When will #Jigsaw release in India ? Sir ?? :) #fanfromindia https://t.co/EM4iZCxRNE'
p649
sg11
g12
sba(iObject
Object
p650
(dp651
g5
S'933595216761667584'
p652
sg7
g12
sg9
S'@rjnoelk Then too there are people are still fighting for existence of sources of pollution...'
p653
sg11
g12
sba(iObject
Object
p654
(dp655
g5
S'933291645600129024'
p656
sg7
g12
sg9
S'https://t.co/zXNSz3OTxK'
p657
sg11
g12
sba(iObject
Object
p658
(dp659
g5
S'933291212710191104'
p660
sg7
g12
sg9
S'#NewCoverPhoto https://t.co/QEwNKmE5Ap'
p661
sg11
g12
sba(iObject
Object
p662
(dp663
g5
S'932869035405975553'
p664
sg7
g12
sg9
S'@RJADITI Same here ;) Aditi !! :D'
p665
sg11
g12
sba(iObject
Object
p666
(dp667
g5
S'932867535342415872'
p668
sg7
g12
sg9
S'@Officialneha Your welcome @Officialneha'
p669
sg11
g12
sba(iObject
Object
p670
(dp671
g5
S'932861620648230912'
p672
sg7
g12
sg9
S'Nice thought for a day start .. Tysm @rjshru :) ;) Will utilize this day for the same...  https://t.co/QVT1qvPegk'
p673
sg11
g17
sba(iObject
Object
p674
(dp675
g5
S'932859478654906368'
p676
sg7
g12
sg9
S'@Officialneha Hey Neha !! Many many happy returns of the day. May you stay lovely like you are... in fact you may b... https://t.co/rOrgneL7un'
p677
sg11
g12
sba(iObject
Object
p678
(dp679
g5
S'932559181734846465'
p680
sg7
g12
sg9
S'@mymalishka @vidya_balan @NehaDhupia Did you all see this ? https://t.co/bf343PcaHb'
p681
sg11
g17
sba(iObject
Object
p682
(dp683
g5
S'932556322297360384'
p684
sg7
g65
sg9
S'RT @airnewsalerts: Watch the opening ceremony of #IFFI2017 live on DD National YouTube channel at 3:15 pm today https://t.co/c2HvG490Ck'
p685
sg11
g12
sba(iObject
Object
p686
(dp687
g5
S'932546219129241600'
p688
sg7
g12
sg9
S'Jai Ho Baba Sehgal @OnlyBabaSehgal  Ki ..  https://t.co/RUoXDejReT'
p689
sg11
g17
sba(iObject
Object
p690
(dp691
g5
S'932541718888529920'
p692
sg7
g12
sg9
S'#HappyBirthdayMilkhaSingh Many many happy returns of the day to the Flying Sikh of our nation who has inspired nume... https://t.co/n7TCXaJJS9'
p693
sg11
g12
sba(iObject
Object
p694
(dp695
g5
S'932500638172200960'
p696
sg7
g17
sg9
S'#mumbairains No need to go #Mahabaleshwar or #Matheran this Monday... #Mumbai itself is a hill station today... ;)'
p697
sg11
g176
sba(iObject
Object
p698
(dp699
g5
S'932491726572306432'
p700
sg7
g12
sg9
S'May all the childrens in this universe get success and happiness in their coming life.. :) #UniversalChildrensDay'
p701
sg11
g12
sba(iObject
Object
p702
(dp703
g5
S'932136584421314560'
p704
sg7
g12
sg9
S'Congo !! #ManushiChhillar https://t.co/V4X4OPbcfA'
p705
sg11
g12
sba(iObject
Object
p706
(dp707
g5
S'932136499709059072'
p708
sg7
S'325'
p709
sg9
S'RT @ScoopWhoop: After 17 years, #Indias finally won the #MissWorld title with #ManushiChhillar: https://t.co/xPS3zQMPDf\n#MissWorld2017 #Ma...'
p710
sg11
g12
sba(iObject
Object
p711
(dp712
g5
S'931912460231000064'
p713
sg7
S'16'
p714
sg9
S'RT @ETCBollywood: Netflix and Red Chillies Chill. https://t.co/9Asx1m2blS'
p715
sg11
g12
sba(iObject
Object
p716
(dp717
g5
S'931912269289611265'
p718
sg7
g12
sg9
S'All the thugs and vandals who are trying to #BoycottPadmavati. Be careful, coz you might end up promoting the film.... https://t.co/ooTWZkFSNp'
p719
sg11
g12
sba(iObject
Object
p720
(dp721
g5
S'931814447634571264'
p722
sg7
g12
sg9
S'Same here :) @IISuperwomanII https://t.co/SuL5Q7idIk'
p723
sg11
g12
sba(iObject
Object
p724
(dp725
g5
S'931785358211039232'
p726
sg7
S'5740'
p727
sg9
S'RT @iamsrk: Netflix &amp; Red Chillies chill... https://t.co/Aew737MtTh'
p728
sg11
g12
sba(iObject
Object
p729
(dp730
g5
S'931490337855479809'
p731
sg7
g12
sg9
S'@htTweets Are let the movie release first....'
p732
sg11
g12
sba(iObject
Object
p733
(dp734
g5
S'931477462394925056'
p735
sg7
g12
sg9
S'The only cup will get the coffee is 5...@indy100 No other cup will get the coffee.. https://t.co/sJANXFJURX'
p736
sg11
g12
sba(iObject
Object
p737
(dp738
g5
S'931429429359788033'
p739
sg7
g12
sg9
S'Never underestimate the spirit/power of a person living with epilepsy. Be a voice for epilepsy awareness on this #NationalEpilepsyDay.... '
p740
sg11
g17
sba(iObject
Object
p741
(dp742
g5
S'931428306770989056'
p743
sg7
g12
sg9
S'@iamyusufpathan Many many happy returns of the day Yusuf Bhai. Insha-allah is saal aapko kamyaabi aur khushi ke aur... https://t.co/0yyNpsjKww'
p744
sg11
g8
sba(iObject
Object
p745
(dp746
g5
S'931160459889164288'
p747
sg7
g12
sg9
S'Of course Rs. 3000/- https://t.co/vhL3M5ALpl'
p748
sg11
g12
sba(iObject
Object
p749
(dp750
g5
S'931159941770907649'
p751
sg7
g12
sg9
S'Lol .. at 0:31 ... https://t.co/9I2XbHpuYK'
p752
sg11
g12
sba(iObject
Object
p753
(dp754
g5
S'931117024108933121'
p755
sg7
S'57'
p756
sg9
S'Shahrukh Khan talks about the achievements of #Chakdeindia #10yearsofchakdeindia\n\nhttps://t.co/qoK2PxRKMs'
p757
sg11
g12
sba(iObject
Object
p758
(dp759
g5
S'931114053195452418'
p760
sg7
g12
sg9
S'Shahrukh Khan talks about Chak De ! India on completing 10 years.: https://t.co/U5ddpWoy63 via @YouTube'
p761
sg11
g12
sba(iObject
Object
p762
(dp763
g5
S'931102860569227264'
p764
sg7
g12
sg9
S'Besides the new feature of @Twitter of #280characters, #Twitter should also introduce a new feature in which we can... https://t.co/Cx7XXaTaGn'
p765
sg11
g17
sba(iObject
Object
p766
(dp767
g5
S'931101606153555968'
p768
sg7
S'72'
p769
sg9
S'Who is the more gorgeous among the 2 looks of @vidya_balan ? #TumhariSulu'
p770
sg11
g17
sba(iObject
Object
p771
(dp772
g5
S'931100411892600832'
p773
sg7
g12
sg9
S'Hahaha !! Where is that place ?  https://t.co/zKorvsWvpy'
p774
sg11
g12
sba(iObject
Object
p775
(dp776
g5
S'931096137489981441'
p777
sg7
S'10'
p778
sg9
S'RT @daily_pol1: Which upcoming actress do you find more beautiful #JanhviKapoor OR #SaraAliKhan ? #IshaanKhatter # #sairat #ShahidKapoo...'
p779
sg11
g12
sba(iObject
Object
p780
(dp781
g5
S'931095617492828160'
p782
sg7
g12
sg9
S'Best of Luck @mymalishka and to the rest of the team also for tomorrow. #TumhariSulu #TumhariSullu... https://t.co/YbWUjQVYKB'
p783
sg11
g12
sba(iObject
Object
p784
(dp785
g5
S'931085622495789056'
p786
sg7
g12
sg9
S'@IamKirtiKulhari @vidya_balan @NehaDhupia @rjmalishkaa @Manavkaul19 @sureshtriveni @atulkasbekar @priyagupta999 I t... https://t.co/pWrIKbbG6M'
p787
sg11
g12
sba(iObject
Object
p788
(dp789
g5
S'931064318992330752'
p790
sg7
g12
sg9
S'#Deadpool2 teaser is finally out !!! \nhttps://t.co/LNVEb5JUsL'
p791
sg11
g12
sba(iObject
Object
p792
(dp793
g5
S'931059697062363137'
p794
sg7
g12
sg9
S'Many many happy returns of the day @AdityaRoyKapoor bhantai.. May this year bring lots of happiness &amp; success in yo... https://t.co/Z3N3s6jHvp'
p795
sg11
g12
sba(iObject
Object
p796
(dp797
g5
S'930710523217248256'
p798
sg7
g12
sg9
S'@HopeJaymes '
p799
sg11
g12
sba(iObject
Object
p800
(dp801
g5
S'930708172020449280'
p802
sg7
g12
sg9
S'@HopeJaymes How can someone be so cute like you @HopeJaymes '
p803
sg11
g17
sba(iObject
Object
p804
(dp805
g5
S'930372415351177217'
p806
sg7
S'213'
p807
sg9
S'RT @neverknownfacts: Mistakes are proof that you are trying.'
p808
sg11
g12
sba(iObject
Object
p809
(dp810
g5
S'930328330531774464'
p811
sg7
g12
sg9
S"#HappyChildrensDay to all the cute children's day worldwide... May you enjoy ur childhood upto the most. The future... https://t.co/rJBLE7AIu3"
p812
sg11
g12
sba(iObject
Object
p813
(dp814
g5
S'929709992604774400'
p815
sg7
S'52'
p816
sg9
S'RT @jaavedjaaferi: If youre having difficulty raising kids.. try adding baking powder'
p817
sg11
g12
sba(iObject
Object
p818
(dp819
g5
S'928917290858332160'
p820
sg7
S'5625'
p821
sg9
S'RT @verified: If you think your account should be verified  let us know! Check out our article to learn what it takes to apply. https://t....'
p822
sg11
g12
sba(iObject
Object
p823
(dp824
g5
S'928637609084993536'
p825
sg7
g12
sg9
S'@rjnoelk Many many happy returns of the day.. Sir '
p826
sg11
g12
sba(iObject
Object
p827
(dp828
g5
S'928517849672433664'
p829
sg7
S'40'
p830
sg9
S'RT @UKSRKUniverse: #10YearsOfOSO with @iamsrk @deepikapadukone @TheFarahKhan @shreyastalpade1 @SRKUniverse https://t.co/YMwrE0m4Sb'
p831
sg11
g12
sba(iObject
Object
p832
(dp833
g5
S'928517826016452608'
p834
sg7
S'61'
p835
sg9
S'RT @SRKCHENNAIFC: RT if u loved the biggest blockbuster #10YearsOfOSO and tell us your favourite dialogues from the film  https://t.co/s9...'
p836
sg11
g12
sba(iObject
Object
p837
(dp838
g5
S'927812097697726464'
p839
sg7
g12
sg9
S'https://t.co/ZBQNTCW0Hm'
p840
sg11
g12
sba(iObject
Object
p841
(dp842
g5
S'927809136871358464'
p843
sg7
g12
sg9
S'Seriously  ???  https://t.co/0omUIQ2zVB'
p844
sg11
g17
sba(iObject
Object
p845
(dp846
g5
S'927528416693198849'
p847
sg7
g12
sg9
S'@iamsrk 3 days to go for #10yearsofomshantiom '
p848
sg11
g12
sba(iObject
Object
p849
(dp850
g5
S'927458078554955776'
p851
sg7
g8
sg9
S'RT @Saura_SE: "@yrf: Heres a special message from the ONE who brought Kabir Khan to life.\n@iamsrk on #10YearsOfChakDeIndia https://t.co/...'
p852
sg11
g12
sba(iObject
Object
p853
(dp854
g5
S'927032877493116928'
p855
sg7
g12
sg9
S'#NewProfilePic https://t.co/mnnGZoZKHp'
p856
sg11
g12
sba(iObject
Object
p857
(dp858
g5
S'926694418832269312'
p859
sg7
S'187'
p860
sg9
S'RT @airnewsalerts: In short span of 3 years, India has jumped up 42 spots in the Doing Biz ranking: @narendramodi https://t.co/TWiUO3W1NM'
p861
sg11
g12
sba(iObject
Object
p862
(dp863
g5
S'925944192936787969'
p864
sg7
g12
sg9
S'@iamsrk @Esha_Deol @DianaPenty #AnuMalik Many many happy returns of the day all 4 of u, may dis year bring lots of... https://t.co/uapLMYzPIk'
p865
sg11
g12
sba(iObject
Object
p866
(dp867
g5
S'925613196152471552'
p868
sg7
g12
sg9
S' Friendship Day 2012\n\nhttps://t.co/8sm2Mk4XLV'
p869
sg11
g12
sba(iObject
Object
p870
(dp871
g5
S'924986546054246400'
p872
sg7
g12
sg9
S'#NewProfilePic  https://t.co/kCfyt8FQFL'
p873
sg11
g12
sbasS'Jonbuckhouse'
p874
(lp875
(iObject
Object
p876
(dp877
g5
S'976303517504647168'
p878
sg7
S'583'
p879
sg9
S'Cruising down the street in my 6-4!  Buckle the f*ck up for the #JSFamilyVacation season premiere Jerzday, April 5... https://t.co/MRBwbPMCan'
p880
sg11
S'644'
p881
sba(iObject
Object
p882
(dp883
g5
S'975126174891462657'
p884
sg7
S'2242'
p885
sg9
S"Hapoy St.Patrick's Day Everyone! #HappyStPatricksDay #StPatricksDay2018 #StPatricksDay"
p886
sg11
S'2332'
p887
sba(iObject
Object
p888
(dp889
g5
S'973561740616196098'
p890
sg7
g12
sg9
S"@jhacemagno @Aynslee_4 No problem! I'm here to help now and in the future whatever you need!"
p891
sg11
g8
sba(iObject
Object
p892
(dp893
g5
S'973561540111675392'
p894
sg7
g176
sg9
S'RT @jhacemagno: @Jonbuckhouse thank you so much for helping me earlier. Lost my shxt right there. But thanks. @Aynslee_4 sorry auntie. Im t...'
p895
sg11
g12
sba(iObject
Object
p896
(dp897
g5
S'973003752981651456'
p898
sg7
S'2332'
p899
sg9
S'Watching The Stranger 2: Prey at Night! Very good movie go see it so they can make a Strangers 3! #TheStrangers #PreyAtNight @TheStrangers'
p900
sg11
S'2241'
p901
sba(iObject
Object
p902
(dp903
g5
S'968035899287199744'
p904
sg7
S'2094'
p905
sg9
S'The Walking Dead After Show was great tonight! See you guys again next Sunday at 10:30/9:30c for another Walking De... https://t.co/qGAmEMa95Q'
p906
sg11
S'1709'
p907
sba(iObject
Object
p908
(dp909
g5
S'967948845639401473'
p910
sg7
S'979'
p911
sg9
S'RT @WalkingDead_AMC: If you could say one last thing, what would it be? #TWD https://t.co/iCm0FvYz8h'
p912
sg11
g12
sba(iObject
Object
p913
(dp914
g5
S'967948831022346241'
p915
sg7
S'1219'
p916
sg9
S'RT @WalkingDead_AMC: The proof. #TWD https://t.co/hsZxCVza7J'
p917
sg11
g12
sba(iObject
Object
p918
(dp919
g5
S'967939585572470792'
p920
sg7
S'1569'
p921
sg9
S'RT @WalkingDead_AMC: Good luck lol #TWD https://t.co/GkQEvyMQwZ'
p922
sg11
g12
sba(iObject
Object
p923
(dp924
g5
S'967936447385886720'
p925
sg7
S'1194'
p926
sg9
S'RT @WalkingDead_AMC: Hes got one purpose now. #TWD https://t.co/MpxTQiJana'
p927
sg11
g12
sba(iObject
Object
p928
(dp929
g5
S'967840434994208768'
p930
sg7
S'2403'
p931
sg9
S'The Walking Dead after show is tonight at 9:30c right after The Walking Dead. We will be discussing the current epi... https://t.co/OGngBQfa40'
p932
sg11
S'2067'
p933
sba(iObject
Object
p934
(dp935
g5
S'967602861252251648'
p936
sg7
S'3741'
p937
sg9
S'RT @WalkingDead_AMC: Tomorrow. Its all led to this. #TWD https://t.co/1ZaCKlz1f7'
p938
sg11
g12
sba(iObject
Object
p939
(dp940
g5
S'966426983633694722'
p941
sg7
S'1206'
p942
sg9
S'The Walking Dead After Show starting February 25th at 10:30/9:30C on YouNow! @YouNow #TheWalkingDead #YouNow'
p943
sg11
S'407'
p944
sba(iObject
Object
p945
(dp946
g5
S'965977411627225092'
p947
sg7
S'3670'
p948
sg9
S'prey for your life  THE STRANGERS: #PreyAtNight hits theaters everywhere March 9. @TheStrangers https://t.co/KtlGYoBFmI'
p949
sg11
S'1007'
p950
sba(iObject
Object
p951
(dp952
g5
S'965314153081655298'
p953
sg7
S'4316'
p954
sg9
S'RT @WalkingDead_AMC: One week. One. Last. Stand. #TWD https://t.co/kmC13xonHm'
p955
sg11
g12
sba(iObject
Object
p956
(dp957
g5
S'964876752257470464'
p958
sg7
g17
sg9
S'RT @A_vizy: @Jonbuckhouse @YouNow Aye finally!'
p959
sg11
g12
sba(iObject
Object
p960
(dp961
g5
S'964876734259658753'
p962
sg7
g17
sg9
S'@A_vizy @YouNow Right haha! Thanks!'
p963
sg11
g8
sba(iObject
Object
p964
(dp965
g5
S'964844418724454405'
p966
sg7
S'11'
p967
sg9
S'RT @LLoserLoki: Hope you\'re ready for the biggest weekly talkshow "THE SUMMIT" - Today at 4PM EST / 9PM GMT live only on @YouNow. Make sure...'
p968
sg11
g12
sba(iObject
Object
p969
(dp970
g5
S'964787557975363584'
p971
sg7
g17
sg9
S"RT @Guitapapa: @Jonbuckhouse @YouNow WoW congrats I'll try to catch you , I'm also waiting ....so near to. 5k now !!!"
p972
sg11
g12
sba(iObject
Object
p973
(dp974
g5
S'964787543790235648'
p975
sg7
g12
sg9
S'@Guitapapa @YouNow Thanks! Keep up the good work!'
p976
sg11
g8
sba(iObject
Object
p977
(dp978
g5
S'964787458499112960'
p979
sg7
g17
sg9
S'RT @SkippyEvil: @Jonbuckhouse @YouNow Welcome to the Family'
p980
sg11
g12
sba(iObject
Object
p981
(dp982
g5
S'964787444058066944'
p983
sg7
g17
sg9
S'RT @SkippyEvil: Congrats bro........ https://t.co/rgPBezk0Yf'
p984
sg11
g12
sba(iObject
Object
p985
(dp986
g5
S'964787434105069568'
p987
sg7
g12
sg9
S'@SkippyEvil Thanks :)'
p988
sg11
g17
sba(iObject
Object
p989
(dp990
g5
S'964674515086249985'
p991
sg7
g17
sg9
S'RT @Wan_Holloway: @Jonbuckhouse I just got WiFi back but  congrats omg finally it happened !!!!'
p992
sg11
g12
sba(iObject
Object
p993
(dp994
g5
S'964672878665977856'
p995
sg7
g12
sg9
S'@Wan_Holloway Thanks! Going Live at midnight!'
p996
sg11
g17
sba(iObject
Object
p997
(dp998
g5
S'964672270529593344'
p999
sg7
S'10'
p1000
sg9
S'RT @BrattyCupcakes: Hosting @ShadeFactoryTSF  tonight at 10 pm EST! We will be talking about The Vigilant Christian, @Trinitybudde , Raw...'
p1001
sg11
g12
sba(iObject
Object
p1002
(dp1003
g5
S'964671975980523520'
p1004
sg7
g17
sg9
S'RT @Ashleyteetay: @Jonbuckhouse @YouNow  https://t.co/S7PiJQzhGE'
p1005
sg11
g12
sba(iObject
Object
p1006
(dp1007
g5
S'964658008008601600'
p1008
sg7
g12
sg9
S'@Ashleyteetay @YouNow Thanks!!!'
p1009
sg11
g12
sba(iObject
Object
p1010
(dp1011
g5
S'964647128332201984'
p1012
sg7
g17
sg9
S"RT @LisaRobinElla: @Jonbuckhouse Congratulations Boo! I'm so proud of you...Much Love XOXO"
p1013
sg11
g12
sba(iObject
Object
p1014
(dp1015
g5
S'964647089782345729'
p1016
sg7
g12
sg9
S'@LisaRobinElla Thanks so much! '
p1017
sg11
g12
sba(iObject
Object
p1018
(dp1019
g5
S'964647023881457670'
p1020
sg7
g12
sg9
S'@KLWDavis @CloverfieldPRDX @netflix '
p1021
sg11
g12
sba(iObject
Object
p1022
(dp1023
g5
S'964646958072811520'
p1024
sg7
g17
sg9
S'RT @KLWDavis: @Jonbuckhouse @YouNow OOOOOMMMGGGGG CONGRATS! Im so happy for you I could Twerk! Ok no Ill leave that to you but YAYAYAYAYA...'
p1025
sg11
g12
sba(iObject
Object
p1026
(dp1027
g5
S'964646945271828481'
p1028
sg7
g12
sg9
S'@KLWDavis @YouNow HAHAHA Thanks ILY! '
p1029
sg11
g12
sba(iObject
Object
p1030
(dp1031
g5
S'964615332697661442'
p1032
sg7
g17
sg9
S'RT @Aynslee_4: @Jonbuckhouse @YouNow Congrats Jon!! Awesome job sweetie!!! '
p1033
sg11
g12
sba(iObject
Object
p1034
(dp1035
g5
S'964615308756639744'
p1036
sg7
g17
sg9
S'RT @xooropa: @Jonbuckhouse @YouNow Bout time! Wooooo!!!!!'
p1037
sg11
g12
sba(iObject
Object
p1038
(dp1039
g5
S'964615257179279360'
p1040
sg7
g12
sg9
S'@xooropa @YouNow Yesss! Thanks!'
p1041
sg11
g17
sba(iObject
Object
p1042
(dp1043
g5
S'964615216108654592'
p1044
sg7
g12
sg9
S'@Aynslee_4 @YouNow Thanks!'
p1045
sg11
g17
sba(iObject
Object
p1046
(dp1047
g5
S'964597028587278336'
p1048
sg7
g17
sg9
S'RT @haleytheoutlet: @Jonbuckhouse @YouNow Omfg finally'
p1049
sg11
g12
sba(iObject
Object
p1050
(dp1051
g5
S'964596990423322624'
p1052
sg7
g17
sg9
S'RT @cutiekaleb12: @Jonbuckhouse @MissWildLaura @YouNow Congratulations'
p1053
sg11
g12
sba(iObject
Object
p1054
(dp1055
g5
S'964596164787167232'
p1056
sg7
g12
sg9
S'@cutiekaleb12 @MissWildLaura @YouNow Thanks! :)'
p1057
sg11
g12
sba(iObject
Object
p1058
(dp1059
g5
S'964591509747138560'
p1060
sg7
g12
sg9
S'@haleytheoutlet @YouNow  Right!'
p1061
sg11
g17
sba(iObject
Object
p1062
(dp1063
g5
S'964586697840386050'
p1064
sg7
g12
sg9
S'@MissWildLaura @YouNow Thanks! '
p1065
sg11
g12
sba(iObject
Object
p1066
(dp1067
g5
S'964586668119547904'
p1068
sg7
g17
sg9
S'RT @MissWildLaura: @Jonbuckhouse @YouNow Congrats love https://t.co/h27yLJ3v8I'
p1069
sg11
g12
sba(iObject
Object
p1070
(dp1071
g5
S'964575903186644994'
p1072
sg7
S'1520'
p1073
sg9
S'Whatever your doing right now. STOP. Watch the Cloverfield Paradox NOW on Netflix!  Right. Now. #CloverfieldParadox... https://t.co/PWipxbNsqT'
p1074
sg11
S'909'
p1075
sba(iObject
Object
p1076
(dp1077
g5
S'964573087827099652'
p1078
sg7
g17
sg9
S'RT @Jxo1601: @Jonbuckhouse @YouNow Congrats! You deserve it!'
p1079
sg11
g12
sba(iObject
Object
p1080
(dp1081
g5
S'964573080268963841'
p1082
sg7
g17
sg9
S'RT @congratsbot: @Jonbuckhouse congratulations!'
p1083
sg11
g12
sba(iObject
Object
p1084
(dp1085
g5
S'964573072547336192'
p1086
sg7
g17
sg9
S'RT @TJDFamRules17: @Jonbuckhouse @YouNow Congrats'
p1087
sg11
g12
sba(iObject
Object
p1088
(dp1089
g5
S'964572973368832000'
p1090
sg7
g12
sg9
S'@TJDFamRules17 @YouNow Thanks!'
p1091
sg11
g12
sba(iObject
Object
p1092
(dp1093
g5
S'964572940225441794'
p1094
sg7
g12
sg9
S'@congratsbot Thanks :)'
p1095
sg11
g12
sba(iObject
Object
p1096
(dp1097
g5
S'964572918775730176'
p1098
sg7
g12
sg9
S'@Jxo1601 @YouNow Thanks :)'
p1099
sg11
g12
sba(iObject
Object
p1100
(dp1101
g5
S'964553129781063681'
p1102
sg7
g12
sg9
S'@apoetsmuse @YouNow Thanks! :P'
p1103
sg11
g12
sba(iObject
Object
p1104
(dp1105
g5
S'964547600794968065'
p1106
sg7
g12
sg9
S'@CoreyTancin @jaelin_renae @YouNow Thanks so much!'
p1107
sg11
g17
sba(iObject
Object
p1108
(dp1109
g5
S'964547508918804482'
p1110
sg7
g17
sg9
S'RT @CoreyTancin: @jaelin_renae @Jonbuckhouse @YouNow Congratulations Jon you deserve it youre an awesome broadcaster'
p1111
sg11
g12
sba(iObject
Object
p1112
(dp1113
g5
S'964547180521574400'
p1114
sg7
g8
sg9
S'RT @MommmaLiz: @Jonbuckhouse @YouNow Congrats!!!!! '
p1115
sg11
g12
sba(iObject
Object
p1116
(dp1117
g5
S'964547151530471425'
p1118
sg7
g17
sg9
S'RT @jaelin_renae: @Jonbuckhouse @YouNow Congrats!'
p1119
sg11
g12
sba(iObject
Object
p1120
(dp1121
g5
S'964547114930929664'
p1122
sg7
g17
sg9
S'RT @Mamabreezi: Congrats!!!!  you https://t.co/yGP3AEqh5b'
p1123
sg11
g12
sba(iObject
Object
p1124
(dp1125
g5
S'964546935301509120'
p1126
sg7
g12
sg9
S'@Mamabreezi Thanks :)'
p1127
sg11
g17
sba(iObject
Object
p1128
(dp1129
g5
S'964546896743337985'
p1130
sg7
g12
sg9
S'@MommmaLiz @YouNow Thank you so much MommaLiz!!'
p1131
sg11
g12
sba(iObject
Object
p1132
(dp1133
g5
S'964542741689626624'
p1134
sg7
g12
sg9
S'@jaelin_renae @YouNow Thanks so much!'
p1135
sg11
g17
sba(iObject
Object
p1136
(dp1137
g5
S'964542028343324672'
p1138
sg7
g12
sg9
S'@EdwardARizzo @YouNow Thanks Ed! '
p1139
sg11
g17
sba(iObject
Object
p1140
(dp1141
g5
S'964541955345670144'
p1142
sg7
g17
sg9
S'RT @EdwardARizzo: @Jonbuckhouse @YouNow Finally! Congrats!'
p1143
sg11
g12
sba(iObject
Object
p1144
(dp1145
g5
S'964540841372082176'
p1146
sg7
S'1513'
p1147
sg9
S'I FINALLY GOT PARTNERED! THANK YOU SO MUCH @YouNow PARTNERSHIP BROADCAST TONIGHT AT 6PM CST! #YOUNOW #PARTNERED'
p1148
sg11
S'882'
p1149
sba(iObject
Object
p1150
(dp1151
g5
S'964237703222104064'
p1152
sg7
S'1627'
p1153
sg9
S'Everyone prepare yourself. Never Underestimate the kindness of Strangers! Strangers: Prey At Night in Theaters Marc... https://t.co/qXWWtDxrcX'
p1154
sg11
S'978'
p1155
sba(iObject
Object
p1156
(dp1157
g5
S'963600202413281280'
p1158
sg7
S'1084'
p1159
sg9
S'let us   THE STRANGERS #PreyAtNight official trailer is here. in theaters march 9. So excited everyone get ready!... https://t.co/04tN89vn4L'
p1160
sg11
S'92'
p1161
sba(iObject
Object
p1162
(dp1163
g5
S'963077647281553408'
p1164
sg7
S'902'
p1165
sg9
S'If you havent seen The Cloverfield Paradox DO IT NOW! @CloverfieldPRDX\nGo forward to where it all began.... https://t.co/62t1c2wSpT'
p1166
sg11
S'1258'
p1167
sba(iObject
Object
p1168
(dp1169
g5
S'962782951686770689'
p1170
sg7
S'2591'
p1171
sg9
S'RT @WalkingDead_AMC: 2 weeks left. Is the Kingdom ready for one last stand? #TWD https://t.co/33J9osr8Tq'
p1172
sg11
g12
sba(iObject
Object
p1173
(dp1174
g5
S'960929539672113152'
p1175
sg7
S'76'
p1176
sg9
S"RT @SHO_Homeland: Who's the enemy? #Homeland #Showtime https://t.co/Fqu47XVMuS"
p1177
sg11
g12
sba(iObject
Object
p1178
(dp1179
g5
S'960657756570218496'
p1180
sg7
S'71'
p1181
sg9
S'RT @CloverfieldPRDX: Stop. #CloverfieldParadox https://t.co/cPutBRvhyp'
p1182
sg11
g12
sba(iObject
Object
p1183
(dp1184
g5
S'960535205672112128'
p1185
sg7
S'4304'
p1186
sg9
S"RT @CloverfieldPRDX: Some thing happened. You'll know why after the game. #CloverfieldParadox https://t.co/HGqIC1AqB7"
p1187
sg11
g12
sba(iObject
Object
p1188
(dp1189
g5
S'960396889546993665'
p1190
sg7
S'594'
p1191
sg9
S'RT @WalkingDead_AMC: We can confirm that the blackout during the #SuperBowl was not the beginning of the zombie apocalypse #deadair. Congra...'
p1192
sg11
g12
sba(iObject
Object
p1193
(dp1194
g5
S'960369815067164672'
p1195
sg7
S'2025'
p1196
sg9
S'RT @CloverfieldPRDX: Right. Now. #CloverfieldParadox https://t.co/EZwmPyBC6f'
p1197
sg11
g12
sba(iObject
Object
p1198
(dp1199
g5
S'960287493114482690'
p1200
sg7
S'2215'
p1201
sg9
S'RT @WalkingDead_AMC: 3 weeks to go. Finish this fight and dont let the Hilltop down. #TWD https://t.co/qpKsBqGVis'
p1202
sg11
g12
sba(iObject
Object
p1203
(dp1204
g5
S'960286566626332672'
p1205
sg7
S'145'
p1206
sg9
S'RT @SHO_Homeland: Fellow patriots: The game is on in one week. #Homeland returns at 9p/8c on #Showtime.  https://t.co/Rjb81pROB6'
p1207
sg11
g12
sba(iObject
Object
p1208
(dp1209
g5
S'959600903358689285'
p1210
sg7
S'22'
p1211
sg9
S'RT @DemiAmbriz: thank you all so much for helping make this donation possible  https://t.co/mjxTe4lsh9'
p1212
sg11
g12
sba(iObject
Object
p1213
(dp1214
g5
S'958431751973502976'
p1215
sg7
g17
sg9
S'RT @BrattyCupcakes: @apoetsmuse @DirtySMIPolls *Chewbuckhouse'
p1216
sg11
g12
sba(iObject
Object
p1217
(dp1218
g5
S'958420290693890050'
p1219
sg7
S'660'
p1220
sg9
S'RT @MTV: Glee alum Mark Salling has been found dead after pleading guilty to possession of child pornography. https://t.co/Bc3G4vEdnc'
p1221
sg11
g12
sba(iObject
Object
p1222
(dp1223
g5
S'958403680868405248'
p1224
sg7
g176
sg9
S'RT @DirtySMIPolls: Hottest gay guy on younow is _____? (Request)\n\n@apoetsmuse @MatthewLush @Jonbuckhouse @Kartra5hian'
p1225
sg11
g12
sba(iObject
Object
p1226
(dp1227
g5
S'958357570992902144'
p1228
sg7
g17
sg9
S'RT @EdwardARizzo: @DirtySMIPolls @apoetsmuse @Jonbuckhouse @Kartra5hian'
p1229
sg11
g12
sba(iObject
Object
p1230
(dp1231
g5
S'958357527003107328'
p1232
sg7
g17
sg9
S'RT @DirtySMIPolls: @apoetsmuse I need an @ for john &amp; kat'
p1233
sg11
g12
sba(iObject
Object
p1234
(dp1235
g5
S'956620277697347584'
p1236
sg7
S'19'
p1237
sg9
S"RT @BeyondTVSeries: These two are up to no good. Sneak peek at tonight's all new episode at 8pm/7c on @FreeformTV. https://t.co/Jlek8DU1Th"
p1238
sg11
g12
sba(iObject
Object
p1239
(dp1240
g5
S'956318981949984768'
p1241
sg7
S'10194'
p1242
sg9
S'RT @MazeRunnerMovie: Theyre out of time. Watch the exclusive new clip from Maze Runner: The #DeathCure, in theaters January 26. https://t....'
p1243
sg11
g12
sba(iObject
Object
p1244
(dp1245
g5
S'956318948739428352'
p1246
sg7
S'42'
p1247
sg9
S'RT @MazeRunnerMovie: Sounds like a great plan to us! #CountdownToDeathCure https://t.co/U45oCs5KMG'
p1248
sg11
g12
sba(iObject
Object
p1249
(dp1250
g5
S'953529147439157248'
p1251
sg7
S'83'
p1252
sg9
S'RT @ShadeFactoryTSF: It seems like people arent happy with Ryans antics as of late. Allegations from violence to possible pedophilia. htt...'
p1253
sg11
g12
sba(iObject
Object
p1254
(dp1255
g5
S'953474226660560896'
p1256
sg7
g65
sg9
S'RT @BMorganMusic: yooo @DemiAmbriz I had no clue you were illuminati and your money was illuminati... you cant make this up. some special...'
p1257
sg11
g12
sba(iObject
Object
p1258
(dp1259
g5
S'953168798571548672'
p1260
sg7
g80
sg9
S'RT @BrattyCupcakes: Youre welcome. Considering you cant do it on your own. Buy some more fans dawg. @HeyItsChase_1 https://t.co/Htb7XBPmyd'
p1261
sg11
g12
sba(iObject
Object
p1262
(dp1263
g5
S'953168779873267712'
p1264
sg7
S'67'
p1265
sg9
S'RT @BrattyCupcakes: Oh hey girl @HeyItsChase_1 DRACRYS @Chris_TPa At least I aint bad to buy my fans doe. I tried to stay neutral girl...E...'
p1266
sg11
g12
sba(iObject
Object
p1267
(dp1268
g5
S'953039587101855745'
p1269
sg7
S'758'
p1270
sg9
S'RT @duhitzmark: i need real friends who care as much as i care about them'
p1271
sg11
g12
sba(iObject
Object
p1272
(dp1273
g5
S'951764289966215168'
p1274
sg7
S'5546'
p1275
sg9
S'RT @camerondallas: 2018 is the year of collaboration'
p1276
sg11
g12
sba(iObject
Object
p1277
(dp1278
g5
S'948749914233688064'
p1279
sg7
S'46'
p1280
sg9
S"RT @SHO_Homeland: Let's see if President Keane sticks to her word when #Homeland returns for a new season February 11. #BestTVLines2017 htt..."
p1281
sg11
g12
sba(iObject
Object
p1282
(dp1283
g5
S'948749839893872640'
p1284
sg7
S'110'
p1285
sg9
S'RT @SHO_Homeland: To understand how we got here, you must analyze the past.\n\nRewatch #Homeland Season 6 on #Showtime before February 11: ht...'
p1286
sg11
g12
sba(iObject
Object
p1287
(dp1288
g5
S'948749815017496577'
p1289
sg7
S'186'
p1290
sg9
S'RT @SHO_Homeland: When there are lies from all sides, who can you trust?  #Homeland #Showtime https://t.co/es9V6tgX1h'
p1291
sg11
g12
sba(iObject
Object
p1292
(dp1293
g5
S'946487370681024513'
p1294
sg7
S'1348'
p1295
sg9
S'RT @ITMovieOfficial: IT came, IT scared, IT conquered. Thank you all for making #ITMovie the top trending movie of 2017: https://t.co/EOUfh...'
p1296
sg11
g12
sba(iObject
Object
p1297
(dp1298
g5
S'945102451065151488'
p1299
sg7
S'612'
p1300
sg9
S'RT @ITMovieOfficial: Theres no place like home for the holidays. #ITMovie https://t.co/5Z5y0ivKb3'
p1301
sg11
g12
sba(iObject
Object
p1302
(dp1303
g5
S'943599289837801472'
p1304
sg7
g17
sg9
S'RT @Ashleyteetay: @Jonbuckhouse sending you love '
p1305
sg11
g12
sba(iObject
Object
p1306
(dp1307
g5
S'940891799211606016'
p1308
sg7
S'311'
p1309
sg9
S"RT @jason_blum: SHE'S BACK! See you guys October 19th, 2018. #HalloweenMovie https://t.co/vJryCwvnU1"
p1310
sg11
g12
sba(iObject
Object
p1311
(dp1312
g5
S'940644430196957184'
p1313
sg7
S'1107'
p1314
sg9
S'RT @SHO_Homeland: To bring down a conspiracy on the inside, you need someone on the outside. #Homeland returns Feb 11 at 9p/8c on #Showtime...'
p1315
sg11
g12
sba(iObject
Object
p1316
(dp1317
g5
S'939466862684975104'
p1318
sg7
S'102324'
p1319
sg9
S'RT @jamieleecurtis: "Same porch. Same clothes. Same issues. 40 years later. Headed back to Haddonfield one last time for Halloween. Release...'
p1320
sg11
g12
sba(iObject
Object
p1321
(dp1322
g5
S'937877993774444544'
p1323
sg7
S'1474'
p1324
sg9
S'RT @MESSYMONDAY:  Well leave this here lol https://t.co/sxFUXTyUmF'
p1325
sg11
g12
sba(iObject
Object
p1326
(dp1327
g5
S'937877888593903616'
p1328
sg7
S'49'
p1329
sg9
S'RT @MESSYMONDAY: MESSYMONDAY never forgets https://t.co/F6Nzol8Kwd'
p1330
sg11
g12
sba(iObject
Object
p1331
(dp1332
g5
S'928767655372234752'
p1333
sg7
S'997'
p1334
sg9
S'RT @mikeybarone: just remember. karmas a fucking bitch.'
p1335
sg11
g12
sba(iObject
Object
p1336
(dp1337
g5
S'928767642604789760'
p1338
sg7
S'348'
p1339
sg9
S'RT @mikeybarone: 6 months of hard work, designing, staying up to 6 am to make sure you guys would love it and i get 0 credit for it and it...'
p1340
sg11
g12
sba(iObject
Object
p1341
(dp1342
g5
S'928767636749524992'
p1343
sg7
S'300'
p1344
sg9
S'RT @mikeybarone: weird how the clothin line i made blocked me on insta??? also weird how apparently i dont own it sorry u guys spent ur m...'
p1345
sg11
g12
sba(iObject
Object
p1346
(dp1347
g5
S'928723105811279872'
p1348
sg7
S'40'
p1349
sg9
S'RT @MESSYMONDAY: Just wait till you find out who Dev is moving in with  Vegas, say hello to LA https://t.co/6gfb1ywF0y'
p1350
sg11
g12
sba(iObject
Object
p1351
(dp1352
g5
S'928722453286699008'
p1353
sg7
S'48'
p1354
sg9
S'RT @MESSYMONDAY: Guess LAS VEGAS is the new LA! You can move from LA but the personalities will follow. https://t.co/RTGwDPv2e4'
p1355
sg11
g12
sba(iObject
Object
p1356
(dp1357
g5
S'922286587983020032'
p1358
sg7
S'4645'
p1359
sg9
S'RT @WalkingDead_AMC: WAR IS HERE #TWD100Nite #TWD https://t.co/0CDj3OkFCO'
p1360
sg11
g12
sba(iObject
Object
p1361
(dp1362
g5
S'922286400048738305'
p1363
sg7
S'751'
p1364
sg9
S'RT @WalkingDead_AMC: Were comin in #TWD100Nite https://t.co/Msbf2vy1Et'
p1365
sg11
g12
sba(iObject
Object
p1366
(dp1367
g5
S'922286380138426369'
p1368
sg7
S'1781'
p1369
sg9
S'RT @WalkingDead_AMC: Hope you got yer shittin pants on! #TWD100Nite https://t.co/rg4EWSjMPx'
p1370
sg11
g12
sba(iObject
Object
p1371
(dp1372
g5
S'921766410728042496'
p1373
sg7
S'27242'
p1374
sg9
S"RT @enews: Stranger Things' Finn Wolfhard has left his talent agency after his agent was accused of sexual assault: https://t.co/eJgWn1UZ8e..."
p1375
sg11
g12
sba(iObject
Object
p1376
(dp1377
g5
S'920365624626311168'
p1378
sg7
S'1064'
p1379
sg9
S"RT @UndergroundSPTV: It's time. Join the movement! #SaveUnderground https://t.co/ZY2vBMgdSb"
p1380
sg11
g12
sba(iObject
Object
p1381
(dp1382
g5
S'919802185822617600'
p1383
sg7
S'5531'
p1384
sg9
S'RT @camerondallas: can they start putting stores people want in malls please'
p1385
sg11
g12
sba(iObject
Object
p1386
(dp1387
g5
S'919306255365107712'
p1388
sg7
S'2254'
p1389
sg9
S'RT @WalkingDead_AMC: Negotiations: over. Season 8 premieres October 22. #TWD https://t.co/XFXEMSF74L'
p1390
sg11
g12
sba(iObject
Object
p1391
(dp1392
g5
S'918842275681124352'
p1393
sg7
S'3628'
p1394
sg9
S'RT @UndergroundSPTV: Make your voice heard. This journey must continue. #SaveUnderground https://t.co/5Ru9OnOwn1'
p1395
sg11
g12
sba(iObject
Object
p1396
(dp1397
g5
S'918832290435698688'
p1398
sg7
S'937'
p1399
sg9
S'RT @Lionsgate: #FridayThe13th is no match for Madea, frfr!  Buy one #Boo2 tix, get one free TODAY ONLY. Use code BOOGO at https://t.co/t23...'
p1400
sg11
g12
sba(iObject
Object
p1401
(dp1402
g5
S'918051841606221824'
p1403
sg7
S'210'
p1404
sg9
S'RT @MESSYMONDAY:  Why does it feel like @DrPhil is trying to create a new Danielle https://t.co/WQsljpz9fr'
p1405
sg11
g12
sba(iObject
Object
p1406
(dp1407
g5
S'917863984270794752'
p1408
sg7
S'849'
p1409
sg9
S'RT @WalkingDead_AMC: #TWD returns Oct 22. Are you ready? Catch up with Seasons 1  7 discounted now on @iTunesTV and get #TWDNoMansLand htt...'
p1410
sg11
g12
sba(iObject
Object
p1411
(dp1412
g5
S'917090770712068096'
p1413
sg7
S'57'
p1414
sg9
S"RT @MadamSecretary: #MadamSecretary is back!  Take one last sneak peek at tonight's season premiere at 10/9c. https://t.co/wXjWEdencz"
p1415
sg11
g12
sba(iObject
Object
p1416
(dp1417
g5
S'917084276436344832'
p1418
sg7
S'1727'
p1419
sg9
S'RT @WalkingDead_AMC: Can you feel it? Season 8 is almost here. #NYCC #TWD https://t.co/chdPnNjV0Q'
p1420
sg11
g12
sba(iObject
Object
p1421
(dp1422
g5
S'915265468750897153'
p1423
sg7
S'1896'
p1424
sg9
S"RT @AHSFX: Watch a PREVIEW of tonight's all-new episode of #AHSCult. https://t.co/otSL66pwnh"
p1425
sg11
g12
sba(iObject
Object
p1426
(dp1427
g5
S'915265385498271744'
p1428
sg7
S'16495'
p1429
sg9
S'RT @camerondallas: I need someone I can feel good being bad with'
p1430
sg11
g12
sba(iObject
Object
p1431
(dp1432
g5
S'915265346155581442'
p1433
sg7
S'51'
p1434
sg9
S'RT @annabellemovie: We soon realized it wasnt our Annabelle at all. #AnnabelleCreation https://t.co/aUKqlVHXkt'
p1435
sg11
g12
sba(iObject
Object
p1436
(dp1437
g5
S'913785254980198400'
p1438
sg7
S'2999'
p1439
sg9
S'RT @WalkingDead_AMC: Hes coming for his bow. Season 8 premieres October 22. #TWD https://t.co/v2FYer3M8o'
p1440
sg11
g12
sba(iObject
Object
p1441
(dp1442
g5
S'912902104297205760'
p1443
sg7
S'22'
p1444
sg9
S'RT @MeganJarica: fighting/starting shit with people DOES NOT make you a bad bitch. A real bad bitch is strong, independent, respectful and...'
p1445
sg11
g12
sba(iObject
Object
p1446
(dp1447
g5
S'912823027527749632'
p1448
sg7
S'10'
p1449
sg9
S"RT @MeganJarica: Just got my first riding gear today! Can't wait to take it out on the road! Thanks! @alpinestars @RevZilla https://t.co/5z..."
p1450
sg11
g12
sba(iObject
Object
p1451
(dp1452
g5
S'912813337418792963'
p1453
sg7
S'23'
p1454
sg9
S'RT @GotDamnZo: Sometimes you gotta Damage Control when you fuck up'
p1455
sg11
g12
sba(iObject
Object
p1456
(dp1457
g5
S'912511678771810304'
p1458
sg7
S'2347'
p1459
sg9
S'RT @WalkingDead_AMC: She will kill for love. Season 8 premieres October 22. #TWD https://t.co/DAN1vMAESV'
p1460
sg11
g12
sba(iObject
Object
p1461
(dp1462
g5
S'911300102861582341'
p1463
sg7
g299
sg9
S'RT @BrattyCupcakes: Shouts to every1 4 ur support last night but a special shout goes to @vanluc7 You really outdid yourself. You deserve e...'
p1464
sg11
g12
sba(iObject
Object
p1465
(dp1466
g5
S'911298315932794881'
p1467
sg7
g65
sg9
S'RT @ezrap1950: Happy Birthday @BrattyCupcakes !  I hope you, @Jonbuckhouse &amp; @KingSulli69 are having a blast!  We u!!! https://t.co/pmqvm...'
p1468
sg11
g12
sba(iObject
Object
p1469
(dp1470
g5
S'911298084134637568'
p1471
sg7
S'613'
p1472
sg9
S'RT @WalkingDead_AMC: Do we really know where Jadis stands? Season 8 premieres October 22 #TWD https://t.co/IIDpayy5PV'
p1473
sg11
g12
sba(iObject
Object
p1474
(dp1475
g5
S'911026606109585411'
p1476
sg7
g278
sg9
S'RT @BrattyCupcakes: Im live!'
p1477
sg11
g12
sba(iObject
Object
p1478
(dp1479
g5
S'910750458133843969'
p1480
sg7
g620
sg9
S"RT @BMorganMusic: @BrattyCupcakes yo happy birthday to one of the hardest working humans on the planet. here's to another year of greatness..."
p1481
sg11
g12
sba(iObject
Object
p1482
(dp1483
g5
S'910750402697662464'
p1484
sg7
g176
sg9
S'RT @BrattyCupcakes: This made me cry. @jaelin_renae https://t.co/xzctKgTwlr'
p1485
sg11
g12
sba(iObject
Object
p1486
(dp1487
g5
S'910744009856995329'
p1488
sg7
g299
sg9
S'RT @BrattyCupcakes: Welp @KingSulli69 bought me a 15" MacBook Pro for my birthday. Ikyfl. Fuck.  I love you so much.'
p1489
sg11
g12
sba(iObject
Object
p1490
(dp1491
g5
S'910722464799391744'
p1492
sg7
g176
sg9
S'RT @brattysTIT_drag: @BrattyCupcakes YOU DESERVE EVERYTHING LIFE HAS TO OFFER AND MORE. YOU WILL ALWAYS AND FOREVER BE A QUEEN @King...'
p1493
sg11
g12
sba(iObject
Object
p1494
(dp1495
g5
S'910722289615990784'
p1496
sg7
g8
sg9
S'RT @ezrap1950: Happy Birthday @BrattyCupcakes !  And I am sorry  https://t.co/XsxgHYRj16'
p1497
sg11
g12
sba(iObject
Object
p1498
(dp1499
g5
S'910720083193946112'
p1500
sg7
g278
sg9
S"RT @BrattyCupcakes: Y'all actually made me tear up tonight via all the bday wishes and love. I learned who I was after I met all of YOU. Pl..."
p1501
sg11
g12
sba(iObject
Object
p1502
(dp1503
g5
S'910717334809128961'
p1504
sg7
S'1681'
p1505
sg9
S'HAPPY BIRTHDAY BRATTY!! @BrattyCupcakes  #BrattysBirthdayBash !! https://t.co/WTBiMDRKef'
p1506
sg11
S'337'
p1507
sba(iObject
Object
p1508
(dp1509
g5
S'910716027364888576'
p1510
sg7
g8
sg9
S'RT @brattysTIT_drag: HAPPY MOTHER FLIPPING BIRTHDAY DADDY @BrattyCupcakes @KingSulli69 @Jonbuckhouse ENJOY YOUR SELF https://t.co/f19oEvbvws'
p1511
sg11
g12
sba(iObject
Object
p1512
(dp1513
g5
S'910695730658111488'
p1514
sg7
g17
sg9
S'RT @ezrap1950: @Jonbuckhouse - I feel like I know a side (back) of you that Ive never seen before... ...  &amp; can never UNsee.  @BrattyCupc...'
p1515
sg11
g12
sba(iObject
Object
p1516
(dp1517
g5
S'910695718624604160'
p1518
sg7
g17
sg9
S'RT @EdwardARizzo: @ezrap1950 @Jonbuckhouse @BrattyCupcakes  Before Vidcon he did that on YouNow and got suspended...then he did it again o...'
p1519
sg11
g12
sba(iObject
Object
p1520
(dp1521
g5
S'910684812817649665'
p1522
sg7
g17
sg9
S'RT @JACQUELINE45612: @KingSulli69 @BrattyCupcakes @Jonbuckhouse  https://t.co/3jBKUTLlak'
p1523
sg11
g12
sba(iObject
Object
p1524
(dp1525
g5
S'910684764826423297'
p1526
sg7
g17
sg9
S'RT @babygirlGSAngel: @KingSulli69 @BrattyCupcakes @Jonbuckhouse Have fun'
p1527
sg11
g12
sba(iObject
Object
p1528
(dp1529
g5
S'910682024788275200'
p1530
sg7
g278
sg9
S"RT @BrattyCupcakes: Y'all know I'm not doing my bday broadcast tonight right? It's tomorrow at 8 pm."
p1531
sg11
g12
sba(iObject
Object
p1532
(dp1533
g5
S'910627048661635073'
p1534
sg7
S'1445'
p1535
sg9
S'In the mall with @KingSulli69 waiting for @BrattyCupcakes to buy lashes  https://t.co/V82AOR5671'
p1536
sg11
S'198'
p1537
sba(iObject
Object
p1538
(dp1539
g5
S'909419494765862912'
p1540
sg7
g65
sg9
S'RT @BrattyCupcakes: September 21st, 3 million likes broadcast. #WeOutHere '
p1541
sg11
g12
sba(iObject
Object
p1542
(dp1543
g5
S'909419447160528897'
p1544
sg7
S'9'
p1545
sg9
S"RT @BrattyCupcakes: Don't forget my birthday broadcast on September 21st. 3 million likes. Eeeeeeeekkkkkk I'm scared!"
p1546
sg11
g12
sba(iObject
Object
p1547
(dp1548
g5
S'908498208728502273'
p1549
sg7
S'1262'
p1550
sg9
S' LIVE on @YouNow - https://t.co/l2wBooArtp'
p1551
sg11
S'230'
p1552
sba(iObject
Object
p1553
(dp1554
g5
S'908344870326099968'
p1555
sg7
S'6623'
p1556
sg9
S'RT @WalkingDead_AMC: On this day, our fearless leader was born! Happy Birthday to #TWDs very own Andrew Lincoln! https://t.co/dHKIqQ87Xa'
p1557
sg11
g12
sba(iObject
Object
p1558
(dp1559
g5
S'905349043777298436'
p1560
sg7
S'1027'
p1561
sg9
S'RT @ITMovieOfficial: Good luck getting home before curfew. #ITMovie is in theaters in TWO DAYS. Tickets: https://t.co/rnnloWv2ep https://t....'
p1562
sg11
g12
sba(iObject
Object
p1563
(dp1564
g5
S'904811364463501312'
p1565
sg7
S'1456'
p1566
sg9
S"Can't wait to get my internet tomorrow . So I can start going LIVE again on YouNow! #LIVE #YouNow @YouNow"
p1567
sg11
S'394'
p1568
sba(iObject
Object
p1569
(dp1570
g5
S'903334776186093568'
p1571
sg7
S'1616'
p1572
sg9
S'Decided I am NOT going to Playlist D.C. I have to finish moving &amp;I I wanna buy the iPhone 8 &amp; Note 8. #iPhone8 #Note8 #PlaylistLive #Moving'
p1573
sg11
S'404'
p1574
sba(iObject
Object
p1575
(dp1576
g5
S'902057494196895744'
p1577
sg7
S'1637'
p1578
sg9
S"So I just found out people I thought were friends aren't actually. They just cut me off and started calling me crazy person?? #Fake #YouNow"
p1579
sg11
S'230'
p1580
sba(iObject
Object
p1581
(dp1582
g5
S'901285324373901313'
p1583
sg7
S'27'
p1584
sg9
S'RT @annabellemovie: Art by: Akshay Parab, Edz Gatdula, Magdalena Gomez Carbonell. https://t.co/pHhHheYtm0'
p1585
sg11
g12
sba(iObject
Object
p1586
(dp1587
g5
S'900567947248230401'
p1588
sg7
g17
sg9
S'RT @mamavikki78: Check out this moment of @BrattyCupcakes on @YouNow https://t.co/Q9YbW7A1zQ\nTOO FUNNY @BrattyCupcakes @vegancheetah @Jonbu...'
p1589
sg11
g12
sba(iObject
Object
p1590
(dp1591
g5
S'900567711234772992'
p1592
sg7
g17
sg9
S'RT @Ashleyteetay: @Jonbuckhouse @YouNow  https://t.co/rTlg1Di8NY'
p1593
sg11
g12
sba(iObject
Object
p1594
(dp1595
g5
S'899415649633550336'
p1596
sg7
S'2052'
p1597
sg9
S' LIVE @kingsullivann13 on #YouNow Lets get him subbed! https://t.co/XgeZ4jItFE https://t.co/wtAQsFk13q'
p1598
sg11
S'1078'
p1599
sba(iObject
Object
p1600
(dp1601
g5
S'898799128485838849'
p1602
sg7
S'2253'
p1603
sg9
S"Watching 2012 then watching San Andreas and then heading to bed. Can't go live no charger for my laptop. #GoodNight #2012 #YouNow"
p1604
sg11
S'1103'
p1605
sba(iObject
Object
p1606
(dp1607
g5
S'898751974400589824'
p1608
sg7
S'2285'
p1609
sg9
S'Happy Belated Birthday Bryce Hall! @Ibrycehall #HappyBirthday'
p1610
sg11
S'831'
p1611
sba(iObject
Object
p1612
(dp1613
g5
S'898751771706773509'
p1614
sg7
S'26'
p1615
sg9
S"RT @BrattyCupcakes: If y'all ready for this sub party  RETWEET!!!!! "
p1616
sg11
g12
sba(iObject
Object
p1617
(dp1618
g5
S'898749644577980416'
p1619
sg7
S'100'
p1620
sg9
S'RT @annabellemovie: #AnnabelleCreation shakes you to the core. Experience the terror for yourself, and get tickets: https://t.co/wf77hbFtOZ...'
p1621
sg11
g12
sba(iObject
Object
p1622
(dp1623
g5
S'898588160338214914'
p1624
sg7
S'2488'
p1625
sg9
S'Good Morning Everyone! Im going to sleep all day! I love everyone! #GoodMorning #Friends'
p1626
sg11
S'1096'
p1627
sba(iObject
Object
p1628
(dp1629
g5
S'898277767346659329'
p1630
sg7
S'7557'
p1631
sg9
S'RT @AHSFX: Have a taste. #AHSCult https://t.co/iLamY55L0C'
p1632
sg11
g12
sba(iObject
Object
p1633
(dp1634
g5
S'898277626371915776'
p1635
sg7
S'395'
p1636
sg9
S'RT @annabellemovie: Evil comes to play in this scary good Flipbook by Serene Teh. https://t.co/1gX5QpmZuc'
p1637
sg11
g12
sba(iObject
Object
p1638
(dp1639
g5
S'898277599226470400'
p1640
sg7
S'1071'
p1641
sg9
S'RT @WalkingDead_AMC: If they only knew what was coming... #TBT #TWD100 https://t.co/LxhBpufMS6'
p1642
sg11
g12
sba(iObject
Object
p1643
(dp1644
g5
S'898274648579756032'
p1645
sg7
S'4071'
p1646
sg9
S'Good Afternoon Everyone! Going to look at apartments with Bianca today so excited! @BiancaSotelo14 #GoodAfternoon #Apartments #Moving'
p1647
sg11
S'1025'
p1648
sba(iObject
Object
p1649
(dp1650
g5
S'898095059450511361'
p1651
sg7
S'2155'
p1652
sg9
S'Good Night Everyone! Live on YouNow &amp; then heading to bed! I love everyone on YouNow! @YouNow #GoodNight #Bed #AnnabelleCreation'
p1653
sg11
S'1268'
p1654
sba(iObject
Object
p1655
(dp1656
g5
S'897931018065199104'
p1657
sg7
S'2261'
p1658
sg9
S"Good Afternoon Everyone! I'm back sorry I disappeared for a while but I am ready to start getting back on my grind! #YouNow #YouTube #Grind"
p1659
sg11
S'1080'
p1660
sba(iObject
Object
p1661
(dp1662
g5
S'897566466811109376'
p1663
sg7
S'146'
p1664
sg9
S'RT @annabellemovie: Discover the next chapter in The Conjuring Universe. #AnnabelleCreation is the #1 Movie in America. Get tickets: https:...'
p1665
sg11
g12
sba(iObject
Object
p1666
(dp1667
g5
S'897045488335175680'
p1668
sg7
g17
sg9
S'RT @BrattyCupcakes: @kingsullivann13 '
p1669
sg11
g12
sba(iObject
Object
p1670
(dp1671
g5
S'896847694227881984'
p1672
sg7
S'63'
p1673
sg9
S"RT @MESSYMONDAY: Remember the girl Lexi Dev use to broadcast w/. Dev came in Jons broadcast starting mess &amp; she spilled tea. It's rumored t..."
p1674
sg11
g12
sba(iObject
Object
p1675
(dp1676
g5
S'896474782731976704'
p1677
sg7
S'37'
p1678
sg9
S"RT @TheColeGalotti: As long as I know the truth I'm good"
p1679
sg11
g12
sba(iObject
Object
p1680
(dp1681
g5
S'896329508046819328'
p1682
sg7
S'1875'
p1683
sg9
S'RT @WalkingDead_AMC: Simpler times. #TBT #TWD100 https://t.co/b3V59lZuzu'
p1684
sg11
g12
sba(iObject
Object
p1685
(dp1686
g5
S'896193550198595585'
p1687
sg7
g17
sg9
S'RT @unloyalstalvey: @MESSYMONDAY i feel so bad 4 jon he rlly cant catch a break'
p1688
sg11
g12
sba(iObject
Object
p1689
(dp1690
g5
S'895923420134727684'
p1691
sg7
S'13'
p1692
sg9
S"RT @BrattyCupcakes: Rub my butt, text back fast, be dominant and give me a lot of attention. That's all I ask."
p1693
sg11
g12
sba(iObject
Object
p1694
(dp1695
g5
S'895625595819769856'
p1696
sg7
g299
sg9
S"RT @BrattyCupcakes: Y'all claim to be my dragons. I wonder who will b there when I really need the heat. "
p1697
sg11
g12
sba(iObject
Object
p1698
(dp1699
g5
S'895570032624672768'
p1700
sg7
S'652'
p1701
sg9
S"RT @bruhitszach: who else is awake this late cause you can't sleep no matter how hard you try ? "
p1702
sg11
g12
sba(iObject
Object
p1703
(dp1704
g5
S'895421609309118465'
p1705
sg7
S'162'
p1706
sg9
S'RT @annabellemovie: Found you. #AnnabelleCreation, in theaters everywhere Friday. Get tickets: https://t.co/wf77hbFtOZ https://t.co/9TEY5RK...'
p1707
sg11
g12
sba(iObject
Object
p1708
(dp1709
g5
S'895421582998241280'
p1710
sg7
S'266'
p1711
sg9
S'RT @annabellemovie: Dont be late for your playdate. Get tickets for #AnnabelleCreation now: https://t.co/wf77hbFtOZ https://t.co/TBMoGJUBmP'
p1712
sg11
g12
sba(iObject
Object
p1713
(dp1714
g5
S'895421522935857153'
p1715
sg7
S'140'
p1716
sg9
S'RT @annabellemovie: In 2 DAYS, witness the origin of evil in #AnnabelleCreation. Special screenings Thursday, starts Friday. Get tix: https...'
p1717
sg11
g12
sba(iObject
Object
p1718
(dp1719
g5
S'895420426209316865'
p1720
sg7
S'59'
p1721
sg9
S"RT @BeyondTVSeries: Go @burkelyduffield.\nIt's your birthday. \nWe're gonna retweet cause it's your birthday.  https://t.co/1FZXTNbO4d"
p1722
sg11
g12
sba(iObject
Object
p1723
(dp1724
g5
S'895139961086689280'
p1725
sg7
S'246'
p1726
sg9
S'RT @MESSYMONDAY: All those snacks in MeetUp 21 got me like https://t.co/7ZhIeYE0La'
p1727
sg11
g12
sba(iObject
Object
p1728
(dp1729
g5
S'895069426290114560'
p1730
sg7
S'2572'
p1731
sg9
S"RT @WalkingDead_AMC: Its been a long trip. Thanks for coming along for the ride. What's your favorite memory from the first 99 episodes? #..."
p1732
sg11
g12
sba(iObject
Object
p1733
(dp1734
g5
S'895067450630299648'
p1735
sg7
g65
sg9
S"RT @BrattyCupcakes: That teenage mess people be talking about ain't where it's at. The grown folks mess is what's really tea. Admit it. "
p1736
sg11
g12
sba(iObject
Object
p1737
(dp1738
g5
S'895036217086984192'
p1739
sg7
S'8290'
p1740
sg9
S'RT @AHSFX: We have our eyes on you... #AHSCult https://t.co/rvkssZW55T'
p1741
sg11
g12
sba(iObject
Object
p1742
(dp1743
g5
S'893956662331035649'
p1744
sg7
S'10'
p1745
sg9
S"RT @EdwardARizzo: @BrattyCupcakes Can't believe it happened around 6am but WOW...600 SUBS! Congrats girl! Be proud of what you just accompl..."
p1746
sg11
g12
sba(iObject
Object
p1747
(dp1748
g5
S'893596500491517952'
p1749
sg7
S'196'
p1750
sg9
S"RT @Flamingeos: finally got an apartment  I'm so excited to move in already!"
p1751
sg11
g12
sba(iObject
Object
p1752
(dp1753
g5
S'893371437293084672'
p1754
sg7
g176
sg9
S'RT @brooklynryann: real trap house of L.A coming soon!!!!! '
p1755
sg11
g12
sba(iObject
Object
p1756
(dp1757
g5
S'893280946232872960'
p1758
sg7
g620
sg9
S'RT @BeastEaterYo: Real Trap House Of LA coming soon '
p1759
sg11
g12
sba(iObject
Object
p1760
(dp1761
g5
S'893203168435228672'
p1762
sg7
S'198'
p1763
sg9
S'RT @lunablaise: i never leave my room'
p1764
sg11
g12
sba(iObject
Object
p1765
(dp1766
g5
S'892494835164225536'
p1767
sg7
g299
sg9
S"RT @BrattyCupcakes: Every1 wants my $ or my time or constant attention. Please let me take care of myself first. I'm not 17 living w/ my pa..."
p1768
sg11
g12
sba(iObject
Object
p1769
(dp1770
g5
S'889318955508154369'
p1771
sg7
S'71'
p1772
sg9
S'RT @MESSYMONDAY: Baddie and Bianca stepping into the Mess! https://t.co/bKCzZFKSqZ'
p1773
sg11
g12
sba(iObject
Object
p1774
(dp1775
g5
S'888811389971648512'
p1776
sg7
g17
sg9
S'RT @roseybrookss: @JONBUCKHOUSE I LOVE U AND I MISS U KING'
p1777
sg11
g12
sba(iObject
Object
p1778
(dp1779
g5
S'888500770282196993'
p1780
sg7
S'29475'
p1781
sg9
S"RT @AHSFX: It's time. Join us. https://t.co/5mqb4AQFjt #AHSCult https://t.co/1uEEDJjUpX"
p1782
sg11
g12
sba(iObject
Object
p1783
(dp1784
g5
S'887110428718899200'
p1785
sg7
g278
sg9
S'RT @BrattyCupcakes: You have a huge heart. Things will be looking up for you soon. Ily. @Jonbuckhouse'
p1786
sg11
g12
sba(iObject
Object
p1787
(dp1788
g5
S'886686856368148480'
p1789
sg7
g299
sg9
S'RT @BrattyCupcakes: Omggggg @GameOfThrones is on tonight! Day just got better. '
p1790
sg11
g12
sba(iObject
Object
p1791
(dp1792
g5
S'885637645769916416'
p1793
sg7
S'56'
p1794
sg9
S"RT @TheStrainFX: The Partnership is looking out for you. Watch the premiere of #TheStrain's Final Season this Sunday at 10PM. https://t.co/..."
p1795
sg11
g12
sba(iObject
Object
p1796
(dp1797
g5
S'885566464727457792'
p1798
sg7
S'73'
p1799
sg9
S'RT @MESSYMONDAY: Jon tells his side of the story about the Car w/ EO &amp; DEV https://t.co/tCK3I5r2qS'
p1800
sg11
g12
sbasS'TraderCobb'
p1801
(lp1802
(iObject
Object
p1803
(dp1804
g5
S'976777541368320000'
p1805
sg7
g12
sg9
S"The Path To Trading Success - What does it take to be a successful Trader? It's not just about someone who can make... https://t.co/a8YeaVQdfr"
p1806
sg11
g620
sba(iObject
Object
p1807
(dp1808
g5
S'976625207355068423'
p1809
sg7
g17
sg9
S"TraderCobb covers the top-10 along with giving a bit of a break down as to what he see's as scenarios unfolding ove... https://t.co/mD9kDme1Ha"
p1810
sg11
g80
sba(iObject
Object
p1811
(dp1812
g5
S'976616067018588160'
p1813
sg7
g8
sg9
S"Don't be surprised to see a bit of selling coming into the game the next few days. A small bearish candle rejecting... https://t.co/FOaK1Qbe5I"
p1814
sg11
S'12'
p1815
sba(iObject
Object
p1816
(dp1817
g5
S'976600545472458752'
p1818
sg7
g17
sg9
S'The human brain is a fascinating thing. It confuses me, concerns me, excites me and frustrates me just the same as... https://t.co/JKtQv9Xqfw'
p1819
sg11
g299
sba(iObject
Object
p1820
(dp1821
g5
S'976415333971103744'
p1822
sg7
g620
sg9
S"I'm trying to educate an entire industry here. People are focused on profits and profits only. It's about making su... https://t.co/41qVeUo2id"
p1823
sg11
g1545
sba(iObject
Object
p1824
(dp1825
g5
S'976360214558576640'
p1826
sg7
g80
sg9
S'Competition Time! $BTC $ETH $XRP #bitcoin #crypto\nPodcast: https://t.co/momngo0aJl... \nFACEBOOK:... https://t.co/d92hdxmQ7Q'
p1827
sg11
g620
sba(iObject
Object
p1828
(dp1829
g5
S'976233374372286464'
p1830
sg7
g17
sg9
S"Dream or Goal - The difference is staggering and covered in today's podcast. Also lots of positive news out there.... https://t.co/D2rvq7Lb58"
p1831
sg11
g80
sba(iObject
Object
p1832
(dp1833
g5
S'976067972635688960'
p1834
sg7
g8
sg9
S"Structure, strategy and routine. It's how you executive all three that makes a flawless execution. I talk about thi... https://t.co/YsZXvGRjRS"
p1835
sg11
g176
sba(iObject
Object
p1836
(dp1837
g5
S'975998008142782464'
p1838
sg7
g12
sg9
S'So what happened yesterday at the G20 and is it good or bad for crypto? The Trader Cobb Crypto Show podcast has gon... https://t.co/nNuc379O9q'
p1839
sg11
g80
sba(iObject
Object
p1840
(dp1841
g5
S'975934604216430597'
p1842
sg7
g176
sg9
S'The Finonacci "Booster" course will be ready for you to sit over Easter.\n\nIf you want to learn how to win it then s... https://t.co/kyPfb4vKbn'
p1843
sg11
S'16'
p1844
sba(iObject
Object
p1845
(dp1846
g5
S'975875053127643138'
p1847
sg7
g12
sg9
S"It's important to focus and have drive, but it's just as important to take a break. My latest daily dose. #bitcoin... https://t.co/72zAfosoIl"
p1848
sg11
g176
sba(iObject
Object
p1849
(dp1850
g5
S'975703417392902145'
p1851
sg7
g12
sg9
S'Heres my feature from the On The Mike podcast last week. #bitcoin #cryptocurrency #bitcoinforum #bitcoinbuy... https://t.co/idBc6k724o'
p1852
sg11
g176
sba(iObject
Object
p1853
(dp1854
g5
S'975540080529068032'
p1855
sg7
g17
sg9
S'Know Your Cradle Zone. #bitcoin #crypto \nThe Trader Cobb Crypto Show podcast has gone top 100! If you have not subs... https://t.co/zPPshjoy7K'
p1856
sg11
g278
sba(iObject
Object
p1857
(dp1858
g5
S'975516928755281920'
p1859
sg7
g8
sg9
S"Here's the daily dose of all the important snippets in the crypto world from my perspective. #bitcoin... https://t.co/IzCD0DF6lK"
p1860
sg11
g65
sba(iObject
Object
p1861
(dp1862
g5
S'974602044320485376'
p1863
sg7
g12
sg9
S"What are resistance breakouts? I just don't use them in any way, shape or form. The way I've become a successful tr... https://t.co/2oEyYiGQDr"
p1864
sg11
g299
sba(iObject
Object
p1865
(dp1866
g5
S'974452053979402240'
p1867
sg7
g8
sg9
S'A big thanks to our team and fans, followers, downloaders and those who gave us such kind reviews!\n\nAdd it to your... https://t.co/VuPSIW2Gde'
p1868
sg11
S'11'
p1869
sba(iObject
Object
p1870
(dp1871
g5
S'974436481489162240'
p1872
sg7
g8
sg9
S"We've hit the Top 10! Here's the daily dose of all the important snippets in the crypto world from my perspective.... https://t.co/o8mElxQBjq"
p1873
sg11
g65
sba(iObject
Object
p1874
(dp1875
g5
S'974426416770174978'
p1876
sg7
g12
sg9
S'Trends To Consider For The Weekend $BTC $ETH $XRP #bitcoin #crypto \niTunes: https://t.co/Lumt4Hh6f2\nhttps://t.co/jM4lUAODAx'
p1877
sg11
g80
sba(iObject
Object
p1878
(dp1879
g5
S'974418393678864384'
p1880
sg7
g12
sg9
S"Hey guys\nIn relation to the crypto events I postedk we have a place for you to register your interest.\nIf you'd lik... https://t.co/iQtu7b6u6n"
p1881
sg11
g8
sba(iObject
Object
p1882
(dp1883
g5
S'974248894690463745'
p1884
sg7
g12
sg9
S'What Type Of Trader Are You? This is super important because it needs to be designed around you. #bitcoin... https://t.co/xLEQimXNNg'
p1885
sg11
g620
sba(iObject
Object
p1886
(dp1887
g5
S'974189001518338048'
p1888
sg7
g17
sg9
S'Using Moving Averages Correctly. The Trader Cobb Crypto Show podcast has gone top 100! If you have not subscribed a... https://t.co/7jyG6KjZGj'
p1889
sg11
S'10'
p1890
sba(iObject
Object
p1891
(dp1892
g5
S'974085812152406017'
p1893
sg7
g12
sg9
S"Here's the daily dose of all the important snippets in the crypto world from my perspective. #bitcoin... https://t.co/2bFYbzyo7I"
p1894
sg11
g620
sba(iObject
Object
p1895
(dp1896
g5
S'974066093366001665'
p1897
sg7
g12
sg9
S"@SteveGlaveski Steve, I have been an avid listener for some time now. I think it's worth while us looking at a show... https://t.co/2qBPeUnTJq"
p1898
sg11
g12
sba(iObject
Object
p1899
(dp1900
g5
S'974055900846551040'
p1901
sg7
g12
sg9
S'I have to ask who got a couple of those epic "Bitcoin Breakout" trades yesterday? Members did as there was a video... https://t.co/h0Wamp2n7c'
p1902
sg11
S'13'
p1903
sba(iObject
Object
p1904
(dp1905
g5
S'973876679922810880'
p1906
sg7
g17
sg9
S'In Chart Patterns, the names mean nothing. Understand and learn the trend. #bitcoin #cryptocurrency #bitcoinforum... https://t.co/FEEffT64rb'
p1907
sg11
g176
sba(iObject
Object
p1908
(dp1909
g5
S'973821564968951809'
p1910
sg7
g12
sg9
S"Why I Don't Scan BTC Pairs As Often $BTC $ETH $XRP #bitcoin #crypto\nhttps://t.co/r1A08G2UKA"
p1911
sg11
g620
sba(iObject
Object
p1912
(dp1913
g5
S'973787588170604545'
p1914
sg7
g17
sg9
S'Crypto Symposium - The best minds in Australian crypto scene in one place for 1 day\nCrypto Retreats - The best mind... https://t.co/XZUD1GASg6'
p1915
sg11
S'40'
p1916
sba(iObject
Object
p1917
(dp1918
g5
S'973776848214687747'
p1919
sg7
g17
sg9
S'A little piece for the @Y7Finance page #bitcoin #crypto #investing $BTC\nhttps://t.co/2q27iqvK3q'
p1920
sg11
g80
sba(iObject
Object
p1921
(dp1922
g5
S'973700755126456320'
p1923
sg7
g17
sg9
S"Here's the daily dose of all the important snippets in the Crypto world from my perspective. #bitcoin... https://t.co/EiPTSekBta"
p1924
sg11
g278
sba(iObject
Object
p1925
(dp1926
g5
S'973459288436944897'
p1927
sg7
g12
sg9
S"Patience!!!! It's something I can't teach you but you must have to be a good trader. In this video TraderCobb discu... https://t.co/GajIOA7Daj"
p1928
sg11
S'18'
p1929
sba(iObject
Object
p1930
(dp1931
g5
S'973334444206690305'
p1932
sg7
g17
sg9
S"Here's the daily dose of all the important snippets in the crypto world from my perspective. #bitcoinforum... https://t.co/uzWGdX2KGo"
p1933
sg11
S'11'
p1934
sba(iObject
Object
p1935
(dp1936
g5
S'973199011032154114'
p1937
sg7
g12
sg9
S"Here's some valuable advice on how to create a watch list. This advice is FREE and is super handy when it comes to... https://t.co/vtrzgaFPFa"
p1938
sg11
g299
sba(iObject
Object
p1939
(dp1940
g5
S'973046202110443521'
p1941
sg7
g12
sg9
S'In this video TraderCobb gives you a sneak peak into the strategy that is the "Crypto Cradle". He also shares with... https://t.co/G8GNXcaDPi'
p1942
sg11
g299
sba(iObject
Object
p1943
(dp1944
g5
S'972993856059924481'
p1945
sg7
g299
sg9
S"It's a new week, on a glorious Sydney day! Here's the daily dose of all the important snippets in the crypto world... https://t.co/pZUskLV5QA"
p1946
sg11
S'15'
p1947
sba(iObject
Object
p1948
(dp1949
g5
S'972281290123718656'
p1950
sg7
S'12'
p1951
sg9
S"Yes, there was a big bounce last night, very nice. Don't be fooled into a false sense of security. The market had f... https://t.co/cxw7ZbYJjD"
p1952
sg11
S'62'
p1953
sba(iObject
Object
p1954
(dp1955
g5
S'972271843376640001'
p1956
sg7
g17
sg9
S"People put far too much weight on indicators. It's an indication of what MAY happen. I take you through the only wa... https://t.co/d1UNceLkkV"
p1957
sg11
S'12'
p1958
sba(iObject
Object
p1959
(dp1960
g5
S'971923940648960000'
p1961
sg7
g17
sg9
S'BTC just broke a minor 15 minute support, looking lower here'
p1962
sg11
g65
sba(iObject
Object
p1963
(dp1964
g5
S'971894744619143169'
p1965
sg7
g17
sg9
S'Today I take you on a journey of understanding. What exactly am I talking about I hear you ask? I am talking about... https://t.co/YNb9L6HgBG'
p1966
sg11
S'11'
p1967
sba(iObject
Object
p1968
(dp1969
g5
S'971644391738757120'
p1970
sg7
g17
sg9
S'Risk and Money Management  $BTC $ETH $XRP #bitcoin #crypto\nhttps://t.co/Kjeuw6Qfta'
p1971
sg11
g278
sba(iObject
Object
p1972
(dp1973
g5
S'971534666602868737'
p1974
sg7
g8
sg9
S"In today's podcast, I let loose and tell you a few facts about what is and isn't. Who cares about the FUD? Keep you... https://t.co/RdXYYYJzfl"
p1975
sg11
S'16'
p1976
sba(iObject
Object
p1977
(dp1978
g5
S'971194432468013056'
p1979
sg7
g12
sg9
S'Set up your day right by getting the skinny on what I see as the important snippets in the crypto world. #Podcast... https://t.co/2zIN6enOfg'
p1980
sg11
g278
sba(iObject
Object
p1981
(dp1982
g5
S'971171530808885248'
p1983
sg7
g17
sg9
S'Is It Time To Panic? $BTC $ETH $XRP #bitcoin #crypto\n\nhttps://t.co/e0ZTKV7Jl9'
p1984
sg11
S'12'
p1985
sba(iObject
Object
p1986
(dp1987
g5
S'970872215540510721'
p1988
sg7
g17
sg9
S'Understanding what is on the charts is big deal if you wish to be a technical trader. In this video TraderCobb brea... https://t.co/eSgsx8FHt9'
p1989
sg11
g1545
sba(iObject
Object
p1990
(dp1991
g5
S'970826594427191296'
p1992
sg7
g8
sg9
S'OK so it\'s time to jump onto today\'s "Crypto Daily Kickstart" podcast and have a listen.\n\n#bitcoin #crypto #trading\n\nhttps://t.co/Iv5Ho8klrX'
p1993
sg11
g1545
sba(iObject
Object
p1994
(dp1995
g5
S'970777694970380288'
p1996
sg7
g12
sg9
S'Community member using his "big brain" to write my strategy. I love helping people to help themselves then help me... https://t.co/zhl9v8K0vS'
p1997
sg11
S'18'
p1998
sba(iObject
Object
p1999
(dp2000
g5
S'970590477643689984'
p2001
sg7
g12
sg9
S'@cryptoSqueeze You mean up trend'
p2002
sg11
g278
sba(iObject
Object
p2003
(dp2004
g5
S'970564866736930816'
p2005
sg7
g1545
sg9
S'The crypto market is Phil Collins - In the air tonight. Everyone is waiting for 3 minutes 40. Retweet this for a la... https://t.co/D4ccID84mm'
p2006
sg11
S'29'
p2007
sba(iObject
Object
p2008
(dp2009
g5
S'970561465743585280'
p2010
sg7
g8
sg9
S'New podcast for today out now. A little late but I am still getting used to this! Subscribe so you never miss out\nhttps://t.co/xZ79yCI7oc'
p2011
sg11
S'12'
p2012
sba(iObject
Object
p2013
(dp2014
g5
S'970556877128941571'
p2015
sg7
g12
sg9
S'@SimonMiciuk $11,700 first then $12,700 these are the levels'
p2016
sg11
g17
sba(iObject
Object
p2017
(dp2018
g5
S'970555481751040000'
p2019
sg7
g12
sg9
S'Positive Trader Mindset $BTC $ETH $XRP #bitcoin #crypto\nhttps://t.co/mgiDlX3Rg0'
p2020
sg11
S'10'
p2021
sba(iObject
Object
p2022
(dp2023
g5
S'970507293702828032'
p2024
sg7
g8
sg9
S'Closing in on $11,700 lets see how we go here. #bitcoin'
p2025
sg11
S'31'
p2026
sba(iObject
Object
p2027
(dp2028
g5
S'969390954351398913'
p2029
sg7
g620
sg9
S'Momentum Building $BTC $ETH $XRP #bitcoin #crypto\n\nhttps://t.co/xEws6oziE3'
p2030
sg11
S'22'
p2031
sba(iObject
Object
p2032
(dp2033
g5
S'969116785126424577'
p2034
sg7
g12
sg9
S'@BulkCrypto Ive left the office now lol. It looks the same as it does in that photo but it goes up and makes a vrrrrrr type sound '
p2035
sg11
g12
sba(iObject
Object
p2036
(dp2037
g5
S'969112439932403713'
p2038
sg7
g176
sg9
S'Todays podcast. GET IT!!\n\nSubscribe and share. Ive got some very entertaining guests coming up from TV personalit... https://t.co/T67MWKDYmE'
p2039
sg11
S'15'
p2040
sba(iObject
Object
p2041
(dp2042
g5
S'969107311770947586'
p2043
sg7
g299
sg9
S'Looking at crypto all day when there is not much going on can be more harmful than you think. In this video TraderC... https://t.co/MytIThtbs6'
p2044
sg11
g1545
sba(iObject
Object
p2045
(dp2046
g5
S'969041356642385920'
p2047
sg7
g176
sg9
S'Time to get my Fibonacci strategy together in one place for the world to know about!\n\nLots of work ahead.\n\nThis is... https://t.co/yRevOgdTLy'
p2048
sg11
S'30'
p2049
sba(iObject
Object
p2050
(dp2051
g5
S'969026194514444289'
p2052
sg7
g17
sg9
S'Where I do my thing!\n\nOne element I cant live without is the electric rising desk. This allows me to stand up and... https://t.co/uII4RXAs2q'
p2053
sg11
S'47'
p2054
sba(iObject
Object
p2055
(dp2056
g5
S'968989918033715201'
p2057
sg7
g12
sg9
S"Hey guys there's a new podcast about to go out.\nI will be getting great guests and having a bit of fun chatting cry... https://t.co/6TSTh8peVV"
p2058
sg11
g1545
sba(iObject
Object
p2059
(dp2060
g5
S'968708862789464064'
p2061
sg7
g17
sg9
S'NEO has set a blistering pace that bitcoin and the rest of the crypto top-10 has not been able to keep up with. Is... https://t.co/bkLQQgwWN6'
p2062
sg11
S'19'
p2063
sba(iObject
Object
p2064
(dp2065
g5
S'968626940587360257'
p2066
sg7
g8
sg9
S'A little article up on Yahoo7\nhttps://t.co/8Oe2TwLu0r.../one-simple-reason-youd-mad-n...\n\nNo the bald dude is not me lol\nCoincidence only!'
p2067
sg11
g80
sba(iObject
Object
p2068
(dp2069
g5
S'968406212747259904'
p2070
sg7
g12
sg9
S"@delete152737 @Landm_Marius Thanks mate I see 2 levels of resistance above and that's all my focus is on. I would n... https://t.co/gjPlO5iyYu"
p2071
sg11
g17
sba(iObject
Object
p2072
(dp2073
g5
S'968395502281670656'
p2074
sg7
S'12'
p2075
sg9
S"#bitcoin just broke up through yesterday's high. Let's see how we go. Resistance at $11,700 then $12,700. If we can... https://t.co/E71K0OBqAU"
p2076
sg11
S'60'
p2077
sba(iObject
Object
p2078
(dp2079
g5
S'968372715244670976'
p2080
sg7
g176
sg9
S'Thanks to one of the members within my group I am now stalking ETHUSD $ETH for a bitcoin breakout long. Love when t... https://t.co/LkIEo7hprl'
p2081
sg11
S'30'
p2082
sba(iObject
Object
p2083
(dp2084
g5
S'968305937306955776'
p2085
sg7
g176
sg9
S'Sentiment Change On Horizon? $BTC $ETH $XRP #bitcoin #crypto\nhttps://t.co/gmytsEosMZ'
p2086
sg11
S'20'
p2087
sba(iObject
Object
p2088
(dp2089
g5
S'968280926529581056'
p2090
sg7
g8
sg9
S'Guys big news for $CAN @canyacoin https://t.co/1WpTFijHLI'
p2091
sg11
S'21'
p2092
sba(iObject
Object
p2093
(dp2094
g5
S'967984327316316162'
p2095
sg7
g12
sg9
S'Slow Start To The Week $BTC $ETH $XRP #bitcoin #crypto\nhttps://t.co/5HT7SkFB7i'
p2096
sg11
g65
sba(iObject
Object
p2097
(dp2098
g5
S'967898542852288512'
p2099
sg7
g8
sg9
S'On my way to the city for a meeting with a very interesting ICO project. I shall keep you all posted! $BTC #crypto'
p2100
sg11
S'37'
p2101
sba(iObject
Object
p2102
(dp2103
g5
S'967897689265336320'
p2104
sg7
g12
sg9
S'Also not feeling 100% today so not looking to trade. The market BTC, in particular, is not really showing a great d... https://t.co/bnT0RSO4Qr'
p2105
sg11
g80
sba(iObject
Object
p2106
(dp2107
g5
S'967226202921431040'
p2108
sg7
g176
sg9
S'I am liking how BTC and the rest of the market for the most part has held strong. Bitcoin has held 10k and a break... https://t.co/VDLPKoXH3b'
p2109
sg11
S'60'
p2110
sba(iObject
Object
p2111
(dp2112
g5
S'966918443835449344'
p2113
sg7
g299
sg9
S'2 levels of resistance on #bitcoin at $11,700 then at $12,700\nThere is very minor support at $9,000. If $9,000 goes... https://t.co/vsAE2uv3az'
p2114
sg11
S'39'
p2115
sba(iObject
Object
p2116
(dp2117
g5
S'966914637869363202'
p2118
sg7
g17
sg9
S"#BTC has had a test on $10,000 and sold off. Let's see how we react now. SO far a solid sell-off #crypto #bitcoin"
p2119
sg11
S'15'
p2120
sba(iObject
Object
p2121
(dp2122
g5
S'966874959527133184'
p2123
sg7
g17
sg9
S'Get along to this event guys. I will be presenting information on strategy and what it takes to be a good trader. I... https://t.co/dk2X27WmOu'
p2124
sg11
g299
sba(iObject
Object
p2125
(dp2126
g5
S'966847106055942144'
p2127
sg7
g12
sg9
S'My little chat with @nugget_alex this morning covering trading and investing https://t.co/KzgpMMFVxd'
p2128
sg11
S'14'
p2129
sba(iObject
Object
p2130
(dp2131
g5
S'966838423305650176'
p2132
sg7
g17
sg9
S'BTC &amp; $10,000 $BTC $ETH $XRP #bitcoin #crypto\nhttps://t.co/YsAejBbreL'
p2133
sg11
g278
sba(iObject
Object
p2134
(dp2135
g5
S'966576182580862977'
p2136
sg7
g8
sg9
S'Homework Is Good $BTC $ETH $XRP #bitcoin #crypto\nhttps://t.co/CPP9UbXuSq'
p2137
sg11
S'17'
p2138
sba(iObject
Object
p2139
(dp2140
g5
S'966202480731283456'
p2141
sg7
g17
sg9
S"So far the resistance has held and we are seeing a bit of red. No big deal. It's just time to move to the higher ti... https://t.co/uRIHc4mQF6"
p2142
sg11
S'18'
p2143
sba(iObject
Object
p2144
(dp2145
g5
S'966201639995674627'
p2146
sg7
g12
sg9
S'@ashlfc26 At this point it is looking much more bearish than BTC. I read the charts and try not to think to much '
p2147
sg11
g12
sba(iObject
Object
p2148
(dp2149
g5
S'966178449399451648'
p2150
sg7
g12
sg9
S"Bitcoin Level's I Am Watching $BTC $ETH $XRP #bitcoin #crypto\nhttps://t.co/Ff83MoVeZw"
p2151
sg11
S'12'
p2152
sba(iObject
Object
p2153
(dp2154
g5
S'965922369121353728'
p2155
sg7
g299
sg9
S'Indian people need crypto. Another story of the haves taking from the top while the have nots struggle. Not cool!\n\nhttps://t.co/JvTWbj6oev'
p2156
sg11
S'22'
p2157
sba(iObject
Object
p2158
(dp2159
g5
S'965881870700265472'
p2160
sg7
g65
sg9
S'#bitcoin  #ethereum and #ripple are now all at resistance. Bitcoin has hit the level I spoke of - has acted accordi... https://t.co/bB5nIA7vqE'
p2161
sg11
S'49'
p2162
sba(iObject
Object
p2163
(dp2164
g5
S'965812940661080065'
p2165
sg7
g17
sg9
S'Technical Analysis Vs Trading Strategy $BTC $ETH $XRP #bitcoin #crypto\nhttps://t.co/ACArwyu5Zw'
p2166
sg11
S'15'
p2167
sba(iObject
Object
p2168
(dp2169
g5
S'965462069167366149'
p2170
sg7
g176
sg9
S'How To Create A Watchlist $BTC $ETH $XRP #bitcoin #crypto\nhttps://t.co/MCC6akZNyn'
p2171
sg11
S'12'
p2172
sba(iObject
Object
p2173
(dp2174
g5
S'965434223665430528'
p2175
sg7
g278
sg9
S'Here is the 60 minutes story where I do my best to give an honest light on the crypto space https://t.co/vQN7zn2TAx\n#bitcoin $BTC #trading'
p2176
sg11
S'38'
p2177
sba(iObject
Object
p2178
(dp2179
g5
S'965402712723439616'
p2180
sg7
g176
sg9
S'Its business time!\nMeetings with @nugget_alex and @decidecrypto in Launceston. Brainstorm session https://t.co/0dzPNQgYHy'
p2181
sg11
S'33'
p2182
sba(iObject
Object
p2183
(dp2184
g5
S'965364562282266624'
p2185
sg7
g278
sg9
S'Take profits, invest in experiences that allow you to re-charge, refresh and come back stronger. This is part of th... https://t.co/emTIxPIgMI'
p2186
sg11
S'63'
p2187
sba(iObject
Object
p2188
(dp2189
g5
S'965190112584744960'
p2190
sg7
S'11'
p2191
sg9
S'Let the roller-coaster continue! https://t.co/TGxbkgAZT7'
p2192
sg11
S'76'
p2193
sba(iObject
Object
p2194
(dp2195
g5
S'965189744534609920'
p2196
sg7
g12
sg9
S'@60Mins Thanks guys, old-fashioned .......... I am young old-fashioned maybe haha'
p2197
sg11
S'12'
p2198
sba(iObject
Object
p2199
(dp2200
g5
S'965189534873890817'
p2201
sg7
g12
sg9
S'@60Mins Brave reporting, we need more of it!'
p2202
sg11
g17
sba(iObject
Object
p2203
(dp2204
g5
S'965189351121477634'
p2205
sg7
g12
sg9
S'@60Mins Thanks for having me Guys!'
p2206
sg11
g620
sba(iObject
Object
p2207
(dp2208
g5
S'965189241838829569'
p2209
sg7
g176
sg9
S'Thanks for having me @tomsteinfort and @60Mins the whole crew were great humans. Hopefully more to come #crypto #60minutes #bitcoin $BTC'
p2210
sg11
S'58'
p2211
sba(iObject
Object
p2212
(dp2213
g5
S'965181035989233665'
p2214
sg7
g12
sg9
S'@60Minutes Thanks for having me. Lots more to come!'
p2215
sg11
g17
sba(iObject
Object
p2216
(dp2217
g5
S'964800637245337600'
p2218
sg7
g12
sg9
S'Risk In Trading $BTC $ETH $XRP #bitcoin #crypto  https://t.co/JeZlczJyIY'
p2219
sg11
S'16'
p2220
sba(iObject
Object
p2221
(dp2222
g5
S'964356561844912129'
p2223
sg7
g8
sg9
S'The last time I did an event it was with @JamieSkella of @HorizonState we had about 500 people turn up. It was a gr... https://t.co/bpTEYoFlyE'
p2224
sg11
S'18'
p2225
sba(iObject
Object
p2226
(dp2227
g5
S'964295228847882240'
p2228
sg7
g12
sg9
S'BTC Gone Will BCH Follow? $BTC $ETH $XRP #bitcoin #crypto\nhttps://t.co/LkwKXMRJrq'
p2229
sg11
g299
sba(iObject
Object
p2230
(dp2231
g5
S'964277651291557888'
p2232
sg7
g12
sg9
S"@nom_de_code Sometimes they just do. I use many tools to find trades and fib's are just one. I layer them looking f... https://t.co/7STKPRb6rt"
p2233
sg11
g12
sba(iObject
Object
p2234
(dp2235
g5
S'964240638462996481'
p2236
sg7
g8
sg9
S'What an amazing morning it is here in Bondi! $BTC is bang on $10,000, the sun is shining, there is a light breeze a... https://t.co/IfPhsvoo7W'
p2237
sg11
S'68'
p2238
sba(iObject
Object
p2239
(dp2240
g5
S'964041415117348864'
p2241
sg7
g12
sg9
S'Why Does Technical Analysis Work $BTC $ETH $XRP #bitcoin #crypto\nhttps://t.co/O0JvqHKqVn'
p2242
sg11
g620
sba(iObject
Object
p2243
(dp2244
g5
S'964029579256999936'
p2245
sg7
g17
sg9
S'What is Flawless Execution $BTC $ETH $XRP #bitcoin #crypto\nhttps://t.co/APnZKdKQiZ'
p2246
sg11
g80
sba(iObject
Object
p2247
(dp2248
g5
S'963893820139085825'
p2249
sg7
g8
sg9
S"It's a good morning to wake up when $BTC has set a new minor bullish milestone in break the high of last weeks cand... https://t.co/TaN3msQmxH"
p2250
sg11
S'47'
p2251
sba(iObject
Object
p2252
(dp2253
g5
S'963562813116497922'
p2254
sg7
g176
sg9
S'The Cradle Zone: Overextension $BTC $ETH $XRP #bitcoin #crypto\nhttps://t.co/fWAcH5z49i'
p2255
sg11
g1545
sba(iObject
Object
p2256
(dp2257
g5
S'963545199325540352'
p2258
sg7
g176
sg9
S"Hey guys and girls, if you haven't already joined my bi-weekly video education service (It's Free) then you should... https://t.co/4Ao5J8Uk3j"
p2259
sg11
S'25'
p2260
sba(iObject
Object
p2261
(dp2262
g5
S'963194329375256576'
p2263
sg7
g17
sg9
S'Bitcoin: Bullish Or Bearish? $BTC $ETH $XRP #bitcoin #crypto\nhttps://t.co/mqlmeOfeG8'
p2264
sg11
g65
sba(iObject
Object
p2265
(dp2266
g5
S'963181707863076864'
p2267
sg7
g620
sg9
S'$BTC if we break the $9,090 level we are looking good with no hurdles on the chart to $10,000 If we break that lowe... https://t.co/NHfwFt9gWB'
p2268
sg11
S'41'
p2269
sba(iObject
Object
p2270
(dp2271
g5
S'962998237069103105'
p2272
sg7
g12
sg9
S'@BlaineSwan @ChadNichols_ We very well may head back to $6000. Short term though there is a higher low which is a m... https://t.co/lf5WPMKARn'
p2273
sg11
g8
sba(iObject
Object
p2274
(dp2275
g5
S'962923291894734848'
p2276
sg7
g12
sg9
S'BTC &amp; ETH: Right Now $BTC $ETH $XRP #bitcoin #crypto\n https://t.co/4KoGXgtzS4'
p2277
sg11
S'14'
p2278
sba(iObject
Object
p2279
(dp2280
g5
S'962849631133581312'
p2281
sg7
g8
sg9
S"Don't forget that if you can't understand what is being said it's not likely you will learn from that teacher. I fo... https://t.co/d4A3VTp1uS"
p2282
sg11
S'28'
p2283
sba(iObject
Object
p2284
(dp2285
g5
S'962846737504264192'
p2286
sg7
g17
sg9
S'A break down through here is bearish, a break up through here is bullish $BTC #bitcoin #trading $ETH $XRP https://t.co/1lZgdn7wrO'
p2287
sg11
S'18'
p2288
sba(iObject
Object
p2289
(dp2290
g5
S'961411896497782784'
p2291
sg7
g17
sg9
S"BTC daily - Break the lows and we're off - $BTCUSD chart https://t.co/rqct3astaR"
p2292
sg11
S'14'
p2293
sba(iObject
Object
p2294
(dp2295
g5
S'961367484698783744'
p2296
sg7
g8
sg9
S'Be careful not to fight a bear with a stick $BTC #trading #crypto https://t.co/Wv3LTvRKrL'
p2297
sg11
S'16'
p2298
sba(iObject
Object
p2299
(dp2300
g5
S'961007486902853632'
p2301
sg7
g12
sg9
S'@GTSewell Facebook sent me a message saying check this is a name you "go by" in everyday life. So I left it as it is. '
p2302
sg11
g12
sba(iObject
Object
p2303
(dp2304
g5
S'960995671284133889'
p2305
sg7
g12
sg9
S'@Bryceworld They expect you to be hooked to it, 2 days come on! It was the busiest 2 days trading I have had in years! I was busy FB'
p2306
sg11
g8
sba(iObject
Object
p2307
(dp2308
g5
S'960995505705664513'
p2309
sg7
g80
sg9
S'How to make 10 million friends in 2 minutes - Chairman Giancarlo'
p2310
sg11
S'65'
p2311
sba(iObject
Object
p2312
(dp2313
g5
S'960990635841830912'
p2314
sg7
g17
sg9
S'So my facebook is down guys. The FaceBook crazies gave me 2 days to change my name from Trader to my actual name an... https://t.co/Y6o3QBVRrS'
p2315
sg11
S'25'
p2316
sba(iObject
Object
p2317
(dp2318
g5
S'960764893723938816'
p2319
sg7
g12
sg9
S"@AntonKreil Dinosaurs don't talk"
p2320
sg11
g278
sba(iObject
Object
p2321
(dp2322
g5
S'960764510758846464'
p2323
sg7
g12
sg9
S'@katmaiBeast If they would like me involved DM me'
p2324
sg11
g12
sba(iObject
Object
p2325
(dp2326
g5
S'960761834058862593'
p2327
sg7
g12
sg9
S'@EscapingAverage USDT had a good day haha'
p2328
sg11
g17
sba(iObject
Object
p2329
(dp2330
g5
S'960757516685557761'
p2331
sg7
g17
sg9
S"S&amp;P 500 futures trading down 2.5%, Dow down 3%. It's a very exciting time to be a trader. This is what the years of... https://t.co/dpjvOtE7Eq"
p2332
sg11
S'14'
p2333
sba(iObject
Object
p2334
(dp2335
g5
S'960754899100119040'
p2336
sg7
g12
sg9
S'@EscapingAverage Yes so it seems!'
p2337
sg11
g8
sba(iObject
Object
p2338
(dp2339
g5
S'960751906233569281'
p2340
sg7
g12
sg9
S'@Bryceworld OUCH!'
p2341
sg11
g12
sba(iObject
Object
p2342
(dp2343
g5
S'960750931993280512'
p2344
sg7
g299
sg9
S'Any Australian traders that hold USDT the trade of a lifetime awaits $BTC $USDT $ETH $XRP #trading https://t.co/1BNgTPmOiV'
p2345
sg11
S'25'
p2346
sba(iObject
Object
p2347
(dp2348
g5
S'960737723823751168'
p2349
sg7
g17
sg9
S'Correction. The meeting on the 6th is still on. So, I will be happy to short the market leading into the meeting. A... https://t.co/IlOlXft6ej'
p2350
sg11
S'13'
p2351
sba(iObject
Object
p2352
(dp2353
g5
S'960733674755956736'
p2354
sg7
g8
sg9
S'OK so it seems that the SEC get together is set for the 14th now. I am now happy to participate in shorting BTC, ET... https://t.co/G9enQ6aY9y'
p2355
sg11
S'14'
p2356
sba(iObject
Object
p2357
(dp2358
g5
S'960663176688762880'
p2359
sg7
g12
sg9
S'@coinbase interesting news'
p2360
sg11
g17
sba(iObject
Object
p2361
(dp2362
g5
S'960663011961724928'
p2363
sg7
S'399'
p2364
sg9
S'RT @coinbase: Bitcoin SegWit Update https://t.co/3YPQPlg9tc'
p2365
sg11
g12
sba(iObject
Object
p2366
(dp2367
g5
S'960651957365981184'
p2368
sg7
g17
sg9
S"Wow now that's something! https://t.co/BoHDAYjKUq"
p2369
sg11
g620
sba(iObject
Object
p2370
(dp2371
g5
S'960624714833051648'
p2372
sg7
g620
sg9
S"At least Wall Street isn't allowed to be smug towards crypto today LOL $BTC #trading #crypto"
p2373
sg11
S'40'
p2374
sba(iObject
Object
p2375
(dp2376
g5
S'960616431334260737'
p2377
sg7
g12
sg9
S'@NicholasBarone9 I have not looked at it sorry mate. So much else to cover!'
p2378
sg11
g12
sba(iObject
Object
p2379
(dp2380
g5
S'960458920601952256'
p2381
sg7
g65
sg9
S'What a night it was. Horizon State - Certainly a worthy project https://t.co/31zacBh6sx'
p2382
sg11
S'38'
p2383
sba(iObject
Object
p2384
(dp2385
g5
S'960374370622255104'
p2386
sg7
g176
sg9
S'A little sentiment video with @nugget_alex https://t.co/FKz5orGjic'
p2387
sg11
S'20'
p2388
sba(iObject
Object
p2389
(dp2390
g5
S'960366540817285120'
p2391
sg7
g65
sg9
S'I will not be looking to be to active in the markets until after the semi regulatory meeting in the US Feb 6. Anyth... https://t.co/wfLfm2fpYh'
p2392
sg11
S'49'
p2393
sba(iObject
Object
p2394
(dp2395
g5
S'959609024537743360'
p2396
sg7
g17
sg9
S'The market has fallen which means if you buy anything from https://t.co/9LT8ldTQU0 in crypto you will receive up to... https://t.co/wk1qh11Tul'
p2397
sg11
S'12'
p2398
sba(iObject
Object
p2399
(dp2400
g5
S'959553868941074432'
p2401
sg7
g8
sg9
S'Still too much emotion in the markets for good trading conditions in crypto today. Happy to take the weekend to do... https://t.co/ujgWaVGQtD'
p2402
sg11
S'52'
p2403
sba(iObject
Object
p2404
(dp2405
g5
S'959543620217970688'
p2406
sg7
g12
sg9
S'@Crypto_Bitlord Only on the monthly chart'
p2407
sg11
g17
sba(iObject
Object
p2408
(dp2409
g5
S'959535845043662848'
p2410
sg7
g12
sg9
S'@cryptoboater @Mitlear Does that feel better now that you have thrown all your toys out of the pram? My tweet is ac... https://t.co/KEUfF6V5C7'
p2411
sg11
g12
sba(iObject
Object
p2412
(dp2413
g5
S'959359328644775936'
p2414
sg7
S'13'
p2415
sg9
S'RT @JamieSkella: #Blockchain wont succeed because the tech cant scale reminders me of the Internet can never be faster than X on coppe...'
p2416
sg11
g12
sba(iObject
Object
p2417
(dp2418
g5
S'959296286942928896'
p2419
sg7
g12
sg9
S"@cryptoboater And here we see imaturity of this market and it's reactionary nature. This tweet personifies the current market"
p2420
sg11
S'27'
p2421
sba(iObject
Object
p2422
(dp2423
g5
S'959233716391370752'
p2424
sg7
S'11'
p2425
sg9
S'When I am trading I am looking for what is happening right now, when I am investing I am looking at what will be ha... https://t.co/HJytlFDpiC'
p2426
sg11
S'69'
p2427
sba(iObject
Object
p2428
(dp2429
g5
S'959220447253442561'
p2430
sg7
g17
sg9
S'8 hour cradle setup on KNC/BTC if you want to know more about the cradle and how I trade go to the website and clic... https://t.co/qccLt5J7kJ'
p2431
sg11
g1545
sba(iObject
Object
p2432
(dp2433
g5
S'959219020871299078'
p2434
sg7
g12
sg9
S"@Bryceworld OK. I don't put any time at all in crosses."
p2435
sg11
g12
sba(iObject
Object
p2436
(dp2437
g5
S'958947588345970689'
p2438
sg7
g12
sg9
S"@Daniel23082910 Bitcoin is in a down trend but it's just a needed pull back in my view"
p2439
sg11
g17
sba(iObject
Object
p2440
(dp2441
g5
S'958940344388743168'
p2442
sg7
g12
sg9
S'@_johnglover can you email admin@tradercobb.com please mate'
p2443
sg11
g12
sba(iObject
Object
p2444
(dp2445
g5
S'958940254911606784'
p2446
sg7
g12
sg9
S'@cryptologist201 Social team lol'
p2447
sg11
g17
sba(iObject
Object
p2448
(dp2449
g5
S'958940099487531008'
p2450
sg7
g176
sg9
S"See how I start my day with my top 100 token scan then you need to register for my free bi-weekly video's NOW!\n\nThe... https://t.co/6SHjxmu1A8"
p2451
sg11
S'16'
p2452
sba(iObject
Object
p2453
(dp2454
g5
S'958933521799639040'
p2455
sg7
g17
sg9
S'With more negative news out there in the space we have again seen bitcoin move lower. In this video TraderCobb expl... https://t.co/fyjaQa6zTJ'
p2456
sg11
S'11'
p2457
sba(iObject
Object
p2458
(dp2459
g5
S'958593213413122049'
p2460
sg7
g12
sg9
S"@crypto_nympho Best I pop round then, nobody shares favorites. It's the great myth of our time!"
p2461
sg11
g12
sba(iObject
Object
p2462
(dp2463
g5
S'958592952862994433'
p2464
sg7
g12
sg9
S'@CryptoDarn Not really mate. I am like the rest of the market, waiting for a real response'
p2465
sg11
g17
sba(iObject
Object
p2466
(dp2467
g5
S'958584660589674496'
p2468
sg7
g12
sg9
S'@LilUziVertcoin To make it far less complicated we could just say lower lows and lower highs put BTC in a down trend'
p2469
sg11
g65
sba(iObject
Object
p2470
(dp2471
g5
S'958548510411862016'
p2472
sg7
g12
sg9
S'With more negative news out there in the space we have again seen bitcoin move lower. In this video TraderCobb expl... https://t.co/t9GApxUXvn'
p2473
sg11
S'18'
p2474
sba(iObject
Object
p2475
(dp2476
g5
S'958242324005318656'
p2477
sg7
g12
sg9
S"@KryptoKook Love your profile picture!\nWebsites claiming they have my content. It's not meant as a plug but I see you!"
p2478
sg11
g12
sba(iObject
Object
p2479
(dp2480
g5
S'958241435131592704'
p2481
sg7
g65
sg9
S'It has come to my attention that there are now rip off sites posting that they have the TraderCobb courses at very... https://t.co/pxgkNfadjX'
p2482
sg11
S'33'
p2483
sba(iObject
Object
p2484
(dp2485
g5
S'957897855707971584'
p2486
sg7
g12
sg9
S'@windingtree ICO AMA with CEO Maksim Izmaylov - Hosted by @decidecrypto and @TraderCobb - Starting in 30minutes HER... https://t.co/iL18CAhvPL'
p2487
sg11
g12
sba(iObject
Object
p2488
(dp2489
g5
S'957850671633514496'
p2490
sg7
S'413'
p2491
sg9
S'The perfect "Crypto Cradle" has setup on XLM/BTC. If you want to learn about this strategy please visit the website... https://t.co/Uslret1y8C'
p2492
sg11
S'30'
p2493
sba(iObject
Object
p2494
(dp2495
g5
S'957533067983208448'
p2496
sg7
g12
sg9
S'@jocular29 Not for me. When it sets higher lows and higher highs on the daily I am bullish when it sets lower highs... https://t.co/AgJ693H9Ze'
p2497
sg11
g12
sba(iObject
Object
p2498
(dp2499
g5
S'957527910755135493'
p2500
sg7
S'13'
p2501
sg9
S'RT @7tennis: Cause you gotta have ace, ace, ACE!\n\n286 aces were hit yesterday for 5785 over the whole #AusOpen, helping 5785 Aussies get on...'
p2502
sg11
g12
sba(iObject
Object
p2503
(dp2504
g5
S'957515241629167617'
p2505
sg7
g12
sg9
S'Agreed - Take away the A and there lies the problem https://t.co/xfKwOXe4z7'
p2506
sg11
g620
sba(iObject
Object
p2507
(dp2508
g5
S'957509541964349440'
p2509
sg7
S'892'
p2510
sg9
S'$BTC starting to look more bullish again. Small higher high on the daily just set. $13,000 still the level to beat... https://t.co/0mn63CMxKD'
p2511
sg11
S'975'
p2512
sba(iObject
Object
p2513
(dp2514
g5
S'957464670289342466'
p2515
sg7
g8
sg9
S"Video from Nugget's news youtube today Alex George Saunders \nGo and give him a subscribe if you don't already https://t.co/YG2BJWYnbX"
p2516
sg11
S'14'
p2517
sba(iObject
Object
p2518
(dp2519
g5
S'957425936189681665'
p2520
sg7
S'226'
p2521
sg9
S"I haven't announced much about my education offerings as there has been a soft launch promotion this week. If you w... https://t.co/mXp05Wdm1J"
p2522
sg11
S'2302'
p2523
sba(iObject
Object
p2524
(dp2525
g5
S'957289512165453824'
p2526
sg7
g80
sg9
S'RT @nugget_alex: 2018 is the year we starting using #Cryptocurrencies in our everyday lives. Who will be first? @facebook @amazon @netflix...'
p2527
sg11
g12
sba(iObject
Object
p2528
(dp2529
g5
S'957289222435610625'
p2530
sg7
S'13'
p2531
sg9
S'RT @SpirosMargaris: #Blockchain Balance Issues: \n\nWhy The Industry Needs #Female Leaders \n\nhttps://t.co/BAdFicWFUq #fintech @LisaWinning #w...'
p2532
sg11
g12
sba(iObject
Object
p2533
(dp2534
g5
S'956673367540551680'
p2535
sg7
g17
sg9
S'A great night with an all-star team. Thanks for the chance to speak to your audience. I look forward to more events... https://t.co/quUsvwFkfP'
p2536
sg11
S'18'
p2537
sba(iObject
Object
p2538
(dp2539
g5
S'956492094998175744'
p2540
sg7
g176
sg9
S'Great night @HorizonState event with @nugget_alex and @DiaryofaMadeMan great to share the stage with you boys  https://t.co/faCzuL4A1z'
p2541
sg11
S'51'
p2542
sba(iObject
Object
p2543
(dp2544
g5
S'956318365638799360'
p2545
sg7
S'141'
p2546
sg9
S'TraderCobb gives you an insight into his hugely popular "Crypto Cradle" strategy by showing you two charts he is cu... https://t.co/5BwpEtom1y'
p2547
sg11
S'223'
p2548
sba(iObject
Object
p2549
(dp2550
g5
S'956137378057367553'
p2551
sg7
g12
sg9
S'@chadmckee3 I invest on fundamentals but I trade on charts. Lots at https://t.co/9LT8ldTQU0 heaps of videos'
p2552
sg11
g17
sba(iObject
Object
p2553
(dp2554
g5
S'956097994134138881'
p2555
sg7
g12
sg9
S"@EscapingAverage You don't have to be great to get started but you have to get started to be great - Zig Ziglar"
p2556
sg11
g8
sba(iObject
Object
p2557
(dp2558
g5
S'956097454314680320'
p2559
sg7
g12
sg9
S"@JamieSkella YES! Let's have more of this and less of shirtless men standing next to Ferrari's please mainstream media!"
p2560
sg11
g299
sba(iObject
Object
p2561
(dp2562
g5
S'956094335438569472'
p2563
sg7
g12
sg9
S'@jamesradvan Drastic times call for drastic measures mate'
p2564
sg11
g17
sba(iObject
Object
p2565
(dp2566
g5
S'956094154454417408'
p2567
sg7
S'592'
p2568
sg9
S"This one is really simple. What works and what doesn't. Lets cut through wasting lots of your time trying to learn... https://t.co/HWRIMSY3GR"
p2569
sg11
S'607'
p2570
sba(iObject
Object
p2571
(dp2572
g5
S'955956453054885888'
p2573
sg7
g17
sg9
S'Its all about lifestyle, balance and enjoying the journey. https://t.co/9XruOaevdo'
p2574
sg11
S'28'
p2575
sba(iObject
Object
p2576
(dp2577
g5
S'955941117287047169'
p2578
sg7
g12
sg9
S'@SecuredChain Yes, I hear this but I refuse to let it have any bearing on my trading. Maybe post the 26th my mind will change for now not so'
p2579
sg11
g12
sba(iObject
Object
p2580
(dp2581
g5
S'955936234299310081'
p2582
sg7
g620
sg9
S"My 3 step to bullish bitcoin checklist $BTC\n1. Bullish daily candle rejecting $10,000 - check\n2. Today's candle bre... https://t.co/WuYXMxtK8k"
p2583
sg11
S'42'
p2584
sba(iObject
Object
p2585
(dp2586
g5
S'955934418908020736'
p2587
sg7
g12
sg9
S'Trade Station now offering bitcoin futures \nThe best charting provider in the world offering the best contract in t... https://t.co/fjaVwUdfVE'
p2588
sg11
g8
sba(iObject
Object
p2589
(dp2590
g5
S'955909070698901504'
p2591
sg7
g176
sg9
S"OK so $10,000 didn't hold but it didn't dip for long or far. $12,985 now the level to break on $BTC that will put u... https://t.co/FuNcAl6Cyt"
p2592
sg11
S'27'
p2593
sba(iObject
Object
p2594
(dp2595
g5
S'955743490603868160'
p2596
sg7
g620
sg9
S'What an amazing insight Jesse Livermore always brings all these years on. Still as relevant today as it was back th... https://t.co/V7NLAusWEi'
p2597
sg11
S'20'
p2598
sba(iObject
Object
p2599
(dp2600
g5
S'955740429449805824'
p2601
sg7
g12
sg9
S'Plan your trade and trade your plan. Well done mate, I love hearing this type of feedback! https://t.co/EWVVTCH3ex'
p2602
sg11
S'19'
p2603
sba(iObject
Object
p2604
(dp2605
g5
S'955718393117556736'
p2606
sg7
S'891'
p2607
sg9
S'A video on mindset $BTC $ETH $XRP #bitcoin #crypto\nhttps://t.co/mgiDlX3Rg0'
p2608
sg11
S'1513'
p2609
sba(iObject
Object
p2610
(dp2611
g5
S'955717963776077824'
p2612
sg7
S'2168'
p2613
sg9
S'Bitcoin is our market leader whether we like it or not. In this video TraderCobb shows you the direct link it has w... https://t.co/BIdau0afDk'
p2614
sg11
S'890'
p2615
sba(iObject
Object
p2616
(dp2617
g5
S'955684110315302914'
p2618
sg7
g12
sg9
S'@ioreki Hahah Get stuck in and enjoy! From turkey to eagle mate!'
p2619
sg11
g17
sba(iObject
Object
p2620
(dp2621
g5
S'955628368459833344'
p2622
sg7
g12
sg9
S'@Tim_Gardner Tumeric'
p2623
sg11
g17
sba(iObject
Object
p2624
(dp2625
g5
S'955626111840305153'
p2626
sg7
g12
sg9
S'@decidecrypto I will have a look when I can come up for air\nLooking forward to it'
p2627
sg11
g12
sba(iObject
Object
p2628
(dp2629
g5
S'955623606263758848'
p2630
sg7
g12
sg9
S'Today is an example of a day not to trade for me. Followed my usual routine of exercise, head clearing and tea but... https://t.co/D1rXx2IqNY'
p2631
sg11
S'36'
p2632
sba(iObject
Object
p2633
(dp2634
g5
S'955623109645627392'
p2635
sg7
g12
sg9
S'@decidecrypto Interesting mate. To be taken as a grain of salt but interesting nonetheless. I want to see what you... https://t.co/BwMiQPSOd9'
p2636
sg11
g12
sba(iObject
Object
p2637
(dp2638
g5
S'955559488840282112'
p2639
sg7
g17
sg9
S"Let's see how 10,000 goes. If we fail here I am expecting fresh daily lows on BTC. Not hate just facts $BTC"
p2640
sg11
S'22'
p2641
sba(iObject
Object
p2642
(dp2643
g5
S'955558967035375617'
p2644
sg7
g8
sg9
S"RT @investwithCRI: Todays 'factual' analysis with @TraderCobb on the Bitcoin and the current bearish market, Support levels and what to loo..."
p2645
sg11
g12
sba(iObject
Object
p2646
(dp2647
g5
S'955557127719862272'
p2648
sg7
g12
sg9
S"@AaronSGreen Just waiting for something good to trade on the charts. Right now it's not looking good for crypto tra... https://t.co/JQ92tku3o7"
p2649
sg11
g12
sba(iObject
Object
p2650
(dp2651
g5
S'955299657495625728'
p2652
sg7
g12
sg9
S'@ashlfc26 Roger that on both counts'
p2653
sg11
g12
sba(iObject
Object
p2654
(dp2655
g5
S'955299594904125440'
p2656
sg7
g12
sg9
S'@ioreki Thanks mate. Welcome to the future'
p2657
sg11
g17
sba(iObject
Object
p2658
(dp2659
g5
S'955280813788086272'
p2660
sg7
g80
sg9
S"What am I trading right now? Nothing, you don't always need to trade to make money. Often the best trade is doing a... https://t.co/jXOiLbuDXt"
p2661
sg11
S'36'
p2662
sba(iObject
Object
p2663
(dp2664
g5
S'955273522099597312'
p2665
sg7
g12
sg9
S"@ashlfc26 Much the same as trading, I don't try to pick bottoms haha. I was there for the top 8 finish and the FA c... https://t.co/TpQvdX4Us3"
p2666
sg11
g12
sba(iObject
Object
p2667
(dp2668
g5
S'955256989826793472'
p2669
sg7
g12
sg9
S'@ashlfc26 Scaling into positions for an investor is good. Make a plan then stick to it.\nNow I will make you laugh, my team is Pompey'
p2670
sg11
g12
sba(iObject
Object
p2671
(dp2672
g5
S'955252410678587393'
p2673
sg7
g12
sg9
S"@ashlfc26 First of all, it's debatable that LFC is the greatest club of all lol, secondly, I don't have a crystal b... https://t.co/DakwuUcqoM"
p2674
sg11
g17
sba(iObject
Object
p2675
(dp2676
g5
S'955248391201566720'
p2677
sg7
g12
sg9
S'@ZTreasury Just dropped you a DM to try and work it out'
p2678
sg11
g12
sba(iObject
Object
p2679
(dp2680
g5
S'955218187326431232'
p2681
sg7
g12
sg9
S'@ZTreasury https://t.co/YRHZR7zr8a'
p2682
sg11
g12
sba(iObject
Object
p2683
(dp2684
g5
S'955197602949079040'
p2685
sg7
g12
sg9
S'Welcome to all the new VIP and Live Trading Floor members! The live top 100 scan will start in 5 minutes. Will be a... https://t.co/HQvZodwXBs'
p2686
sg11
g278
sba(iObject
Object
p2687
(dp2688
g5
S'955190962501730306'
p2689
sg7
S'15'
p2690
sg9
S"RT @nugget_alex: Latest round of #FUD. Indian banks freezing #Crypto exchanges accounts. I didn't realise we cared about Indian volume yet?..."
p2691
sg11
g12
sba(iObject
Object
p2692
(dp2693
g5
S'955184988198092806'
p2694
sg7
g12
sg9
S'@NCvanEgmond Eckhart Tolle - Audiobook titled "The power of now" listen to that and relax. I do that twice a day fo... https://t.co/UABw5UevQ1'
p2695
sg11
g620
sba(iObject
Object
p2696
(dp2697
g5
S'955182122192453632'
p2698
sg7
g12
sg9
S'@NCvanEgmond Rest, walk, therapist, Ekhart Tole, the ocean. All helps me'
p2699
sg11
g17
sba(iObject
Object
p2700
(dp2701
g5
S'955176260031754240'
p2702
sg7
g65
sg9
S'In 2 months from now they will be talking of "the great bear market of Q1 2018" as they count their money and talk... https://t.co/4V8XpL2xNg'
p2703
sg11
S'60'
p2704
sba(iObject
Object
p2705
(dp2706
g5
S'955011347229564929'
p2707
sg7
g12
sg9
S'@JamieSkella Curb'
p2708
sg11
g17
sba(iObject
Object
p2709
(dp2710
g5
S'954981810861047808'
p2711
sg7
g12
sg9
S'@MikeEMars Spot on. Education is key'
p2712
sg11
g17
sbasS'smoclerk1'
p2713
(lp2714
(iObject
Object
p2715
(dp2716
g5
S'976132290781655041'
p2717
sg7
g65
sg9
S'RT @rk0933945: Red Copper vs Copper Chef vs Gotham Steel Pan Reviews &amp; Cookware set\nhttps://t.co/rwk09Fn0yf'
p2718
sg11
g12
sba(iObject
Object
p2719
(dp2720
g5
S'975360923551481858'
p2721
sg7
S'63'
p2722
sg9
S'https://t.co/O7892Gh7He'
p2723
sg11
g12
sba(iObject
Object
p2724
(dp2725
g5
S'975360772896301057'
p2726
sg7
S'63'
p2727
sg9
S'https://t.co/urpqowYPCT'
p2728
sg11
g12
sba(iObject
Object
p2729
(dp2730
g5
S'975360573289390080'
p2731
sg7
S'467'
p2732
sg9
S'https://t.co/KXdLZbOIVq'
p2733
sg11
g17
sba(iObject
Object
p2734
(dp2735
g5
S'975360390556090369'
p2736
sg7
S'451'
p2737
sg9
S'https://t.co/ETb2k7dsWL'
p2738
sg11
g12
sba(iObject
Object
p2739
(dp2740
g5
S'975341091229544448'
p2741
sg7
S'148'
p2742
sg9
S'https://t.co/O07GuzwhBt'
p2743
sg11
g12
sba(iObject
Object
p2744
(dp2745
g5
S'975340941568483328'
p2746
sg7
S'148'
p2747
sg9
S'https://t.co/vtGW009x5c'
p2748
sg11
g12
sba(iObject
Object
p2749
(dp2750
g5
S'975340780939223041'
p2751
sg7
S'148'
p2752
sg9
S'https://t.co/ON5TpXWXQH'
p2753
sg11
g12
sba(iObject
Object
p2754
(dp2755
g5
S'975340660747153408'
p2756
sg7
S'156'
p2757
sg9
S'https://t.co/3zWJPPqHBU'
p2758
sg11
g17
sba(iObject
Object
p2759
(dp2760
g5
S'973576298021793792'
p2761
sg7
S'195'
p2762
sg9
S'https://t.co/5tpvEi9Yy2'
p2763
sg11
g12
sba(iObject
Object
p2764
(dp2765
g5
S'973576180681986048'
p2766
sg7
S'87'
p2767
sg9
S'https://t.co/MgALUqFhjw'
p2768
sg11
g12
sba(iObject
Object
p2769
(dp2770
g5
S'973576035424862208'
p2771
sg7
S'91'
p2772
sg9
S'https://t.co/mBGw8W3Gfl'
p2773
sg11
g12
sba(iObject
Object
p2774
(dp2775
g5
S'973574837732913153'
p2776
sg7
S'88'
p2777
sg9
S'https://t.co/mWufRE6BDS'
p2778
sg11
g17
sba(iObject
Object
p2779
(dp2780
g5
S'973574697093799936'
p2781
sg7
S'99'
p2782
sg9
S'https://t.co/myd7Sr28Za'
p2783
sg11
g12
sba(iObject
Object
p2784
(dp2785
g5
S'973574580366336000'
p2786
sg7
S'100'
p2787
sg9
S'https://t.co/KTPNgDtryN'
p2788
sg11
g17
sba(iObject
Object
p2789
(dp2790
g5
S'973333594281164800'
p2791
sg7
S'78'
p2792
sg9
S'https://t.co/tJ2IlHV12n'
p2793
sg11
g12
sba(iObject
Object
p2794
(dp2795
g5
S'973333495584931841'
p2796
sg7
S'70'
p2797
sg9
S'https://t.co/wMc1IhMpSj'
p2798
sg11
g12
sba(iObject
Object
p2799
(dp2800
g5
S'973332462137847808'
p2801
sg7
S'86'
p2802
sg9
S'https://t.co/LbytUsfmQU'
p2803
sg11
g12
sba(iObject
Object
p2804
(dp2805
g5
S'973332361008984064'
p2806
sg7
S'78'
p2807
sg9
S'https://t.co/5NKGVXMUuT'
p2808
sg11
g12
sba(iObject
Object
p2809
(dp2810
g5
S'973331237820493826'
p2811
sg7
S'79'
p2812
sg9
S'https://t.co/AioYEEokkn'
p2813
sg11
g17
sba(iObject
Object
p2814
(dp2815
g5
S'973331130484076545'
p2816
sg7
S'76'
p2817
sg9
S'https://t.co/l0LW180dLb'
p2818
sg11
g12
sba(iObject
Object
p2819
(dp2820
g5
S'973330250514907136'
p2821
sg7
S'73'
p2822
sg9
S'https://t.co/myaiOJbBSs'
p2823
sg11
g12
sba(iObject
Object
p2824
(dp2825
g5
S'973330109376577537'
p2826
sg7
S'76'
p2827
sg9
S'https://t.co/sm6dVb3xkj'
p2828
sg11
g12
sba(iObject
Object
p2829
(dp2830
g5
S'972849436152836097'
p2831
sg7
S'58'
p2832
sg9
S'https://t.co/us92ClRoEJ'
p2833
sg11
g12
sba(iObject
Object
p2834
(dp2835
g5
S'972849149669384194'
p2836
sg7
S'58'
p2837
sg9
S'https://t.co/1jwZ6px6No'
p2838
sg11
g12
sba(iObject
Object
p2839
(dp2840
g5
S'972848585942351873'
p2841
sg7
S'58'
p2842
sg9
S'https://t.co/8pGeEHJ4I2'
p2843
sg11
g12
sba(iObject
Object
p2844
(dp2845
g5
S'972100190059425793'
p2846
sg7
S'51'
p2847
sg9
S'https://t.co/1TRJToWDDM'
p2848
sg11
g12
sba(iObject
Object
p2849
(dp2850
g5
S'972100025487564800'
p2851
sg7
S'49'
p2852
sg9
S'https://t.co/BVyarDB13N'
p2853
sg11
g12
sba(iObject
Object
p2854
(dp2855
g5
S'972099337936289792'
p2856
sg7
S'49'
p2857
sg9
S'https://t.co/cgJEMNYhCm'
p2858
sg11
g12
sba(iObject
Object
p2859
(dp2860
g5
S'972099204377030658'
p2861
sg7
S'45'
p2862
sg9
S'https://t.co/kBNLubU5bb'
p2863
sg11
g17
sba(iObject
Object
p2864
(dp2865
g5
S'972097601985130497'
p2866
sg7
S'47'
p2867
sg9
S'https://t.co/kvKbvZshA1'
p2868
sg11
g12
sba(iObject
Object
p2869
(dp2870
g5
S'972097472469245953'
p2871
sg7
S'59'
p2872
sg9
S'https://t.co/rineniyz77'
p2873
sg11
g12
sba(iObject
Object
p2874
(dp2875
g5
S'972092235532546049'
p2876
sg7
S'56'
p2877
sg9
S'https://t.co/HoXly1bV9O'
p2878
sg11
g17
sba(iObject
Object
p2879
(dp2880
g5
S'972092137230577666'
p2881
sg7
S'52'
p2882
sg9
S'https://t.co/L9ac9XXf0x'
p2883
sg11
g12
sba(iObject
Object
p2884
(dp2885
g5
S'972091232074719232'
p2886
sg7
S'52'
p2887
sg9
S'https://t.co/ArsAXsTNA3'
p2888
sg11
g12
sba(iObject
Object
p2889
(dp2890
g5
S'972091101858316291'
p2891
sg7
S'54'
p2892
sg9
S'https://t.co/qLUqszWMxo'
p2893
sg11
g12
sba(iObject
Object
p2894
(dp2895
g5
S'972090271558025216'
p2896
sg7
S'51'
p2897
sg9
S'https://t.co/GPrgzHaKK2'
p2898
sg11
g12
sba(iObject
Object
p2899
(dp2900
g5
S'972090159347908610'
p2901
sg7
S'51'
p2902
sg9
S'https://t.co/F6GkXdfikJ'
p2903
sg11
g17
sba(iObject
Object
p2904
(dp2905
g5
S'972085578522017793'
p2906
sg7
S'46'
p2907
sg9
S'https://t.co/PmZmUyPy5b'
p2908
sg11
g12
sba(iObject
Object
p2909
(dp2910
g5
S'972085394241069058'
p2911
sg7
S'44'
p2912
sg9
S'https://t.co/VYQ4IHuO9N'
p2913
sg11
g12
sba(iObject
Object
p2914
(dp2915
g5
S'972083304009625600'
p2916
sg7
S'51'
p2917
sg9
S'https://t.co/Ixxxp13057'
p2918
sg11
g17
sba(iObject
Object
p2919
(dp2920
g5
S'972083182202896384'
p2921
sg7
S'57'
p2922
sg9
S'https://t.co/vo7PZDsVrv'
p2923
sg11
g8
sba(iObject
Object
p2924
(dp2925
g5
S'972083062753275904'
p2926
sg7
S'56'
p2927
sg9
S'https://t.co/UrXxlf7imf'
p2928
sg11
g12
sba(iObject
Object
p2929
(dp2930
g5
S'972079912394739714'
p2931
sg7
S'49'
p2932
sg9
S'https://t.co/uNK3C15gIh'
p2933
sg11
g12
sba(iObject
Object
p2934
(dp2935
g5
S'972079733415411712'
p2936
sg7
S'59'
p2937
sg9
S'https://t.co/tNbzofEl2o'
p2938
sg11
g12
sba(iObject
Object
p2939
(dp2940
g5
S'972079442615975936'
p2941
sg7
S'50'
p2942
sg9
S'https://t.co/MlpeZE451o'
p2943
sg11
g17
sba(iObject
Object
p2944
(dp2945
g5
S'972079305084747776'
p2946
sg7
S'55'
p2947
sg9
S'https://t.co/mUhykM4NcI'
p2948
sg11
g12
sba(iObject
Object
p2949
(dp2950
g5
S'972077946377613314'
p2951
sg7
S'53'
p2952
sg9
S'https://t.co/wexoZIC5mn'
p2953
sg11
g12
sba(iObject
Object
p2954
(dp2955
g5
S'972077797265952768'
p2956
sg7
S'40'
p2957
sg9
S'https://t.co/V4V3IRENBf'
p2958
sg11
g12
sba(iObject
Object
p2959
(dp2960
g5
S'971049163231084546'
p2961
sg7
S'65'
p2962
sg9
S'https://t.co/BeS4ZUvuc3'
p2963
sg11
g8
sba(iObject
Object
p2964
(dp2965
g5
S'971049001024864256'
p2966
sg7
S'60'
p2967
sg9
S'https://t.co/uxWBLXeNj1'
p2968
sg11
g12
sba(iObject
Object
p2969
(dp2970
g5
S'971047882349469696'
p2971
sg7
S'64'
p2972
sg9
S'https://t.co/KCiRIQASz9'
p2973
sg11
g12
sba(iObject
Object
p2974
(dp2975
g5
S'971047704527695873'
p2976
sg7
S'66'
p2977
sg9
S'https://t.co/hGtvkVlhFM'
p2978
sg11
g12
sba(iObject
Object
p2979
(dp2980
g5
S'971042808705568770'
p2981
sg7
S'61'
p2982
sg9
S'https://t.co/ZhgxUdKsvr'
p2983
sg11
g12
sba(iObject
Object
p2984
(dp2985
g5
S'971042665776209921'
p2986
sg7
S'65'
p2987
sg9
S'https://t.co/EsJjof7w6M'
p2988
sg11
g8
sba(iObject
Object
p2989
(dp2990
g5
S'971041902651936769'
p2991
sg7
S'63'
p2992
sg9
S'https://t.co/UwHZAt3AHo'
p2993
sg11
g12
sba(iObject
Object
p2994
(dp2995
g5
S'971041780073459714'
p2996
sg7
S'69'
p2997
sg9
S'https://t.co/qwZRP7YHti'
p2998
sg11
g12
sba(iObject
Object
p2999
(dp3000
g5
S'970981534059528198'
p3001
sg7
S'88'
p3002
sg9
S'https://t.co/1GPkz7Hox4'
p3003
sg11
g12
sba(iObject
Object
p3004
(dp3005
g5
S'970981176935514112'
p3006
sg7
S'85'
p3007
sg9
S'https://t.co/pTExFYKWZg'
p3008
sg11
g12
sba(iObject
Object
p3009
(dp3010
g5
S'970980707634790400'
p3011
sg7
S'90'
p3012
sg9
S'https://t.co/cBZjmDgnhG'
p3013
sg11
g17
sba(iObject
Object
p3014
(dp3015
g5
S'970979387498668032'
p3016
sg7
S'123'
p3017
sg9
S'https://t.co/TN4OtyNtLA'
p3018
sg11
g17
sba(iObject
Object
p3019
(dp3020
g5
S'970978644511240192'
p3021
sg7
S'58'
p3022
sg9
S'https://t.co/a9m8cVKVda'
p3023
sg11
g12
sba(iObject
Object
p3024
(dp3025
g5
S'970976953724366848'
p3026
sg7
S'70'
p3027
sg9
S'https://t.co/7a7OOjSPgI'
p3028
sg11
g12
sba(iObject
Object
p3029
(dp3030
g5
S'970975979521757184'
p3031
sg7
S'67'
p3032
sg9
S'https://t.co/5P4QQQ5pjx'
p3033
sg11
g12
sba(iObject
Object
p3034
(dp3035
g5
S'970974213514276864'
p3036
sg7
S'32'
p3037
sg9
S'https://t.co/nRem3dcoSZ'
p3038
sg11
g12
sba(iObject
Object
p3039
(dp3040
g5
S'970973863528906752'
p3041
sg7
S'25'
p3042
sg9
S'https://t.co/lrGLWljV7c'
p3043
sg11
g17
sba(iObject
Object
p3044
(dp3045
g5
S'970969285324562433'
p3046
sg7
S'32'
p3047
sg9
S'https://t.co/umlSnZiyMg'
p3048
sg11
g8
sba(iObject
Object
p3049
(dp3050
g5
S'970969077890953216'
p3051
sg7
S'30'
p3052
sg9
S'https://t.co/LnarhzD5e4'
p3053
sg11
g12
sba(iObject
Object
p3054
(dp3055
g5
S'970968808939601920'
p3056
sg7
S'235'
p3057
sg9
S'https://t.co/wFUYJJ7Boc'
p3058
sg11
g17
sba(iObject
Object
p3059
(dp3060
g5
S'969111504602542080'
p3061
sg7
S'63'
p3062
sg9
S'https://t.co/Ien4BzhiPv'
p3063
sg11
g17
sba(iObject
Object
p3064
(dp3065
g5
S'969111363544014849'
p3066
sg7
S'70'
p3067
sg9
S'https://t.co/rZtbpT84WK'
p3068
sg11
g8
sba(iObject
Object
p3069
(dp3070
g5
S'969108706615951360'
p3071
sg7
S'64'
p3072
sg9
S'https://t.co/yU4RTkeZoG'
p3073
sg11
g17
sba(iObject
Object
p3074
(dp3075
g5
S'969108559446228995'
p3076
sg7
S'61'
p3077
sg9
S'https://t.co/xBYDQYW8eq'
p3078
sg11
g12
sba(iObject
Object
p3079
(dp3080
g5
S'969106907544694784'
p3081
sg7
S'55'
p3082
sg9
S'https://t.co/XUqiX3ZzDg'
p3083
sg11
g12
sba(iObject
Object
p3084
(dp3085
g5
S'969106716808773632'
p3086
sg7
S'62'
p3087
sg9
S'https://t.co/pjl4ZowrwC'
p3088
sg11
g12
sba(iObject
Object
p3089
(dp3090
g5
S'969104192815079425'
p3091
sg7
S'64'
p3092
sg9
S'https://t.co/bpF5J3K8gy'
p3093
sg11
g12
sba(iObject
Object
p3094
(dp3095
g5
S'969104074950950912'
p3096
sg7
S'67'
p3097
sg9
S'https://t.co/GalmlXDFAI'
p3098
sg11
g12
sba(iObject
Object
p3099
(dp3100
g5
S'968436448452997121'
p3101
sg7
S'154'
p3102
sg9
S'https://t.co/Xc1C7VVBmN'
p3103
sg11
g620
sba(iObject
Object
p3104
(dp3105
g5
S'968435757449801728'
p3106
sg7
S'55'
p3107
sg9
S'https://t.co/DRelgLPc3g'
p3108
sg11
g12
sba(iObject
Object
p3109
(dp3110
g5
S'968432962344595457'
p3111
sg7
S'284'
p3112
sg9
S'https://t.co/S6kxYEdcgx'
p3113
sg11
g8
sba(iObject
Object
p3114
(dp3115
g5
S'968432457610444800'
p3116
sg7
S'291'
p3117
sg9
S'https://t.co/OaoZl6sajA'
p3118
sg11
S'12'
p3119
sba(iObject
Object
p3120
(dp3121
g5
S'967803794368036864'
p3122
sg7
g12
sg9
S'https://t.co/e8cMyj02pZ'
p3123
sg11
g17
sba(iObject
Object
p3124
(dp3125
g5
S'967803442570801152'
p3126
sg7
g17
sg9
S'https://t.co/4snS0tFW59'
p3127
sg11
g12
sba(iObject
Object
p3128
(dp3129
g5
S'967803046221701120'
p3130
sg7
g12
sg9
S'https://t.co/3pKftb38BY'
p3131
sg11
g12
sba(iObject
Object
p3132
(dp3133
g5
S'967802892227784704'
p3134
sg7
g12
sg9
S'https://t.co/sds3fANiww'
p3135
sg11
g12
sba(iObject
Object
p3136
(dp3137
g5
S'967801779084607488'
p3138
sg7
g12
sg9
S'https://t.co/msl4QPVxiR'
p3139
sg11
g12
sba(iObject
Object
p3140
(dp3141
g5
S'967801627636727808'
p3142
sg7
g12
sg9
S'https://t.co/iWpbL8Utjk'
p3143
sg11
g12
sba(iObject
Object
p3144
(dp3145
g5
S'967799859100053504'
p3146
sg7
g12
sg9
S'https://t.co/awIyBczbrI'
p3147
sg11
g12
sba(iObject
Object
p3148
(dp3149
g5
S'967799735049371648'
p3150
sg7
g17
sg9
S'https://t.co/BwRVqx8Jo8'
p3151
sg11
g12
sba(iObject
Object
p3152
(dp3153
g5
S'966421115005358080'
p3154
sg7
S'146'
p3155
sg9
S'https://t.co/HaPqKHBt85'
p3156
sg11
g12
sba(iObject
Object
p3157
(dp3158
g5
S'966420793361014784'
p3159
sg7
S'57'
p3160
sg9
S'https://t.co/GCSIbr4a7f'
p3161
sg11
g12
sba(iObject
Object
p3162
(dp3163
g5
S'966420531741274112'
p3164
sg7
S'25'
p3165
sg9
S'https://t.co/f9ZxoG9G9P'
p3166
sg11
g12
sba(iObject
Object
p3167
(dp3168
g5
S'966420281303605248'
p3169
sg7
S'40'
p3170
sg9
S'https://t.co/Gyer5kjcLs'
p3171
sg11
g12
sba(iObject
Object
p3172
(dp3173
g5
S'966419820236357632'
p3174
sg7
S'144'
p3175
sg9
S'https://t.co/8LPtxekh3M'
p3176
sg11
g176
sba(iObject
Object
p3177
(dp3178
g5
S'965286397622984704'
p3179
sg7
S'91'
p3180
sg9
S'https://t.co/ibYWC7B2Hb'
p3181
sg11
g12
sba(iObject
Object
p3182
(dp3183
g5
S'965286176222363649'
p3184
sg7
S'330'
p3185
sg9
S'https://t.co/0km5P7Hmsm'
p3186
sg11
g12
sba(iObject
Object
p3187
(dp3188
g5
S'965285569877061632'
p3189
sg7
S'158'
p3190
sg9
S'https://t.co/gFJDcpYGWv'
p3191
sg11
g12
sba(iObject
Object
p3192
(dp3193
g5
S'964259176137482240'
p3194
sg7
S'64'
p3195
sg9
S'https://t.co/XON90lZ9x5'
p3196
sg11
g8
sba(iObject
Object
p3197
(dp3198
g5
S'964258621293916160'
p3199
sg7
S'83'
p3200
sg9
S'https://t.co/mlc0S5P3Jd'
p3201
sg11
g17
sba(iObject
Object
p3202
(dp3203
g5
S'964258487243911168'
p3204
sg7
S'81'
p3205
sg9
S'https://t.co/bn9KaS0gZh'
p3206
sg11
g12
sba(iObject
Object
p3207
(dp3208
g5
S'964255952210870272'
p3209
sg7
S'64'
p3210
sg9
S'https://t.co/nNobgKbZOQ'
p3211
sg11
g17
sba(iObject
Object
p3212
(dp3213
g5
S'964255827749056512'
p3214
sg7
S'82'
p3215
sg9
S'https://t.co/BmcHgJwkPE'
p3216
sg11
g17
sba(iObject
Object
p3217
(dp3218
g5
S'964253247417458688'
p3219
sg7
S'73'
p3220
sg9
S'https://t.co/h8A9CSeCyK'
p3221
sg11
g17
sba(iObject
Object
p3222
(dp3223
g5
S'964253129016451072'
p3224
sg7
S'62'
p3225
sg9
S'https://t.co/xWXwMIxGbj'
p3226
sg11
g12
sba(iObject
Object
p3227
(dp3228
g5
S'964111612847124481'
p3229
sg7
S'68'
p3230
sg9
S'https://t.co/3cbI7NYQwA'
p3231
sg11
g12
sba(iObject
Object
p3232
(dp3233
g5
S'964111465014738945'
p3234
sg7
S'58'
p3235
sg9
S'https://t.co/TsB6ZM5sHa'
p3236
sg11
g17
sba(iObject
Object
p3237
(dp3238
g5
S'964106645461610498'
p3239
sg7
S'61'
p3240
sg9
S'https://t.co/LfdgvmzLZw'
p3241
sg11
g12
sba(iObject
Object
p3242
(dp3243
g5
S'964106531858821120'
p3244
sg7
S'60'
p3245
sg9
S'https://t.co/httYoZQQqf'
p3246
sg11
g12
sba(iObject
Object
p3247
(dp3248
g5
S'964102679998775296'
p3249
sg7
S'68'
p3250
sg9
S'https://t.co/KBNCLMR4px'
p3251
sg11
g12
sba(iObject
Object
p3252
(dp3253
g5
S'964102464201830401'
p3254
sg7
S'57'
p3255
sg9
S'https://t.co/RlgawlmBHW'
p3256
sg11
g12
sba(iObject
Object
p3257
(dp3258
g5
S'964095143790886912'
p3259
sg7
S'69'
p3260
sg9
S'https://t.co/AFUb4MQi3D'
p3261
sg11
g12
sba(iObject
Object
p3262
(dp3263
g5
S'964095008079925249'
p3264
sg7
S'50'
p3265
sg9
S'https://t.co/IVS4wAT5kg'
p3266
sg11
g12
sba(iObject
Object
p3267
(dp3268
g5
S'963489281850277889'
p3269
sg7
S'178'
p3270
sg9
S'https://t.co/Ppv846XlM7'
p3271
sg11
g17
sba(iObject
Object
p3272
(dp3273
g5
S'963488455127793664'
p3274
sg7
S'21'
p3275
sg9
S'https://t.co/NCcl6O2ldL'
p3276
sg11
g12
sba(iObject
Object
p3277
(dp3278
g5
S'963487944647438337'
p3279
sg7
S'27'
p3280
sg9
S'https://t.co/lf4GWfiIuR'
p3281
sg11
g12
sba(iObject
Object
p3282
(dp3283
g5
S'963487774413221888'
p3284
sg7
S'75'
p3285
sg9
S'https://t.co/hW0NqvWvEA'
p3286
sg11
g12
sba(iObject
Object
p3287
(dp3288
g5
S'963487426336342016'
p3289
sg7
S'65'
p3290
sg9
S'https://t.co/8Sj6UPucM8'
p3291
sg11
g12
sba(iObject
Object
p3292
(dp3293
g5
S'962752497470205952'
p3294
sg7
g12
sg9
S'https://t.co/8WABwwHQlT'
p3295
sg11
g12
sba(iObject
Object
p3296
(dp3297
g5
S'962752359750287361'
p3298
sg7
g12
sg9
S'https://t.co/DwnVCLhbx6'
p3299
sg11
g12
sba(iObject
Object
p3300
(dp3301
g5
S'962752146650275840'
p3302
sg7
g12
sg9
S'https://t.co/UVARxYHbTt'
p3303
sg11
g12
sba(iObject
Object
p3304
(dp3305
g5
S'962751473686740992'
p3306
sg7
g12
sg9
S'https://t.co/DsDChbDcOa'
p3307
sg11
g12
sba(iObject
Object
p3308
(dp3309
g5
S'962750314767040512'
p3310
sg7
g12
sg9
S'https://t.co/WnKPAwpesD'
p3311
sg11
g12
sba(iObject
Object
p3312
(dp3313
g5
S'962749974910939136'
p3314
sg7
g12
sg9
S'https://t.co/kWGmEXp57s'
p3315
sg11
g12
sba(iObject
Object
p3316
(dp3317
g5
S'962749473138008064'
p3318
sg7
g12
sg9
S'https://t.co/Gf6Nvkz40P'
p3319
sg11
g12
sba(iObject
Object
p3320
(dp3321
g5
S'962749334025486336'
p3322
sg7
g12
sg9
S'https://t.co/vG91qSl0lg'
p3323
sg11
g12
sba(iObject
Object
p3324
(dp3325
g5
S'962731669357645824'
p3326
sg7
S'63'
p3327
sg9
S'https://t.co/bRio77qJEa'
p3328
sg11
g176
sba(iObject
Object
p3329
(dp3330
g5
S'962731540093403137'
p3331
sg7
S'56'
p3332
sg9
S'https://t.co/lsJmZb67ts'
p3333
sg11
g12
sba(iObject
Object
p3334
(dp3335
g5
S'962727379566080000'
p3336
sg7
S'58'
p3337
sg9
S'https://t.co/EVpGaX4222'
p3338
sg11
g12
sba(iObject
Object
p3339
(dp3340
g5
S'962727097767665665'
p3341
sg7
S'61'
p3342
sg9
S'https://t.co/ckYjCSP5ov'
p3343
sg11
g12
sba(iObject
Object
p3344
(dp3345
g5
S'962726945774383106'
p3346
sg7
S'59'
p3347
sg9
S'https://t.co/QeHIZc5mBx'
p3348
sg11
g12
sba(iObject
Object
p3349
(dp3350
g5
S'962719289152163840'
p3351
sg7
S'56'
p3352
sg9
S'https://t.co/IumRw7hFNX'
p3353
sg11
g12
sba(iObject
Object
p3354
(dp3355
g5
S'962719076744273920'
p3356
sg7
S'62'
p3357
sg9
S'https://t.co/V1PBJ8Cbrz'
p3358
sg11
g12
sba(iObject
Object
p3359
(dp3360
g5
S'961654328124690433'
p3361
sg7
S'66'
p3362
sg9
S'https://t.co/T2Q3GUBuLV'
p3363
sg11
g12
sba(iObject
Object
p3364
(dp3365
g5
S'961652470018596864'
p3366
sg7
S'55'
p3367
sg9
S'https://t.co/gGABc4vOA3'
p3368
sg11
g17
sba(iObject
Object
p3369
(dp3370
g5
S'961652032045121537'
p3371
sg7
S'58'
p3372
sg9
S'https://t.co/6RihLNy0Yk'
p3373
sg11
g12
sba(iObject
Object
p3374
(dp3375
g5
S'961639168001556480'
p3376
sg7
S'54'
p3377
sg9
S'https://t.co/0dvjFPUXEF'
p3378
sg11
g12
sba(iObject
Object
p3379
(dp3380
g5
S'961637918501568512'
p3381
sg7
S'60'
p3382
sg9
S'https://t.co/zoPPRx557c'
p3383
sg11
g12
sba(iObject
Object
p3384
(dp3385
g5
S'961632828147380225'
p3386
sg7
S'58'
p3387
sg9
S'https://t.co/RGcT1nUKIV'
p3388
sg11
g17
sba(iObject
Object
p3389
(dp3390
g5
S'961631856188801024'
p3391
sg7
S'59'
p3392
sg9
S'https://t.co/OSC3eQi4Ta'
p3393
sg11
g12
sba(iObject
Object
p3394
(dp3395
g5
S'961630971928879105'
p3396
sg7
S'68'
p3397
sg9
S'https://t.co/pKP3JRwk4P'
p3398
sg11
g17
sba(iObject
Object
p3399
(dp3400
g5
S'961149139785535488'
p3401
sg7
g17
sg9
S'https://t.co/7WQs3fKKep'
p3402
sg11
g12
sba(iObject
Object
p3403
(dp3404
g5
S'960933435043819520'
p3405
sg7
g12
sg9
S'New York Medical Malpractice Lawyer\n\nhttps://t.co/lPlDXj4N16'
p3406
sg11
g12
sba(iObject
Object
p3407
(dp3408
g5
S'960933206013788160'
p3409
sg7
g17
sg9
S'https://t.co/jS6BgDOayx'
p3410
sg11
g12
sba(iObject
Object
p3411
(dp3412
g5
S'960932897828950017'
p3413
sg7
g12
sg9
S'https://t.co/FNv1PfJar4'
p3414
sg11
g12
sba(iObject
Object
p3415
(dp3416
g5
S'960932764932427776'
p3417
sg7
g12
sg9
S'The Best Legal Fat Burner\n\nhttps://t.co/0km5P7Hmsm'
p3418
sg11
g12
sba(iObject
Object
p3419
(dp3420
g5
S'960415868541845505'
p3421
sg7
S'55'
p3422
sg9
S'https://t.co/td4UbyUpDu'
p3423
sg11
g12
sba(iObject
Object
p3424
(dp3425
g5
S'960184426763231232'
p3426
sg7
S'57'
p3427
sg9
S'https://t.co/NuG1kfn7qx'
p3428
sg11
g12
sba(iObject
Object
p3429
(dp3430
g5
S'960184297926705153'
p3431
sg7
S'64'
p3432
sg9
S'https://t.co/UfmdszkiGd'
p3433
sg11
g12
sba(iObject
Object
p3434
(dp3435
g5
S'960184160479412224'
p3436
sg7
S'41'
p3437
sg9
S'https://t.co/rPfYZPlFCd'
p3438
sg11
g12
sba(iObject
Object
p3439
(dp3440
g5
S'960165349558648832'
p3441
sg7
S'50'
p3442
sg9
S'https://t.co/4Qf5EqITDt'
p3443
sg11
g12
sba(iObject
Object
p3444
(dp3445
g5
S'960165205895360512'
p3446
sg7
S'46'
p3447
sg9
S'https://t.co/oJPGVrMSfN'
p3448
sg11
g12
sba(iObject
Object
p3449
(dp3450
g5
S'960164993558724608'
p3451
sg7
S'45'
p3452
sg9
S'https://t.co/VHYXsbfKU6'
p3453
sg11
g12
sba(iObject
Object
p3454
(dp3455
g5
S'958307230838763521'
p3456
sg7
S'10'
p3457
sg9
S'https://t.co/LpXmb96idI'
p3458
sg11
g12
sba(iObject
Object
p3459
(dp3460
g5
S'958307105965948933'
p3461
sg7
S'64'
p3462
sg9
S'https://t.co/fDqGS8HvBQ'
p3463
sg11
g17
sba(iObject
Object
p3464
(dp3465
g5
S'957230311078637568'
p3466
sg7
S'17'
p3467
sg9
S'https://t.co/lu7gCM6Z9c'
p3468
sg11
g12
sba(iObject
Object
p3469
(dp3470
g5
S'957230192115593216'
p3471
sg7
S'20'
p3472
sg9
S'https://t.co/Zdx1C9M9XG'
p3473
sg11
g12
sba(iObject
Object
p3474
(dp3475
g5
S'957227606956392449'
p3476
sg7
S'18'
p3477
sg9
S'https://t.co/npXiEE3Rp0'
p3478
sg11
g12
sba(iObject
Object
p3479
(dp3480
g5
S'957227468267520000'
p3481
sg7
S'20'
p3482
sg9
S'https://t.co/3sLktBkCfU'
p3483
sg11
g12
sba(iObject
Object
p3484
(dp3485
g5
S'957227303401963521'
p3486
sg7
S'19'
p3487
sg9
S'https://t.co/P9GjzGVJt4'
p3488
sg11
g12
sba(iObject
Object
p3489
(dp3490
g5
S'957226020129538048'
p3491
sg7
S'12'
p3492
sg9
S'https://t.co/JrvZ0JOXRg'
p3493
sg11
g12
sba(iObject
Object
p3494
(dp3495
g5
S'957225892593332224'
p3496
sg7
S'13'
p3497
sg9
S'https://t.co/X9hYyBRYzb'
p3498
sg11
g12
sba(iObject
Object
p3499
(dp3500
g5
S'957215502161428481'
p3501
sg7
S'18'
p3502
sg9
S'https://t.co/da2prFGB4C'
p3503
sg11
g17
sba(iObject
Object
p3504
(dp3505
g5
S'957215358229737473'
p3506
sg7
S'15'
p3507
sg9
S'https://t.co/nVCg0wF1Rt'
p3508
sg11
g12
sba(iObject
Object
p3509
(dp3510
g5
S'957214466688483328'
p3511
sg7
S'13'
p3512
sg9
S'https://t.co/NdIeKK2h17'
p3513
sg11
g12
sba(iObject
Object
p3514
(dp3515
g5
S'957214247729094662'
p3516
sg7
S'14'
p3517
sg9
S'https://t.co/IgSmjzWRSC'
p3518
sg11
g12
sba(iObject
Object
p3519
(dp3520
g5
S'956916371555692544'
p3521
sg7
g1545
sg9
S'https://t.co/8lm57zkvX6'
p3522
sg11
g12
sba(iObject
Object
p3523
(dp3524
g5
S'956916224188809216'
p3525
sg7
S'10'
p3526
sg9
S'https://t.co/fJTso82EJ6'
p3527
sg11
g12
sba(iObject
Object
p3528
(dp3529
g5
S'956916073441378310'
p3530
sg7
S'12'
p3531
sg9
S'https://t.co/LHHv7wagqc'
p3532
sg11
g12
sba(iObject
Object
p3533
(dp3534
g5
S'956915929778040833'
p3535
sg7
g65
sg9
S'https://t.co/HOy267CNp7'
p3536
sg11
g12
sba(iObject
Object
p3537
(dp3538
g5
S'956282405098217473'
p3539
sg7
g17
sg9
S'testing app'
p3540
sg11
g12
sba(iObject
Object
p3541
(dp3542
g5
S'956250378298888192'
p3543
sg7
S'10'
p3544
sg9
S"RT @timesofindia: Pope condemns 'evil' of fake news and its use for political gain https://t.co/JJEbfV3OdS via @TOIWorld https://t.co/oHokB..."
p3545
sg11
g12
sba(iObject
Object
p3546
(dp3547
g5
S'956236932601778178'
p3548
sg7
S'427'
p3549
sg9
S'RT @priyankachopra: Baby...this is what u came for.. lighting strikes every time she moves.. everybodys watching her.. but shes looking a...'
p3550
sg11
g12
sba(iObject
Object
p3551
(dp3552
g5
S'956184403461382144'
p3553
sg7
S'49'
p3554
sg9
S'https://t.co/E08ACKoJoh'
p3555
sg11
g12
sba(iObject
Object
p3556
(dp3557
g5
S'956066846070984704'
p3558
sg7
g278
sg9
S'https://t.co/TppymNZ2NO'
p3559
sg11
g12
sba(iObject
Object
p3560
(dp3561
g5
S'956066537613463552'
p3562
sg7
g278
sg9
S'auto extended warranty\n\nhttps://t.co/YrPUVd9YuT'
p3563
sg11
g12
sba(iObject
Object
p3564
(dp3565
g5
S'956066346722357248'
p3566
sg7
g80
sg9
S'extended car warranty\n\nhttps://t.co/YrPUVd9YuT'
p3567
sg11
g12
sba(iObject
Object
p3568
(dp3569
g5
S'956066163452268545'
p3570
sg7
S'18'
p3571
sg9
S'car warranty\n\nhttps://t.co/YrPUVd9YuT'
p3572
sg11
g12
sba(iObject
Object
p3573
(dp3574
g5
S'955854764914360320'
p3575
sg7
S'76'
p3576
sg9
S'https://t.co/jiX4XcAE3l'
p3577
sg11
g12
sba(iObject
Object
p3578
(dp3579
g5
S'955853671698329600'
p3580
sg7
S'78'
p3581
sg9
S'https://t.co/23jNNIuI0Z'
p3582
sg11
g17
sba(iObject
Object
p3583
(dp3584
g5
S'955853318781218816'
p3585
sg7
S'74'
p3586
sg9
S'https://t.co/ZYjBMS5WRH'
p3587
sg11
g12
sba(iObject
Object
p3588
(dp3589
g5
S'955852565618413568'
p3590
sg7
S'74'
p3591
sg9
S'https://t.co/gpZ8ciFvAe'
p3592
sg11
g12
sba(iObject
Object
p3593
(dp3594
g5
S'955852443287404544'
p3595
sg7
S'75'
p3596
sg9
S'https://t.co/hMbaFvlO0A'
p3597
sg11
g12
sba(iObject
Object
p3598
(dp3599
g5
S'955822201403408384'
p3600
sg7
S'75'
p3601
sg9
S'https://t.co/lLwYENXVaJ'
p3602
sg11
g12
sba(iObject
Object
p3603
(dp3604
g5
S'955806312838787072'
p3605
sg7
S'78'
p3606
sg9
S'https://t.co/lqPO7uJfLQ'
p3607
sg11
g12
sba(iObject
Object
p3608
(dp3609
g5
S'955804128915070976'
p3610
sg7
S'75'
p3611
sg9
S'https://t.co/2oN1u0Rd79'
p3612
sg11
g12
sba(iObject
Object
p3613
(dp3614
g5
S'955803679910641664'
p3615
sg7
S'79'
p3616
sg9
S'https://t.co/VleNa9sYJN'
p3617
sg11
g12
sba(iObject
Object
p3618
(dp3619
g5
S'955803420765507584'
p3620
sg7
S'75'
p3621
sg9
S'https://t.co/WbTtjQbRs8'
p3622
sg11
g12
sba(iObject
Object
p3623
(dp3624
g5
S'955802124884967424'
p3625
sg7
S'77'
p3626
sg9
S'https://t.co/WqcWM8a1JV'
p3627
sg11
g12
sba(iObject
Object
p3628
(dp3629
g5
S'955801376113623040'
p3630
sg7
S'81'
p3631
sg9
S'https://t.co/KGwR67gkRY'
p3632
sg11
g12
sba(iObject
Object
p3633
(dp3634
g5
S'955800543271698433'
p3635
sg7
S'75'
p3636
sg9
S'https://t.co/qLUqszWMxo'
p3637
sg11
g8
sba(iObject
Object
p3638
(dp3639
g5
S'955797187232808960'
p3640
sg7
S'80'
p3641
sg9
S'https://t.co/uNK3C15gIh'
p3642
sg11
g12
sba(iObject
Object
p3643
(dp3644
g5
S'955796614718791682'
p3645
sg7
S'76'
p3646
sg9
S'https://t.co/zyYzFuxkHE'
p3647
sg11
g12
sba(iObject
Object
p3648
(dp3649
g5
S'955795649097752578'
p3650
sg7
S'76'
p3651
sg9
S'https://t.co/l6yOQGUO78'
p3652
sg11
g17
sba(iObject
Object
p3653
(dp3654
g5
S'955791125297618944'
p3655
sg7
S'67'
p3656
sg9
S'https://t.co/7ZP8XlRkM1'
p3657
sg11
g12
sba(iObject
Object
p3658
(dp3659
g5
S'955790540414398465'
p3660
sg7
S'69'
p3661
sg9
S'https://t.co/F6GkXdfikJ'
p3662
sg11
g12
sba(iObject
Object
p3663
(dp3664
g5
S'955786504990687232'
p3665
sg7
S'69'
p3666
sg9
S'https://t.co/kS1toiVu6i'
p3667
sg11
g12
sba(iObject
Object
p3668
(dp3669
g5
S'955785959764733952'
p3670
sg7
S'77'
p3671
sg9
S'https://t.co/vo7PZDsVrv'
p3672
sg11
g12
sba(iObject
Object
p3673
(dp3674
g5
S'955785571477078017'
p3675
sg7
S'74'
p3676
sg9
S'https://t.co/UrXxlf7imf'
p3677
sg11
g12
sba(iObject
Object
p3678
(dp3679
g5
S'955784266012540928'
p3680
sg7
S'76'
p3681
sg9
S'https://t.co/wGXcmz4VC0'
p3682
sg11
g12
sba(iObject
Object
p3683
(dp3684
g5
S'955783640125906944'
p3685
sg7
S'72'
p3686
sg9
S'https://t.co/tOegozqFxX'
p3687
sg11
g12
sbas.