(dp0
I0
(lp1
Vml
p2
aVstay
p3
aVmake
p4
aVservice
p5
aVgamingfront
p6
aVaccepted
p7
aVearly
p8
aVvastratex2017
p9
aVdelhi
p10
aVwant
p11
asI1
(lp12
Vproud
p13
aVsocial
p14
aVwinner
p15
aVnice
p16
aVagrawalamod
p17
aVmaking
p18
aVtweet
p19
aVusing
p20
aVinformation
p21
aV10
p22
asI2
(lp23
Vfriends
p24
aVinteresting
p25
aVcomputer
p26
aVversion
p27
aVdeepmind
p28
aVvision
p29
aVphd
p30
aVtrue
p31
aVreal
p32
aVglobal
p33
asI3
(lp34
Vle
p35
aVinternet
p36
aVnoticiavigilante
p37
aVmeredithter
p38
aVlearn
p39
aVtell
p40
aVht
p41
aVmiss
p42
aVgetting
p43
aVintelligence
p44
asI4
(lp45
Vway
p46
aVwow
p47
aVbest
p48
ag42
aVplace
p49
aVtendswiss
p50
aVapp
p51
aVretweet
p52
aVschool
p53
aVindia
p54
asI5
(lp55
Veth
p56
aVattention
p57
aVbetter
p58
aVnet
p59
aVmillion
p60
aVyesterday
p61
ag5
aVannounce
p62
aVdoing
p63
aVslides
p64
asI6
(lp65
Vshows
p66
aVfuture
p67
ag43
aVnetworks
p68
aVavailable
p69
aVsuccess
p70
aVteam
p71
aVinfo
p72
aVstudent
p73
aVwebsite
p74
asI7
(lp75
Vpaper
p76
aVgame
p77
aV2018
p78
aVimage
p79
aVaccount
p80
aVinterview
p81
aVcommunity
p82
aVgt
p83
aVimportant
p84
aVcompetition
p85
asI8
(lp86
Vblockchain
p87
aVdanrobson
p88
aVponguru
p89
aVwish
p90
aVll
p91
aVanswer
p92
ag76
ag19
aVeasy
p93
aVcommon
p94
asI9
(lp95
Val
p96
aVlive
p97
aVposter
p98
aVtutorial
p99
aVdeepmindai
p100
aVmodels
p101
ag8
ag60
aVready
p102
aVarxiv
p103
asI10
(lp104
Vhttps
p105
ag42
aVlearning
p106
aVpresenting
p107
aVpublic
p108
aVmicrosoft
p109
ag71
ag97
aVdon
p110
aVlevel
p111
asI11
(lp112
Vyoutube
p113
aVwrite
p114
aVwin
p115
aVapply
p116
aVvisit
p117
aVadd
p118
aVprobably
p119
aVsummit
p120
aVable
p121
ag77
asI12
(lp122
Vspeaking
p123
aVaway
p124
aVsystems
p125
aVinnovation
p126
aV20
p127
aVend
p128
ag100
aVgot
p129
aVcrypto
p130
aVamp
p131
asI13
(lp132
Vjeremyphoward
p133
ag91
aV25
p134
aVneural
p135
ag54
aVunderstand
p136
aVchance
p137
aVsi
p138
aVthings
p139
aVgeneration
p140
asI14
(lp141
Vnew
p142
aVgreat
p143
aVpost
p144
ag100
aVyear
p145
aVweek
p146
ag2
aVlooking
p147
aVpytorch
p148
aVthank
p149
asI15
(lp150
g73
aVpublished
p151
ag88
aVrecent
p152
aVworkshop
p153
ag28
ag52
aVuser
p154
aVspace
p155
aVcheck
p156
asI16
(lp157
g154
aVbuy
p158
aVpoint
p159
ag143
ag145
aVcse501
p160
ag19
aVservices
p161
ag123
ag70
asI17
(lp162
g62
aVpotential
p163
aVdel
p164
aVlong
p165
ag120
aVtoday
p166
aVcontent
p167
aVsign
p168
ag64
ag154
asI18
(lp169
Vgoodfellow_ian
p170
aVregistration
p171
aVprof
p172
aVethereum
p173
aVreading
p174
aVlove
p175
ag60
ag15
aVmarketing
p176
aV11
p177
asI19
(lp178
V24
p179
aVjob
p180
aVblog
p181
aVreciclagem
p182
ag152
aVphone
p183
aVcode
p184
ag73
ag121
aVmarket
p185
asI20
(lp186
Vuse
p187
ag88
aV30
p188
aVwomen
p189
aVproject
p190
ag48
ag84
aVlos
p191
aVmedia
p192
aVrunning
p193
asI21
(lp194
g125
aVguys
p195
ag15
ag70
aVpage
p196
ag135
aVque
p197
ag120
ag22
ag49
asI22
(lp198
g25
aVshare
p199
aVcareer
p200
ag164
ag44
aVdicas
p201
aVstarted
p202
aVet
p203
ag185
aVel
p204
asI23
(lp205
g133
ag177
aVeuropeancryptob
p206
ag87
aVreally
p207
aVbonus
p208
aVprivacy
p209
ag93
aVcome
p210
aVday
p211
asI24
(lp212
g76
ag136
aVstart
p213
ag61
aVjoin
p214
aVtherealspotcoin
p215
ag165
ag27
aVai
p216
aVused
p217
asI25
(lp218
Vsjwv3g6zkw
p219
aVbusiness
p220
aV100
p221
aValt_estate
p222
aVpsosmatiiith
p223
ag168
aVegretia_io
p224
aVdata
p225
aVhealth
p226
ag37
asI26
(lp227
Vcourse
p228
aVtraining
p229
ag57
aVnipsconference
p230
aVenjoy
p231
ag219
aVmaybe
p232
aVcloud
p233
ag201
aVtalk
p234
asI27
(lp235
Vgames
p236
aVlife
p237
aVgiving
p238
ag203
ag61
aVem
p239
aV12
p240
ag213
ag77
aVpor
p241
asI28
(lp242
g237
ag133
aVresults
p243
ag77
aVes
p244
aVsoftware
p245
aVinterested
p246
aVknow
p247
aVpre
p248
aVpopular
p249
asI29
(lp250
g220
aVpeople
p251
aVlo
p252
ag49
aVfinally
p253
aVyouthigf17
p254
aVexperience
p255
ag107
aVthink
p256
aVum
p257
asI30
(lp258
g73
aVclass
p259
aVsalonikogta
p260
aVfast
p261
ag206
aVcom
p262
aVtrying
p263
ag146
ag59
aVlet
p264
asI31
(lp265
Vsimple
p266
ag221
ag237
ag77
aVtechnology
p267
aVevent
p268
ag254
aVsay
p269
aVprocess
p270
ag59
asI32
(lp271
g7
ag66
aVmusic
p272
ag90
aVfounder
p273
ag97
ag108
aVdid
p274
aVdevelopment
p275
ag249
asI33
(lp276
g263
ag252
ag28
aVsoon
p277
ag24
ag135
ag3
ag224
ag219
aVbring
p278
asI34
(lp279
Vsuper
p280
ag41
aVstarting
p281
aVlikes
p282
ag214
aVcomo
p283
aVleft
p284
ag240
ag33
aVlot
p285
asI35
(lp286
g129
ag93
aVmodel
p287
ag106
ag56
ag113
aVmachine
p288
aVegretia
p289
aVspecial
p290
aVapril
p291
asI36
(lp292
g91
ag177
ag40
aVyes
p293
aVse
p294
ag36
aVlaunch
p295
aVrole
p296
ag187
ag35
asI37
(lp297
g288
ag97
ag239
ag67
aVtech
p298
aVglad
p299
ag10
ag233
aVuniversity
p300
aVlt
p301
asI38
(lp302
g109
aVquality
p303
ag4
aVindian
p304
ag239
ag19
ag5
aVdetails
p305
aVneed
p306
aVsupport
p307
asI39
(lp308
g247
aVwatch
p309
ag260
aVstyle
p310
aVupcoming
p311
ag27
ag5
aVsource
p312
aVdays
p313
aVfun
p314
asI40
(lp315
g24
ag116
ag8
aVview
p316
ag51
aVset
p317
ag294
aVnight
p318
aVbuilding
p319
aVexcited
p320
asI41
(lp321
g187
ag284
ag203
ag6
aVdigital
p322
ag48
aVwork
p323
aVprojects
p324
ag50
ag140
asI42
(lp325
g211
aVdifferent
p326
ag39
aVte
p327
aVforward
p328
aVnetwork
p329
ag189
ag259
ag83
ag80
asI43
(lp330
g329
aVgymrewards
p331
ag127
ag11
aVawesome
p332
ag133
ag94
ag84
ag267
aVfact
p333
asI44
(lp334
Vinvest
p335
aVgood
p336
aVold
p337
ag230
ag326
ag289
ag101
aVbig
p338
ag68
ag144
asI45
(lp339
Vrt
p340
ag316
aVconference
p341
ag183
ag314
ag41
aVmobile
p342
aVspeech
p343
aVapple
p344
aVmain
p345
asI46
(lp346
g342
ag180
aVrecently
p347
ag38
aVbad
p348
aVdiscussion
p349
aVinvens
p350
ag48
ag15
aVdan
p351
asI47
(lp352
g316
aVworking
p353
ag117
aVart
p354
ag181
aVtwitter
p355
aVhuman
p356
aVmanagement
p357
aVcreate
p358
ag62
asI48
(lp359
g196
aVmerculet
p360
ag225
ag281
ag274
aVvote
p361
ag313
ag164
ag172
aVhi
p362
asI49
(lp363
g46
ag153
aVlatest
p364
aVnoticiaalinstante
p365
ag298
aV000
p366
ag249
ag256
aVgoing
p367
aVkdd_news
p368
asI50
(lp369
Viclr
p370
ag97
aVhey
p371
ag147
aVfeel
p372
ag26
aVhome
p373
aVyears
p374
ag336
ag144
asI51
(lp375
g216
aVlook
p376
ag239
ag267
ag331
ag114
ag189
ag226
aVbased
p377
aVnips
p378
asI52
(lp379
g174
ag294
ag251
ag309
ag332
ag232
ag370
ag267
aVbook
p380
ag36
asI53
(lp381
g200
ag201
ag151
ag309
ag152
ag129
aVeu
p382
ag220
ag164
ag207
asI54
(lp383
g66
ag238
ag129
ag47
aVico
p384
ag213
ag251
aVresearch
p385
ag187
ag10
asI55
(lp386
Vbitcoin
p387
ag24
ag185
ag161
ag138
aVbillion
p388
aV18
p389
ag197
ag353
ag267
asI56
(lp390
Vkaggle
p391
ag192
aVlist
p392
ag115
ag99
ag234
aVtoken
p393
ag44
aVfeatures
p394
ag161
asI57
(lp395
g376
aViot
p396
aVusers
p397
ag221
ag91
ag143
ag8
aVmachinelearning
p398
ag296
aVprogram
p399
asI58
(lp400
g97
ag103
ag283
ag33
aVdont
p401
ag226
aVuna
p402
ag293
aVonline
p403
aVproductoken
p404
asI59
(lp405
g19
ag105
ag6
aVroydanroy
p406
ag327
aVcompany
p407
ag274
aVscience
p408
ag223
ag108
asI60
(lp409
g338
ag140
aVdoes
p410
ag164
aVtokensale
p411
ag336
ag179
ag109
aVcongrats
p412
aVnews
p413
asI61
(lp414
g79
ag285
ag31
ag365
aVvastra2017
p415
ag77
aVishookinc
p416
ag151
ag32
ag68
asI62
(lp417
g47
ag133
ag115
aVidea
p418
ag216
aVpower
p419
aVgdpr
p420
aVhelp
p421
ag108
ag335
asI63
(lp422
g323
ag413
aVreciclando
p423
ag47
ag185
ag362
ag59
aVnips2017
p424
ag231
ag16
asI64
(lp425
g384
ag181
ag103
ag117
aVfeelthelearn
p426
ag39
ag200
ag58
ag207
ag201
asI65
(lp427
g317
ag101
ag278
aVapproach
p428
ag43
aVquestion
p429
ag259
ag342
aVhappy
p430
aVconsensus
p431
asI66
(lp432
g324
aVhard
p433
aVsure
p434
aVasuracoin
p435
ag362
aVamazing
p436
ag382
ag407
aVya
p437
ag21
asI67
(lp438
Vopening
p439
ag255
aVbtc
p440
ag74
ag380
ag259
ag192
ag38
ag293
ag115
asI68
(lp441
g357
ag33
ag231
ag419
ag221
ag68
ag82
ag211
ag70
ag42
asI69
(lp442
g407
aVvideo
p443
ag36
ag307
ag166
ag126
ag70
ag385
ag348
aVrelease
p444
asI70
(lp445
g260
ag426
ag182
ag384
aVwelcome
p446
ag404
aVbrain
p447
ag53
aVemail
p448
ag138
asI71
(lp449
g358
ag336
ag331
ag440
aValgorithms
p450
ag254
aVupdate
p451
aVindustry
p452
aVexample
p453
ag444
asI72
(lp454
Vairdrop
p455
ag11
aVproduct
p456
ag295
ag223
ag356
aVreleased
p457
ag389
ag404
ag429
asI73
(lp458
g430
ag268
ag256
aVbeautiful
p459
ag429
ag371
ag257
ag347
ag116
ag291
asI74
(lp460
Vnumber
p461
ag436
ag70
ag253
ag210
aVopen
p462
aVwon
p463
ag173
ag232
ag30
asI75
(lp464
g455
ag60
ag222
ag48
ag42
ag343
ag91
ag96
aVstop
p465
ag64
asI76
(lp466
g72
aVgoogle
p467
ag128
ag415
aVmeet
p468
ag303
ag188
aVhope
p469
ag324
ag347
asI77
(lp470
g333
ag163
aVpretty
p471
ag113
ag156
ag301
aVceo
p472
ag161
ag5
ag309
asI78
(lp473
g426
ag288
ag317
ag230
aVyeah
p474
aVdecentralized
p475
ag354
ag215
ag412
ag306
asI79
(lp476
g309
ag338
ag469
ag313
ag130
aVright
p477
ag22
ag291
ag230
ag459
asI80
(lp478
g273
ag373
ag215
ag351
ag68
ag185
aVfacebook
p479
aVla
p480
aVdas
p481
ag453
asI81
(lp482
g123
ag446
ag215
ag83
ag342
ag303
ag206
ag358
ag259
ag174
asI82
(lp483
g167
aVcoming
p484
ag353
ag305
ag329
ag106
ag13
aVbuild
p485
aVretweets
p486
ag202
asI83
(lp487
Vstanford
p488
aVhttp
p489
ag263
ag208
ag481
ag418
ag43
aVguess
p490
aVaccess
p491
ag456
asI84
(lp492
g484
ag490
ag124
ag230
ag152
ag350
ag488
ag371
ag317
ag253
asI85
(lp493
g266
ag121
ag41
ag102
ag289
ag490
ag456
ag372
aVgans
p494
ag202
asI86
(lp495
g230
ag403
ag193
ag180
ag313
ag416
ag214
ag360
ag305
ag126
asI87
(lp496
g222
aVproblem
p497
ag17
ag184
ag203
ag19
aVcool
p498
ag309
ag393
ag407
asI88
(lp499
Vexplore
p500
ag168
aVarticle
p501
ag84
ag338
ag103
ag188
ag274
ag333
ag220
asI89
(lp502
Vfurnishingforum
p503
ag435
ag81
ag354
ag69
aVfriend
p504
aVopportunity
p505
aVworld
p506
ag329
ag13
asI90
(lp507
g462
ag80
ag388
ag114
ag307
ag109
ag335
ag106
ag188
aVself
p508
asI91
(lp509
g480
ag324
aVoracle
p510
ag261
ag14
aVthinking
p511
aValphago
p512
ag387
ag248
ag240
asI92
(lp513
g51
ag314
ag100
aVthing
p514
ag469
ag456
ag266
ag244
ag99
ag364
asI93
(lp515
g348
ag188
ag365
ag448
aVagree
p516
ag24
ag44
aVstate
p517
ag314
ag443
asI94
(lp518
g246
ag59
ag296
ag331
ag457
aVsalesforce
p519
ag103
ag326
ag340
aVtomorrow
p520
asI95
(lp521
Vread
p522
ag357
ag88
aVcryptocurrency
p523
ag426
ag200
ag8
ag264
ag30
ag131
asI96
(lp524
g477
ag185
ag77
ag60
ag256
ag253
aVchange
p525
aVmean
p526
ag19
aVcompanies
p527
asI97
(lp528
g488
ag411
ag125
ag428
ag437
ag26
aVhistory
p529
ag130
ag123
ag266
asI98
(lp530
g174
ag167
ag221
ag342
ag74
ag430
ag282
ag147
ag263
ag129
asI99
(lp531
g2
ag248
ag423
ag56
ag204
ag465
ag116
ag440
ag407
ag333
asI100
(lp532
g465
ag488
ag176
ag144
ag404
ag226
ag107
ag396
ag368
ag397
asI101
(lp533
g114
ag318
ag332
ag436
ag316
ag144
ag98
ag388
ag217
ag82
asI102
(lp534
g484
ag388
ag210
ag32
ag160
ag469
ag387
ag434
ag245
ag161
asI103
(lp535
g327
ag253
ag185
ag113
ag268
aVen
p536
ag220
ag456
ag139
ag264
asI104
(lp537
g372
aVpapers
p538
ag221
ag100
ag288
aVhardmaru
p539
ag349
ag516
ag223
ag74
asI105
(lp540
g241
ag378
ag247
ag419
ag385
ag53
ag429
ag130
ag236
ag79
asI106
(lp541
g39
ag46
ag347
ag256
ag536
ag261
ag50
ag452
ag20
ag13
asI107
(lp542
g401
ag256
ag411
ag485
ag455
ag8
ag119
ag139
ag2
ag413
asI108
(lp543
g277
ag333
ag113
ag19
ag172
ag170
ag124
ag159
ag266
ag239
asI109
(lp544
g165
ag182
ag58
aVsharing
p545
ag320
ag119
aVtonight
p546
ag351
aVadversarial
p547
ag378
asI110
(lp548
g319
ag215
ag163
ag455
ag50
ag256
ag2
ag251
ag431
ag342
asI111
(lp549
g8
ag429
ag224
ag216
ag526
ag319
ag341
ag301
ag512
ag7
asI112
(lp550
g399
ag27
ag214
ag536
aVgenerative
p551
aVlink
p552
ag305
ag479
aVlooks
p553
ag263
asI113
(lp554
g340
ag105
ag131
ag106
ag323
aVjust
p555
ag76
aVlike
p556
ag225
aVtime
p557
asI114
(lp558
g295
ag57
ag494
aVman
p559
ag519
ag555
ag129
ag452
ag435
ag183
asI115
(lp560
g183
ag9
ag200
ag70
ag134
ag226
ag76
ag249
ag313
ag306
asI116
(lp561
g192
ag451
aVworks
p562
ag288
ag57
ag335
ag136
aVsari
p563
ag477
ag376
asI117
(lp564
g508
ag58
ag145
ag270
aVfree
p565
ag240
ag153
ag237
ag361
ag307
asI118
(lp566
Vhead
p567
ag79
ag245
ag208
ag387
ag62
aVartificial
p568
ag317
ag344
ag526
asI119
(lp569
g472
ag474
ag538
ag173
ag557
ag377
aVsummer
p570
ag94
ag142
ag306
asI120
(lp571
g538
ag222
ag173
ag226
ag374
ag66
ag539
ag207
ag102
ag389
asI121
(lp572
Vsecurity
p573
ag415
ag505
aVlanguage
p574
ag378
ag267
ag436
ag285
ag399
ag244
asI122
(lp575
g327
ag84
ag58
aVsmart
p576
ag407
ag517
ag238
ag319
ag113
ag392
asI123
(lp577
V2017
p578
ag343
ag306
ag479
ag447
ag348
ag320
ag506
ag480
ag421
asI124
(lp579
g277
ag30
ag366
ag48
ag195
ag207
ag434
ag92
ag2
ag455
asI125
(lp580
g228
ag306
ag219
ag38
ag40
ag406
ag311
ag94
aVfollowers
p581
ag73
asI126
(lp582
g4
ag188
ag488
ag563
ag356
ag56
ag136
aVapplications
p583
ag419
ag81
asI127
(lp584
V15
p585
ag196
ag356
ag428
ag463
ag440
ag142
ag485
ag189
ag446
asI128
(lp586
g397
ag246
ag348
ag182
ag140
ag364
ag378
ag522
ag456
ag159
asI129
(lp587
g105
ag314
ag581
ag251
ag430
ag171
ag208
ag320
ag195
ag266
asI130
(lp588
g397
ag485
ag215
ag366
ag529
ag32
ag69
ag401
ag189
aVreview
p589
asI131
(lp590
g288
ag142
aVhaving
p591
ag318
ag66
ag546
aVseen
p592
ag206
ag267
ag26
asI132
(lp593
g133
ag340
ag189
ag109
ag319
ag430
ag21
aVdr
p594
ag512
ag27
asI133
(lp595
g85
ag20
aVmoney
p596
ag391
ag408
aVproblems
p597
ag261
ag419
ag366
ag124
asI134
(lp598
g177
ag371
ag222
ag111
ag76
ag401
ag354
ag180
ag57
aVworth
p599
asI135
(lp600
g128
ag19
ag296
ag266
ag500
ag497
ag295
ag28
ag17
ag96
asI136
(lp601
g160
ag96
ag197
ag140
ag106
ag360
ag557
ag522
ag90
ag87
asI137
(lp602
g200
ag226
ag299
ag82
ag281
ag367
ag457
aVfollow
p603
ag385
ag415
asI138
(lp604
g353
aVregister
p605
ag397
ag501
ag114
ag177
ag115
ag451
ag202
ag389
asI139
(lp606
g99
ag327
ag341
ag120
ag481
ag555
ag468
ag310
ag453
ag176
asI140
(lp607
Vcongratulations
p608
ag128
ag486
ag456
ag504
ag2
ag98
aVlarge
p609
ag188
ag130
asI141
(lp610
g505
ag72
ag73
ag66
ag109
ag168
ag371
ag415
ag174
ag249
asI142
(lp611
g249
ag378
ag324
ag453
ag163
ag120
ag456
ag257
ag421
ag153
asI143
(lp612
g57
ag2
ag284
ag199
ag163
ag115
ag272
ag517
ag184
aVfar
p613
asI144
(lp614
g226
ag51
ag188
ag525
ag288
ag452
ag73
ag294
aVpara
p615
ag181
asI145
(lp616
g306
ag127
ag277
ag491
ag268
ag125
ag305
ag474
ag105
ag335
asI146
(lp617
g459
ag113
ag573
ag251
ag382
ag27
ag135
ag170
ag285
ag324
asI147
(lp618
g469
ag489
ag32
ag105
ag253
ag211
ag436
ag361
ag223
ag589
asI148
(lp619
g392
ag345
ag437
ag266
ag35
aVelemiliofd
p620
ag596
ag38
ag51
ag108
asI149
(lp621
g557
ag287
ag574
ag73
ag353
ag570
ag512
ag503
ag399
aVsearch
p622
asI150
(lp623
g423
ag320
ag365
ag467
ag355
ag97
ag406
ag199
ag360
ag303
asI151
(lp624
g599
aVmakes
p625
ag365
ag553
ag609
ag303
ag448
ag49
ag371
ag267
asI152
(lp626
g110
ag233
ag248
ag42
ag609
ag516
ag267
ag392
ag24
ag72
asI153
(lp627
g303
ag620
ag347
ag28
ag136
ag516
ag182
ag461
ag3
ag337
asI154
(lp628
g331
ag323
ag70
ag385
ag266
ag401
ag30
ag526
ag397
ag505
asI155
(lp629
g397
ag259
ag192
ag312
ag471
ag89
ag434
ag350
ag92
ag280
asI156
(lp630
g139
ag28
ag188
ag567
ag252
aVsale
p631
ag419
ag477
ag374
ag522
asI157
(lp632
g197
ag567
ag241
ag244
ag3
ag320
ag25
ag343
ag224
ag272
asI158
(lp633
g128
aVparticipate
p634
ag511
ag331
ag18
ag14
ag384
ag336
ag154
ag273
asI159
(lp635
g342
ag119
ag232
ag21
ag156
ag448
ag16
ag123
ag160
ag401
asI160
(lp636
g605
ag457
aVtensorflow
p637
ag63
ag131
ag10
ag452
ag52
ag204
ag164
asI161
(lp638
g46
ag455
ag506
ag573
ag113
ag176
ag50
ag358
ag377
ag411
asI162
(lp639
g347
ag294
ag275
ag263
ag189
ag403
ag456
ag428
aViiitdelhi
p640
ag552
asI163
(lp641
g527
ag100
ag581
ag439
ag376
ag591
ag634
ag237
ag318
ag211
asI164
(lp642
g615
aVdaily
p643
ag446
ag436
ag318
ag468
ag508
ag230
ag380
ag491
asI165
(lp644
g347
ag123
ag436
ag327
ag159
ag84
ag214
ag556
ag331
ag407
asI166
(lp645
g251
ag377
ag481
ag415
ag423
ag347
ag296
ag78
ag291
ag121
asI167
(lp646
g255
ag365
ag18
ag277
ag462
ag348
aVhigh
p647
ag266
ag568
aVresearchers
p648
asI168
(lp649
g388
ag430
ag13
ag165
ag187
ag149
ag538
ag264
ag440
ag229
asI169
(lp650
g278
ag44
ag15
aVthanks
p651
ag455
ag394
ag239
ag410
ag96
ag380
asI170
(lp652
g565
ag298
ag338
ag7
ag58
ag20
ag31
ag293
ag81
aVmonth
p653
asI171
(lp654
g36
ag106
ag463
ag224
ag161
ag651
ag393
ag486
ag196
ag16
asI172
(lp655
g19
aVreason
p656
ag68
ag98
ag201
ag57
ag193
ag134
ag189
ag147
asI173
(lp657
g526
ag44
ag581
ag53
ag133
ag32
ag434
ag287
ag331
ag31
asI174
(lp658
g366
ag107
ag446
ag25
aVdesign
p659
ag50
ag344
ag404
ag568
ag436
asI175
(lp660
g8
ag91
ag17
ag130
ag102
ag124
ag219
ag597
ag13
ag275
asI176
(lp661
g206
ag456
ag284
ag312
ag37
ag433
ag136
ag159
ag170
ag193
asI177
(lp662
g370
ag57
ag556
ag21
ag128
ag477
ag174
ag213
aVtalking
p663
ag163
asI178
(lp664
g455
ag463
ag480
ag407
ag188
ag244
aVaward
p665
ag357
ag280
ag192
asI179
(lp666
Vlab
p667
ag98
ag539
aVtokens
p668
ag426
ag437
ag288
ag47
ag376
ag384
asI180
(lp669
g146
ag9
ag35
ag316
ag303
ag231
ag142
ag545
ag167
ag372
asI181
(lp670
g613
ag208
ag283
ag418
ag663
ag87
ag114
ag255
ag333
ag342
asI182
(lp671
g91
ag202
ag327
ag209
aVapoorvedubey
p672
ag230
ag99
ag608
ag299
ag457
asI183
(lp673
g114
ag484
ag18
ag57
ag512
ag585
ag38
ag377
ag245
ag317
asI184
(lp674
g165
ag288
ag18
ag608
ag479
ag439
ag344
ag529
ag583
ag318
asI185
(lp675
g83
ag469
ag323
ag32
ag377
ag71
ag615
ag17
ag237
aVmerculet_io
p676
asI186
(lp677
g215
ag467
ag295
ag477
ag385
ag520
ag103
ag514
ag73
ag93
asI187
(lp678
g349
ag256
ag498
ag209
ag137
ag119
ag127
ag234
ag9
ag436
asI188
(lp679
g180
ag62
ag480
ag215
ag672
ag348
ag357
ag676
ag282
ag341
asI189
(lp680
g488
ag63
ag204
ag165
ag170
ag424
ag172
aVplatform
p681
ag167
ag468
asI190
(lp682
g556
ag135
ag444
ag434
ag347
ag2
ag18
ag374
aVve
p683
ag394
asI191
(lp684
g663
ag6
ag300
ag44
ag41
ag333
ag523
ag418
ag272
ag116
asI192
(lp685
g288
ag376
ag82
ag393
ag563
ag27
ag484
ag237
ag53
ag151
asI193
(lp686
g228
ag283
ag574
ag332
ag103
ag113
ag434
ag331
ag262
ag324
asI194
(lp687
g592
ag382
ag557
ag159
ag210
ag299
ag463
ag46
ag80
aVdataset
p688
asI195
(lp689
g180
ag440
ag480
ag52
ag320
ag58
ag648
ag452
ag376
ag355
asI196
(lp690
g239
ag412
ag164
ag234
ag144
ag597
ag60
ag172
ag444
ag127
asI197
(lp691
g468
ag337
ag471
ag448
ag13
ag396
ag17
ag180
ag87
ag230
asI198
(lp692
g108
ag280
ag27
ag28
ag539
ag189
ag336
ag467
ag288
ag252
asI199
(lp693
g498
ag48
ag184
ag264
ag489
ag351
ag523
ag187
ag547
ag231
asI200
(lp694
g160
ag167
ag176
ag341
ag257
ag380
ag355
ag31
ag264
ag259
asI201
(lp695
g175
ag232
ag398
ag125
ag303
ag510
ag54
ag576
ag130
ag503
asI202
(lp696
g503
ag25
ag275
ag120
ag313
ag241
ag263
ag382
ag143
ag196
asI203
(lp697
g7
ag439
ag6
ag360
ag500
ag643
ag388
ag609
ag77
ag299
asI204
(lp698
g158
ag323
ag6
ag135
ag494
ag143
ag410
ag585
ag85
ag364
asI205
(lp699
g159
ag461
ag559
ag29
ag538
ag293
ag410
ag4
ag160
ag576
asI206
(lp700
g179
ag199
ag447
ag115
ag255
ag439
ag22
ag223
ag139
ag373
asI207
(lp701
g175
ag119
ag101
ag401
ag322
ag88
ag463
ag70
ag190
ag356
asI208
(lp702
g105
ag216
ag87
ag384
ag130
ag408
ag101
ag287
ag659
ag539
asI209
(lp703
g435
ag96
ag262
ag90
ag180
ag373
ag592
ag506
ag260
ag85
asI210
(lp704
g14
ag110
ag192
ag403
ag9
ag125
ag187
ag382
ag124
ag74
asI211
(lp705
g416
ag211
ag170
ag187
ag182
ag463
ag608
ag298
ag240
ag615
asI212
(lp706
g520
ag58
ag309
ag180
ag287
ag166
ag459
ag224
ag135
ag127
asI213
(lp707
Vissue
p708
ag177
ag41
ag105
ag342
ag189
ag215
ag52
ag267
ag366
asI214
(lp709
g61
ag173
ag203
ag170
ag430
ag90
ag17
ag418
ag32
ag26
asI215
(lp710
g681
ag268
ag367
ag156
ag214
ag252
ag280
ag519
ag206
ag615
asI216
(lp711
g217
ag567
ag193
ag568
ag517
ag647
ag370
ag275
ag233
ag19
asI217
(lp712
g311
ag423
ag667
ag396
ag148
ag322
ag583
ag261
ag99
ag355
asI218
(lp713
g61
ag146
ag223
ag25
ag119
ag233
ag175
ag578
ag355
ag193
asI219
(lp714
g370
ag73
ag234
ag115
ag456
ag140
ag494
ag5
ag683
ag393
asI220
(lp715
g40
ag202
ag29
ag173
ag553
ag349
ag129
ag168
ag49
ag615
asI221
(lp716
g456
ag401
ag404
ag266
ag391
ag312
ag274
ag152
ag128
ag27
asI222
(lp717
g505
ag475
ag301
ag387
ag172
ag149
ag329
ag370
ag204
ag288
asI223
(lp718
g219
ag337
ag254
ag384
ag28
ag512
ag136
ag343
ag332
ag137
asI224
(lp719
Vstudents
p720
ag504
ag189
ag151
ag203
ag589
ag248
ag314
ag66
ag683
asI225
(lp721
g576
ag9
ag15
ag228
ag388
ag486
ag439
ag106
ag665
ag54
asI226
(lp722
g130
ag471
ag80
ag294
ag193
ag110
ag413
ag119
ag263
ag520
asI227
(lp723
g121
ag653
ag182
ag640
ag443
ag479
ag508
ag301
ag418
ag171
asI228
(lp724
g599
ag307
ag80
ag63
ag367
ag341
ag191
ag557
ag525
ag62
asI229
(lp725
g506
ag300
ag392
ag190
ag501
ag245
ag199
aVsuccessful
p726
ag403
ag283
asI230
(lp727
g32
ag17
ag121
ag92
ag288
ag501
ag222
ag94
ag510
ag37
asI231
(lp728
g416
ag570
ag31
ag451
ag14
ag605
ag608
ag87
ag424
ag468
asI232
(lp729
g402
ag161
ag608
ag448
ag7
ag361
ag380
ag16
ag249
ag93
asI233
(lp730
g224
ag364
ag413
ag240
ag70
ag25
ag59
ag223
ag329
ag368
asI234
(lp731
g336
ag431
ag557
ag676
ag133
ag201
ag603
ag353
ag207
ag467
asI235
(lp732
g519
ag506
ag224
ag253
ag467
ag455
ag100
ag249
ag620
ag191
asI236
(lp733
g326
ag306
ag599
ag485
ag656
ag335
ag296
ag323
ag403
ag475
asI237
(lp734
g337
ag253
ag331
ag451
ag396
ag603
ag324
ag338
ag62
ag634
asI238
(lp735
g3
ag58
ag284
ag597
ag263
ag80
ag108
ag376
ag149
ag156
asI239
(lp736
g505
ag465
ag91
ag49
ag345
ag13
ag439
ag115
ag46
ag503
asI240
(lp737
g429
ag123
ag44
ag371
ag233
ag407
ag18
ag196
ag388
ag251
asI241
(lp738
g85
ag139
ag180
ag345
ag368
ag377
ag40
ag33
ag57
ag335
asI242
(lp739
g239
ag283
ag387
ag681
ag200
ag651
ag625
ag424
ag500
ag282
asI243
(lp740
g170
ag547
ag486
ag81
ag508
ag97
ag142
ag419
ag720
ag348
asI244
(lp741
g163
ag143
ag58
ag54
ag240
ag82
ag37
ag481
ag192
ag362
asI245
(lp742
g25
ag76
ag145
ag259
ag246
ag290
ag295
ag504
ag448
ag536
asI246
(lp743
g305
ag448
ag221
ag214
ag57
ag563
ag42
ag574
ag145
ag155
asI247
(lp744
g505
ag314
ag412
ag592
ag39
ag101
ag172
ag175
ag148
ag129
asI248
(lp745
g49
ag599
ag248
ag115
ag155
ag500
ag418
ag634
ag89
ag668
asI249
(lp746
g562
ag223
ag192
ag557
ag410
ag47
ag497
ag539
ag488
ag338
asI250
(lp747
g536
ag31
ag349
ag551
ag463
ag71
ag59
ag545
ag665
ag457
asI251
(lp748
g62
ag305
ag139
ag651
ag455
ag127
ag66
ag110
ag672
ag570
asI252
(lp749
g268
ag338
ag101
ag111
ag599
ag219
ag523
ag332
ag118
ag161
asI253
(lp750
g17
ag229
ag66
ag594
ag76
ag667
ag57
ag263
ag8
ag332
asI254
(lp751
g177
ag29
ag665
ag230
ag304
ag111
ag13
ag187
ag526
ag647
asI255
(lp752
g609
ag88
ag192
ag238
ag603
ag272
ag32
ag79
ag22
ag127
asI256
(lp753
g314
ag166
ag676
ag266
ag603
ag640
ag193
ag84
ag247
ag307
asI257
(lp754
g472
ag6
ag170
ag84
ag229
ag471
ag435
ag211
ag421
ag88
asI258
(lp755
g72
ag481
ag231
ag50
ag188
ag18
ag300
ag25
ag149
ag720
asI259
(lp756
g503
ag296
ag77
ag54
ag397
ag204
ag331
ag62
ag115
ag433
asI260
(lp757
g597
ag120
ag337
ag108
ag185
ag318
ag443
ag5
ag14
ag284
asI261
(lp758
g113
ag183
ag377
ag116
ag512
ag510
ag459
ag463
ag160
ag648
asI262
(lp759
g324
ag333
ag85
ag341
ag653
ag605
aVbbi2016
p760
ag243
ag497
ag50
asI263
(lp761
g118
ag303
ag160
ag41
ag340
ag455
ag424
ag556
ag87
ag525
asI264
(lp762
g138
ag620
ag557
ag429
ag434
ag259
ag146
ag667
ag398
ag294
asI265
(lp763
g4
ag88
ag236
ag506
ag70
ag472
ag18
ag465
ag288
ag36
asI266
(lp764
g187
ag174
ag118
ag500
ag726
ag108
ag456
ag99
ag47
ag527
asI267
(lp765
g327
ag91
ag256
ag683
ag358
ag174
ag166
ag154
ag494
ag423
asI268
(lp766
g288
ag72
ag111
ag101
ag681
ag82
ag236
ag152
ag83
ag592
asI269
(lp767
g3
ag301
ag659
ag563
ag585
ag672
ag31
ag107
ag314
ag245
asI270
(lp768
g247
ag110
ag353
ag91
ag25
ag274
ag277
ag640
ag484
ag81
asI271
(lp769
g248
ag28
ag83
ag318
ag238
ag597
ag130
ag293
ag605
ag307
asI272
(lp770
g565
ag311
ag416
ag382
ag393
ag81
ag354
ag615
ag236
ag522
asI273
(lp771
g366
ag11
ag298
ag264
ag404
aVdeep
p772
ag708
ag281
ag431
ag583
asI274
(lp773
g197
ag452
ag8
ag467
ag244
aVtry
p774
ag415
ag50
ag501
ag44
asI275
(lp775
g241
ag175
ag214
ag345
ag27
ag477
ag165
ag354
ag467
ag159
asI276
(lp776
g479
ag105
ag708
ag468
ag326
ag519
ag79
ag54
ag457
ag433
asI277
(lp777
g263
ag24
ag523
ag435
ag511
ag468
ag246
ag423
ag465
ag240
asI278
(lp778
g772
ag362
ag61
ag309
ag392
ag196
ag110
ag332
ag7
ag388
asI279
(lp779
g688
ag546
ag207
ag173
ag389
ag163
ag281
ag708
ag469
ag243
asI280
(lp780
g5
ag84
ag491
ag331
ag163
ag603
ag118
ag264
ag229
ag182
asI281
(lp781
g114
ag110
ag207
ag350
ag164
ag603
ag625
ag317
ag94
ag52
asI282
(lp782
g481
ag285
ag510
ag259
ag463
ag70
ag335
ag609
ag526
ag309
asI283
(lp783
g110
ag303
ag209
ag634
ag511
ag24
ag471
ag74
ag326
ag573
asI284
(lp784
g184
ag37
ag84
ag412
ag631
ag647
ag596
ag505
ag411
ag356
asI285
(lp785
g84
ag37
ag254
ag328
ag529
ag43
ag213
ag448
ag277
ag127
asI286
(lp786
g609
ag244
ag591
ag298
ag7
ag180
ag446
ag365
ag434
ag605
asI287
(lp787
g196
ag365
ag326
ag465
ag407
ag320
ag208
ag89
ag634
ag211
asI288
(lp788
g589
ag247
ag57
ag300
ag32
ag301
ag136
ag396
ag31
ag527
asI289
(lp789
g125
ag284
ag471
ag44
ag170
ag615
ag424
ag340
ag567
ag243
asI290
(lp790
g508
ag17
ag361
ag119
ag479
ag103
ag553
ag73
ag39
ag772
asI291
(lp791
g149
ag622
ag7
ag647
ag14
ag159
ag151
ag230
ag423
ag62
asI292
(lp792
g90
ag311
ag176
ag319
ag574
ag529
ag349
ag183
ag196
ag323
asI293
(lp793
g453
ag145
ag46
ag467
ag9
ag353
ag36
ag285
ag136
ag490
asI294
(lp794
g216
ag500
ag340
ag314
ag394
ag99
ag343
ag80
ag416
ag342
asI295
(lp795
g35
ag314
ag239
ag199
ag152
ag144
ag430
ag237
ag254
ag138
asI296
(lp796
g648
ag46
ag720
ag84
ag85
ag318
ag164
ag153
ag131
ag439
asI297
(lp797
g261
ag356
ag54
ag320
ag726
ag71
ag387
ag127
ag151
ag519
asI298
(lp798
g313
ag29
ag613
ag388
ag133
ag299
ag263
ag124
ag245
ag211
asI299
(lp799
g2
ag529
ag708
ag188
ag58
ag374
ag290
ag382
ag110
ag446
asI300
(lp800
g43
ag257
ag11
ag8
ag158
ag676
ag273
ag312
ag500
ag410
asI301
(lp801
g174
ag189
ag223
ag523
ag462
ag538
ag592
ag81
ag370
ag559
asI302
(lp802
g467
ag249
ag53
ag274
ag394
ag256
ag39
ag241
ag573
ag469
asI303
(lp803
g105
ag366
ag498
ag289
ag436
ag585
ag360
ag184
ag11
ag426
asI304
(lp804
g399
ag281
ag360
ag196
ag345
ag270
ag228
ag167
ag131
ag288
asI305
(lp805
g79
ag648
ag73
ag146
ag239
ag134
ag289
ag142
ag557
ag175
asI306
(lp806
g316
ag163
ag651
ag408
ag70
ag672
ag210
ag110
ag30
ag489
asI307
(lp807
g510
ag428
ag316
ag490
ag2
ag345
ag59
ag67
ag424
ag525
asI308
(lp808
g200
ag459
ag237
ag28
ag318
ag99
ag124
ag30
ag643
ag337
asI309
(lp809
g367
ag236
ag53
ag291
ag201
ag477
ag15
ag556
ag56
ag672
asI310
(lp810
g461
ag552
ag155
ag545
ag10
ag539
ag124
ag403
ag439
ag525
asI311
(lp811
g254
ag50
ag578
ag506
ag355
ag523
ag35
ag324
ag672
ag377
asI312
(lp812
g40
ag69
ag374
ag326
ag220
ag653
ag475
ag49
ag551
ag420
asI313
(lp813
g472
ag643
ag188
ag471
ag147
ag336
ag293
ag89
ag24
ag344
asI314
(lp814
g115
ag74
ag127
ag2
ag133
ag160
ag453
ag193
ag209
ag317
asI315
(lp815
g77
ag277
ag337
ag52
ag653
ag243
ag546
ag155
ag176
ag30
asI316
(lp816
g433
ag196
ag283
ag66
ag672
ag613
ag418
ag243
ag267
ag192
asI317
(lp817
g622
ag479
ag38
ag219
ag16
ag117
ag88
ag681
ag259
ag377
asI318
(lp818
g67
ag576
ag171
ag455
ag234
ag435
ag201
ag96
ag440
ag156
asI319
(lp819
g344
ag233
ag84
ag310
ag393
ag367
ag461
ag412
ag171
ag720
asI320
(lp820
g71
ag203
ag435
ag447
ag634
ag373
ag11
ag109
ag184
ag285
asI321
(lp821
g511
ag659
ag2
ag188
ag529
ag592
ag609
ag557
ag131
ag171
asI322
(lp822
g726
ag200
ag160
ag522
ag238
ag480
ag226
ag123
ag240
ag27
asI323
(lp823
g353
ag510
ag87
ag328
ag412
ag147
ag275
ag60
ag500
ag444
asI324
(lp824
g76
ag64
ag522
ag232
ag357
ag109
ag331
ag603
ag452
ag416
asI325
(lp825
g71
ag176
ag471
ag28
ag402
ag210
ag133
ag568
ag407
ag67
asI326
(lp826
g510
ag453
ag278
ag372
ag66
ag74
ag254
ag411
ag332
ag290
asI327
(lp827
g480
ag269
ag207
ag474
ag603
ag58
ag406
ag145
ag245
ag163
asI328
(lp828
g596
ag127
ag118
ag536
ag228
ag27
ag327
ag100
ag252
ag391
asI329
(lp829
g539
ag87
ag377
ag134
ag233
ag574
ag226
ag80
ag461
ag653
asI330
(lp830
g43
ag351
ag322
ag26
ag239
ag475
ag121
ag391
ag402
ag505
asI331
(lp831
g156
ag631
ag296
ag54
ag547
ag50
ag14
ag421
ag444
ag428
asI332
(lp832
g304
ag401
ag261
ag66
ag176
ag525
ag511
ag266
ag488
ag239
asI333
(lp833
g615
ag376
ag119
ag283
ag72
ag568
ag14
ag211
ag254
ag472
asI334
(lp834
g216
ag87
ag285
ag59
ag592
ag451
ag609
ag402
ag244
ag656
asI335
(lp835
g351
ag437
ag87
ag388
ag19
ag304
ag389
ag115
ag109
ag60
asI336
(lp836
g423
ag260
ag295
ag37
ag253
ag63
ag536
ag256
ag28
ag305
asI337
(lp837
g468
ag40
ag376
ag149
ag406
ag73
ag116
ag523
ag562
ag61
asI338
(lp838
g196
ag259
ag163
ag264
ag229
ag726
ag43
ag71
ag161
ag244
asI339
(lp839
g177
ag634
ag457
ag215
ag377
ag484
ag273
ag387
ag238
ag620
asI340
(lp840
g107
ag129
ag391
ag36
ag519
ag382
ag96
ag335
ag116
ag278
asI341
(lp841
g672
ag7
ag2
ag327
ag341
ag380
ag217
ag216
ag223
ag4
asI342
(lp842
g647
ag225
ag176
ag397
ag625
ag62
ag335
ag244
ag70
ag522
asI343
(lp843
g230
ag447
ag48
ag348
ag192
ag16
ag280
ag475
ag300
ag538
asI344
(lp844
g140
ag519
ag120
ag40
ag31
ag296
ag316
ag98
ag209
ag29
asI345
(lp845
g223
ag254
ag451
ag105
ag345
ag311
ag272
ag553
ag134
ag165
asI346
(lp846
g374
ag599
ag420
ag184
ag430
ag155
ag105
ag38
ag347
ag423
asI347
(lp847
g559
ag556
ag555
ag264
ag190
ag120
ag367
ag436
ag61
ag228
asI348
(lp848
g204
ag182
ag683
ag283
ag168
ag175
ag313
ag202
ag551
ag277
asI349
(lp849
g108
ag555
ag469
ag576
ag475
ag182
ag402
ag378
ag224
ag433
asI350
(lp850
g173
ag172
ag358
ag290
ag241
ag457
ag474
ag8
ag139
ag430
asI351
(lp851
g404
ag287
ag137
ag539
ag514
ag140
ag158
ag32
ag594
ag479
asI352
(lp852
g175
ag488
ag201
ag665
ag68
ag181
ag296
ag35
ag412
ag656
asI353
(lp853
g453
ag433
ag57
ag447
ag489
ag419
ag551
ag61
ag408
ag31
asI354
(lp854
g255
ag519
ag263
ag230
ag384
ag557
ag221
ag239
ag319
ag437
asI355
(lp855
g243
ag129
ag469
ag364
ag387
ag109
ag159
ag206
ag172
ag384
asI356
(lp856
g608
ag241
ag367
ag452
ag236
ag153
ag591
ag446
ag63
ag514
asI357
(lp857
g320
ag33
ag208
ag306
ag46
ag275
ag221
ag214
ag332
ag576
asI358
(lp858
g291
ag215
ag184
ag592
ag244
ag125
ag54
ag527
ag13
ag81
asI359
(lp859
g84
ag275
ag498
ag238
ag284
ag18
ag214
ag202
ag88
ag71
asI360
(lp860
g510
ag14
ag164
ag67
ag553
ag38
ag237
ag207
ag210
ag222
asI361
(lp861
g40
ag451
ag344
ag171
ag138
ag283
ag437
ag517
ag181
ag539
asI362
(lp862
g327
ag294
ag419
ag147
ag71
ag137
ag371
ag291
ag79
ag408
asI363
(lp863
g408
ag121
ag215
ag415
ag213
ag244
ag640
ag613
ag430
ag494
asI364
(lp864
g219
ag511
ag22
ag24
ag344
ag135
ag459
ag529
ag591
ag264
asI365
(lp865
g435
ag49
ag272
ag275
ag130
ag165
ag187
ag309
ag149
ag126
asI366
(lp866
g720
ag726
ag40
ag146
ag353
ag408
ag648
ag398
ag139
ag351
asI367
(lp867
g406
ag123
ag10
ag270
ag480
ag16
ag53
ag376
ag262
ag19
asI368
(lp868
g565
ag30
ag304
ag656
ag485
ag293
ag344
ag24
ag248
ag21
asI369
(lp869
g335
ag491
ag25
ag431
ag29
ag232
ag384
ag367
ag60
ag309
asI370
(lp870
g772
ag40
ag631
ag559
ag29
ag485
ag328
ag426
ag667
ag295
asI371
(lp871
g480
ag538
ag393
ag481
ag264
ag468
ag16
ag25
ag11
ag591
asI372
(lp872
g389
ag455
ag90
ag101
ag199
ag185
ag511
ag393
ag164
ag233
asI373
(lp873
g125
ag84
ag500
ag485
ag10
ag358
ag147
ag155
ag163
ag9
asI374
(lp874
g299
ag410
ag161
ag497
ag462
ag84
ag393
ag344
ag428
ag57
asI375
(lp875
g551
ag343
ag107
ag337
ag447
ag93
ag101
ag504
ag428
ag134
asI376
(lp876
g91
ag189
ag656
ag29
ag83
ag760
ag106
ag520
ag354
ag247
asI377
(lp877
g448
ag101
ag272
ag241
ag40
ag471
ag378
ag380
ag185
ag116
asI378
(lp878
g382
ag219
ag284
ag316
ag91
ag479
ag447
ag726
ag547
ag148
asI379
(lp879
g365
ag305
ag189
ag402
ag5
ag233
ag190
ag361
ag465
ag576
asI380
(lp880
g358
ag173
ag154
ag323
ag471
ag413
ag94
ag270
ag457
ag553
asI381
(lp881
g62
ag83
ag121
ag125
ag426
ag408
ag413
ag70
ag372
ag450
asI382
(lp882
g370
ag215
ag117
ag138
ag401
ag179
ag296
ag299
ag462
ag156
asI383
(lp883
g153
ag190
ag480
ag83
ag643
ag36
ag384
ag474
ag262
ag25
asI384
(lp884
g18
ag193
ag574
ag60
ag22
ag52
ag556
ag546
ag471
ag578
asI385
(lp885
g120
ag233
ag576
ag76
ag266
ag331
ag14
ag154
ag232
ag562
asI386
(lp886
g539
ag360
ag486
ag267
ag280
ag345
ag270
ag332
ag300
ag368
asI387
(lp887
g663
ag91
ag559
ag101
ag113
ag97
ag167
ag164
ag129
ag305
asI388
(lp888
g525
ag681
ag329
ag131
ag592
ag402
ag240
ag284
ag143
ag508
asI389
(lp889
g336
ag255
ag309
ag501
ag196
ag90
ag151
ag581
ag402
ag249
asI390
(lp890
g151
ag337
ag497
ag232
ag17
ag117
ag240
ag146
ag508
ag154
asI391
(lp891
g43
ag268
aVhours
p892
ag484
ag161
ag467
ag120
ag137
ag146
ag760
asI392
(lp893
g143
ag175
ag392
ag335
ag376
ag576
ag681
ag200
ag92
ag41
asI393
(lp894
g366
ag243
ag109
ag323
ag22
ag171
ag520
ag252
ag184
ag84
asI394
(lp895
g477
ag224
ag456
ag545
ag127
ag160
ag199
ag546
ag251
ag361
asI395
(lp896
g49
ag634
ag320
ag87
ag221
ag396
ag772
ag269
ag337
ag9
asI396
(lp897
g252
ag68
ag240
ag42
ag201
ag231
ag344
ag467
ag555
ag126
asI397
(lp898
g244
ag270
ag69
ag429
ag233
ag437
ag123
ag404
ag249
ag504
asI398
(lp899
g174
ag457
ag668
ag128
ag461
ag191
ag538
ag159
ag516
ag471
asI399
(lp900
g488
ag357
ag264
ag108
ag398
ag42
ag26
ag16
ag583
ag164
asI400
(lp901
g514
ag221
ag348
ag665
ag559
ag144
ag137
ag358
ag511
ag290
asI401
(lp902
g204
ag105
ag203
ag300
ag259
ag176
ag210
ag307
ag249
ag70
asI402
(lp903
g52
ag173
ag373
ag404
ag574
ag416
ag144
ag384
ag272
ag296
asI403
(lp904
g404
ag351
ag239
ag490
ag266
ag195
ag47
ag364
ag608
ag13
asI404
(lp905
g167
ag200
ag494
ag585
ag475
ag385
ag760
ag451
ag217
ag668
asI405
(lp906
g136
ag224
ag676
ag388
ag201
ag197
ag450
ag349
ag73
ag152
asI406
(lp907
g377
ag219
ag39
ag552
ag106
ag270
ag585
ag273
ag13
ag143
asI407
(lp908
g301
ag316
ag489
ag219
ag9
ag411
ag387
ag77
ag174
ag517
asI408
(lp909
g310
ag547
ag239
ag435
ag180
ag263
ag85
ag455
ag643
ag143
asI409
(lp910
g506
ag570
ag249
ag83
ag103
ag371
ag452
ag6
ag424
ag387
asI410
(lp911
g303
ag412
ag30
ag109
ag39
ag28
ag168
ag327
ag477
ag191
asI411
(lp912
g354
ag311
ag300
ag74
ag94
ag337
ag146
ag327
ag215
ag117
asI412
(lp913
g317
ag285
ag226
ag570
ag333
ag625
ag370
ag92
ag440
ag245
asI413
(lp914
g247
ag559
ag461
ag591
ag416
ag382
ag106
ag36
ag311
ag467
asI414
(lp915
g453
ag451
ag266
ag353
ag160
ag114
ag18
ag316
ag111
ag522
asI415
(lp916
g688
ag313
ag266
ag79
ag318
ag519
ag152
ag208
ag563
ag415
asI416
(lp917
g160
ag120
ag26
ag412
ag404
ag39
ag497
ag326
ag350
ag74
asI417
(lp918
g284
ag130
ag99
ag3
ag160
ag82
ag479
ag355
ag307
ag676
asI418
(lp919
g14
ag631
ag58
ag180
ag284
ag91
ag362
ag90
ag419
ag344
asI419
(lp920
g237
ag539
ag622
ag418
ag47
ag413
ag348
ag668
ag592
ag252
asI420
(lp921
g138
ag267
ag179
ag329
ag154
ag207
ag133
ag501
ag306
ag527
asI421
(lp922
g221
ag424
ag232
ag121
ag244
ag428
ag411
ag231
ag70
ag373
asI422
(lp923
g2
ag183
ag552
ag213
ag89
ag387
ag385
ag462
ag128
ag599
asI423
(lp924
g459
ag656
ag327
ag226
ag508
ag498
ag244
ag171
ag190
ag576
asI424
(lp925
g40
ag224
ag634
ag503
ag202
ag419
ag71
ag222
ag131
ag578
asI425
(lp926
g311
ag18
ag69
ag80
ag142
ag168
ag66
ag35
ag167
ag203
asI426
(lp927
g489
ag462
ag8
ag70
ag322
ag28
ag349
ag396
ag82
ag289
asI427
(lp928
g190
ag176
ag683
ag15
ag300
ag285
ag136
ag342
ag615
ag648
asI428
(lp929
g583
ag428
ag61
ag304
ag207
ag30
ag536
ag221
ag501
ag340
asI429
(lp930
g603
ag565
ag269
ag331
ag310
ag329
ag418
ag106
ag113
ag358
asI430
(lp931
g135
ag83
ag477
ag519
ag217
ag469
ag348
ag578
ag213
ag28
asI431
(lp932
g384
ag490
ag259
ag164
ag484
ag448
ag367
ag215
ag266
ag555
asI432
(lp933
g393
ag583
ag40
ag358
ag892
ag511
ag505
ag368
ag221
ag237
asI433
(lp934
g322
ag656
ag293
ag20
ag28
ag233
ag103
ag175
ag47
ag485
asI434
(lp935
g40
ag457
ag289
ag244
ag27
ag270
ag525
ag453
ag605
ag648
asI435
(lp936
g634
ag108
ag291
ag97
ag222
ag124
ag131
ag298
ag345
ag77
asI436
(lp937
g3
ag158
ag160
ag288
ag467
ag681
ag287
ag110
ag335
ag597
asI437
(lp938
g525
ag424
ag295
ag437
ag313
ag511
ag471
ag137
ag389
ag92
asI438
(lp939
g28
ag419
ag103
ag394
ag174
ag62
ag57
ag300
ag472
ag4
asI439
(lp940
g53
ag73
ag152
ag179
ag451
ag93
ag312
ag27
ag268
ag557
asI440
(lp941
g488
ag213
ag620
ag306
ag589
ag68
ag361
ag683
ag226
ag403
asI441
(lp942
g25
ag393
ag151
ag411
ag567
ag74
ag622
ag322
ag247
ag726
asI442
(lp943
g241
ag252
ag551
ag310
ag70
ag511
ag514
ag64
ag18
ag231
asI443
(lp944
g183
ag672
ag7
ag516
ag148
ag505
ag187
ag360
ag653
ag207
asI444
(lp945
g565
ag146
ag133
ag128
ag187
ag303
ag589
ag62
ag481
ag56
asI445
(lp946
g351
ag102
ag98
ag385
ag29
ag512
ag237
ag290
ag73
ag413
asI446
(lp947
g85
ag448
ag214
ag397
ag399
ag247
ag305
ag608
ag255
ag38
asI447
(lp948
g32
ag594
ag219
ag486
ag33
ag520
ag181
ag294
ag61
ag35
asI448
(lp949
g109
ag166
ag207
ag180
ag597
ag357
ag59
ag56
ag26
ag316
asI449
(lp950
g668
ag266
ag41
ag14
ag394
ag344
ag200
ag36
ag288
ag223
asI450
(lp951
g52
ag287
ag318
ag433
ag109
ag160
ag13
ag281
ag772
ag567
asI451
(lp952
g175
ag283
ag313
ag488
ag760
ag421
ag236
ag356
ag120
ag416
asI452
(lp953
g412
ag599
ag139
ag360
ag111
ag429
ag38
ag538
ag341
ag35
asI453
(lp954
g637
ag253
ag120
ag257
ag683
ag233
ag497
ag407
ag8
ag517
asI454
(lp955
g357
ag573
ag382
ag80
ag463
ag58
ag298
ag437
ag129
ag443
asI455
(lp956
g653
ag581
ag497
ag585
ag396
ag9
ag166
ag489
ag77
ag246
asI456
(lp957
g708
ag474
ag282
ag164
ag31
ag459
ag158
ag175
ag304
ag253
asI457
(lp958
g479
ag418
ag58
ag353
ag96
ag398
ag109
ag82
ag402
ag208
asI458
(lp959
g180
ag82
ag16
ag459
ag453
ag36
ag399
ag312
ag56
ag257
asI459
(lp960
g152
ag451
ag224
ag177
ag26
ag311
ag490
ag117
ag158
ag447
asI460
(lp961
g426
ag428
ag139
ag527
ag225
ag10
ag255
ag93
ag384
ag15
asI461
(lp962
g246
ag13
ag230
ag189
ag80
ag284
ag226
ag79
ag147
ag63
asI462
(lp963
g210
ag97
ag555
ag237
ag229
ag270
ag439
ag440
ag506
ag659
asI463
(lp964
g412
ag231
ag512
ag592
ag232
ag53
ag156
ag347
ag364
ag402
asI464
(lp965
g203
ag450
ag393
ag21
ag280
ag306
ag416
ag117
ag248
ag545
asI465
(lp966
g435
ag401
ag474
ag226
ag196
ag19
ag174
ag44
ag100
ag498
asI466
(lp967
g358
ag175
ag520
ag498
ag407
ag361
ag536
ag459
ag354
ag6
asI467
(lp968
g282
ag249
ag41
ag480
ag280
ag110
ag48
ag154
ag180
ag115
asI468
(lp969
g156
ag216
ag30
ag2
ag329
ag59
ag522
ag261
ag643
ag301
asI469
(lp970
g225
ag306
ag467
ag87
ag568
ag681
ag108
ag397
ag434
ag176
asI470
(lp971
g69
ag128
ag168
ag463
ag74
ag43
ag382
ag269
ag96
ag341
asI471
(lp972
g720
ag448
ag99
ag497
ag158
ag603
ag159
ag338
ag620
ag406
asI472
(lp973
g613
ag40
ag81
ag68
ag285
ag720
ag56
ag147
ag189
ag291
asI473
(lp974
g220
ag504
ag47
ag472
ag166
ag188
ag282
ag206
ag358
ag327
asI474
(lp975
g361
ag206
ag335
ag567
ag651
ag490
ag277
ag510
ag32
ag296
asI475
(lp976
g9
ag53
ag665
ag120
ag179
ag892
ag224
ag164
ag163
ag596
asI476
(lp977
g351
ag51
ag226
ag406
ag362
ag108
ag401
ag494
ag90
ag42
asI477
(lp978
g35
ag44
ag517
ag420
ag155
ag72
ag106
ag142
ag300
ag562
asI478
(lp979
g208
ag594
ag344
ag333
ag176
ag241
ag337
ag376
ag130
ag225
asI479
(lp980
g517
ag436
ag444
ag238
ag155
ag314
ag5
ag360
ag428
ag452
asI480
(lp981
g347
ag310
ag39
ag239
ag311
ag189
ag51
ag408
ag130
ag361
asI481
(lp982
g453
ag113
ag9
ag368
ag167
ag114
ag223
ag501
ag120
ag517
asI482
(lp983
g553
ag143
ag350
ag631
ag615
ag269
ag225
ag260
ag418
ag18
asI483
(lp984
g408
ag620
ag465
ag213
ag38
ag323
ag84
ag344
ag411
ag313
asI484
(lp985
g479
ag407
ag319
ag69
ag317
ag324
ag592
ag335
ag341
ag434
asI485
(lp986
g498
ag296
ag437
ag305
ag179
ag110
ag412
ag174
ag183
ag353
asI486
(lp987
g40
ag479
ag35
ag168
ag311
ag760
ag434
ag665
ag457
ag90
asI487
(lp988
g53
ag146
ag402
ag68
ag183
ag284
ag511
ag217
ag397
ag303
asI488
(lp989
g189
ag87
ag27
ag240
ag282
ag559
ag197
ag525
ag634
ag411
asI489
(lp990
g61
ag510
ag222
ag350
ag29
ag114
ag263
ag16
ag126
ag11
asI490
(lp991
g387
ag418
ag24
ag172
ag255
ag189
ag138
ag209
ag373
ag484
asI491
(lp992
g264
ag341
ag165
ag474
ag270
ag184
ag103
ag193
ag323
ag398
asI492
(lp993
g494
ag651
ag33
ag573
ag307
ag216
ag195
ag391
ag5
ag301
asI493
(lp994
g556
ag40
ag421
ag423
ag11
ag536
ag287
ag148
ag384
ag100
asI494
(lp995
g307
ag4
ag401
ag68
ag226
ag153
ag583
ag365
ag283
ag91
asI495
(lp996
g428
ag269
ag152
ag439
ag149
ag401
ag484
ag128
ag64
ag291
asI496
(lp997
g295
ag125
ag30
ag514
ag22
ag519
ag387
ag402
ag219
ag216
asI497
(lp998
g581
ag651
ag408
ag430
ag15
ag500
ag222
ag209
ag520
ag285
asI498
(lp999
g170
ag455
ag282
ag268
ag196
ag176
ag15
ag668
ag477
ag51
asI499
(lp1000
g356
ag156
ag552
ag309
ag96
ag287
ag29
ag53
ag197
ag50
as.