(dp0
S'mdabdulbari1993'
p1
I0
sS'kuzandonoz'
p2
I0
sS'RustyRokib'
p3
I0
sS'rajmanoj11'
p4
I0
sS'Katsivan3'
p5
I0
sS'Begum__Ozdemirr'
p6
I0
sS'freewebmentor'
p7
I0
sS'BitplaceTo'
p8
I0
sS'DTO_Fr'
p9
I0
sS'Workout4Jesus'
p10
I0
s.